=== POWER / PERFORMANCE ANALYSIS ===

----------------------------------------
FILE: ./new-firmware.z1
TYPE: ./new-firmware.z1: ELF 32-bit LSB executable, TI msp430, version 1 (embedded), statically linked, with debug_info, not stripped

[Memory size / flash-RAM efficiency]
   text	   data	    bss	    dec	    hex	filename
  71715	    336	   5706	  77757	  12fbd	./new-firmware.z1

[Power / performance related symbols]
00003100 W __watchdog_support
0000526c t add_timer
00001af8 b bufmem_memb_mem
0000248f b bufmem_memb_used
000015a8 b buframmem_memb_mem
00002487 b buframmem_memb_used
00003f26 t cc2420_cca
00004152 T cc2420_get_txpower
000024b4 B cc2420_last_rssi
00004170 T cc2420_rssi
000042d6 T cc2420_set_cca_threshold
00004126 T cc2420_set_txpower
000035fe T cc2420_timerb1_interrupt
00004562 T clock_delay
0000453a T clock_init
00004592 T clock_seconds
00004520 T clock_time
0000456e T clock_wait
000050fa T ctimer_expired
00005034 T ctimer_init
0000133c b ctimer_list_list
00001130 D ctimer_process
000050a6 T ctimer_reset
00005096 T ctimer_set
0000504c T ctimer_set_with_process
000050d2 T ctimer_stop
00001264 b debouncetimer
00001204 d defaultroutermemb
00002314 b defaultroutermemb_memb_mem
0000249f b defaultroutermemb_memb_used
00001b58 b dis_timer
0000512c T energest_flush
0000512a T energest_init
000052d0 T etimer_expired
000052ea T etimer_next_expiration_time
000052de T etimer_pending
0000113c D etimer_process
0000519e T etimer_request_poll
000052be T etimer_reset
000052ac T etimer_set
00005300 T etimer_stop
0000a44e T get_probing_delay
0000a1b4 t handle_dao_ack_timer
0000a1c6 t handle_dio_timer
0000a2c2 t handle_dis_timer
0000a094 t handle_leaving_timer
0000a270 t handle_periodic_timer
0000a564 t handle_probing_timer
0000a156 t handle_unicast_dio_timer
00005ca4 T i2c_busy
000062ba T memb_alloc
000062f8 T memb_free
00006284 T memb_init
0000632a T memb_inmemb
00006354 T memb_numfree
00001128 d metadata_memb
000012fc b metadata_memb_memb_mem
0000245d b metadata_memb_memb_used
0000156c b mgt_timer
0000641a T msp430_cpu_init
00001494 b neighbor_addr_mem_memb_mem
0000247a b neighbor_addr_mem_memb_used
00001118 d neighbor_memb
00001280 b neighbor_memb_memb_mem
00002453 b neighbor_memb_memb_used
00001b84 b next_rtimer
00001224 d nodememb
00002392 b nodememb_memb_mem
000024a1 b nodememb_memb_used
0000c948 r output_power
00001120 d packet_memb
000012cc b packet_memb_memb_mem
00002455 b packet_memb_memb_used
00006ac8 T packetbuf_addr
000024ee B packetbuf_addrs
000014ec b packetbuf_aligned
00006aaa T packetbuf_attr
000069f4 T packetbuf_attr_clear
00006a7a T packetbuf_attr_copyfrom
00006a58 T packetbuf_attr_copyto
000024fe B packetbuf_attrs
00006a1c T packetbuf_clear
00006a2e T packetbuf_copyfrom
00006972 T packetbuf_copyto
00006956 T packetbuf_datalen
00006966 T packetbuf_dataptr
0000249b b packetbuf_hdr_len
000069b8 T packetbuf_hdralloc
0000695c T packetbuf_hdrlen
00006950 T packetbuf_hdrptr
00006930 T packetbuf_hdrreduce
00006ad6 T packetbuf_holds_broadcast
00001b9e b packetbuf_payload_len
00001b96 b packetbuf_ptr
00006ab4 T packetbuf_set_addr
00006a9e T packetbuf_set_attr
0000694a T packetbuf_set_datalen
000069ac T packetbuf_totlen
00001b6e b periodic_timer
000024ce B periodic_timer
00006c22 T platform_idle
00004f94 t process_thread_ctimer_process
000051a8 t process_thread_etimer_process
00006fb4 T queuebuf_attr
00006f58 T queuebuf_free
00006edc T queuebuf_init
00006ef8 T queuebuf_new_from_packetbuf
00006eee T queuebuf_numfree
00006f82 T queuebuf_to_packetbuf
00006f46 T queuebuf_update_attr_from_packetbuf
0000a2e8 T rpl_timers_dio_reset
0000a694 T rpl_timers_init
0000a3d0 T rpl_timers_notify_dao_ack
0000a364 T rpl_timers_schedule_dao
0000a39c T rpl_timers_schedule_dao_ack
0000a66a T rpl_timers_schedule_leaving
0000a234 T rpl_timers_schedule_periodic_dis
0000a70c T rpl_timers_schedule_state_update
0000a344 T rpl_timers_schedule_unicast_dio
0000a6b0 T rpl_timers_stop_dag_timers
0000a64e T rpl_timers_unschedule_leaving
0000a6fc T rpl_timers_unschedule_state_update
0000aab8 T rtimer_arch_init
0000aac6 T rtimer_arch_now
0000aad4 T rtimer_arch_schedule
0000aada T rtimer_init
0000aae0 T rtimer_run_next
0000124e d send_on_cca
0000c162 T stimer_expired
0000c146 T stimer_set
00001254 b suppressTimer1
0000125c b suppressTimer2
00001344 b timer.1936
0000c6fc T timer_expired
0000c726 T timer_reset
0000c6e0 T timer_set
0000378c T timera0
00003624 T timera1
0000133e b timerlist
000027a6 B uip_ds6_timer_periodic
00002632 B uip_ds6_timer_ra
00012ca0 T uip_sr_free_all
00003cb4 t wait_for_status
00003c92 t wait_for_transmission
00013d9c t wait_ready
00013d8a T watchdog_init
000037d8 T watchdog_interrupt
00013d62 T watchdog_periodic
00013d4e T watchdog_start
00013d74 T watchdog_stop

[CPU-intensive / large functions]
00004650 00000126 t tx_done
000042ec 0000014a t set_value
00005850 0000014e t parse
0001206c 00000156 t echo_request_input
000056f4 0000015c T frame802154_parse
00001ba4 00000168 b frag_info
00012e5a 0000016e t ext_hdr_options_process
00013f0c 00000176 t print_field
00012a0a 00000182 T uip_sr_update_node
0000735c 000001a4 t process_dio_init_dag
000082f8 000001b0 T rpl_ext_header_hbh_update
00012212 000001c4 T uip_icmp6_error_output
00009bc8 000001da T rpl_neighbor_snprint
00004d66 000001ea t input_packet
00008106 000001f2 T rpl_ext_header_srh_update
000095be 000001f2 T rpl_icmp6_dao_output
0000ae48 00000204 t add_fragment
0000779c 00000204 T rpl_dag_update_state
0000313e 00000232 T main
00008aea 00000248 t dao_input
00004a58 00000270 T csma_output_packet
00011d22 00000282 T uip_ds6_init
0000931c 000002a2 T rpl_icmp6_dio_output
00004776 000002e2 t transmit_from_queue
000079a0 00000344 T rpl_process_dio
0000c1d2 000003e6 T tcpip_ipv6_output
000124de 00000420 t ns_input
00008568 00000438 T rpl_ext_header_update
00008d32 00000454 t dio_input
000015a8 00000550 b buframmem_memb_mem
00001d0c 00000558 b frag_buf
00014082 00000742 T vuprintf
000130f2 00000992 T uip_process
0000b1cc 00000df4 t output
00010000 0000118a t input

[Power / performance related strings]
could not allocate queuebuf, dropping packet
could not allocate packet, dropping packet
could not allocate neighbor, dropping packet
Failed to retrieve max radio driver payload length
! radio does not support getting RADIO_CONST_MAX_PAYLOAD_LEN. Abort init.
Ctimer process
Event timer
just joined, no parent yet, setting timer for leaving
poisoning and leaving after a delay
reset DIO timer (%s)
output: could not allocate queuebuf, dropping fragment
output: failed to calculate payload size - dropping packet
Not enough packetbuf space to compress header (%u bytes, %u left). Aborting.
output: fragmentation needed. fragments: %u, free queuebufs: %zu
output: dropping packet, not enough free bufs (needed: %zu, free: %zu)
input: failed to allocate new reassembly context
Not enough packetbuf space to decompress header (%u bytes, %u left). Aborting.
, out of memory
Extension header option too long: dropping packet
RPL Option Error: Dropping Packet
dropping packet with length %d > %d
Dropping packet, src is mcast
Dropping packet, not for me and link local or multicast

[Busy-wait / delay / loop related disassembly samples]
00013d4e <watchdog_start>:
   13d4e:	1f 42 46 24 	mov	&0x2446,r15	
   13d52:	3f 53       	add	#-1,	r15	;r3 As==11
   13d54:	82 4f 46 24 	mov	r15,	&0x2446	
   13d58:	03 20       	jnz	$+8      	;abs 0x13d60
   13d5a:	b2 40 1c 5a 	mov	#23068,	&0x0120	;#0x5a1c
   13d5e:	20 01 
   13d60:	10 01       	reta			

00013d62 <watchdog_periodic>:
   13d62:	1f 42 20 01 	mov	&0x0120,r15	
   13d66:	3f f0 ff 00 	and	#255,	r15	;#0x00ff
   13d6a:	3f d0 18 5a 	bis	#23064,	r15	;#0x5a18
   13d6e:	82 4f 20 01 	mov	r15,	&0x0120	
   13d72:	10 01       	reta			

00013d74 <watchdog_stop>:
   13d74:	1f 42 46 24 	mov	&0x2446,r15	
   13d78:	1f 53       	inc	r15		
   13d7a:	82 4f 46 24 	mov	r15,	&0x2446	
   13d7e:	1f 93       	cmp	#1,	r15	;r3 As==01
   13d80:	03 20       	jnz	$+8      	;abs 0x13d88
   13d82:	b2 40 80 5a 	mov	#23168,	&0x0120	;#0x5a80
   13d86:	20 01 
   13d88:	10 01       	reta			

00013d8a <watchdog_init>:
   13d8a:	82 43 46 24 	mov	#0,	&0x2446	;r3 As==00
   13d8e:	b1 13 74 3d 	calla	#0x13d74	
   13d92:	d2 c3 02 00 	bic.b	#1,	&0x0002	;r3 As==01
   13d96:	d2 d3 00 00 	bis.b	#1,	&0x0000	;r3 As==01
   13d9a:	10 01       	reta			

00013d9c <wait_ready>:
   13d9c:	0b 14       	pushm.a	#1,	r11	
   13d9e:	b0 13 a2 63 	calla	#0x063a2	
   13da2:	f2 f0 ef ff 	and.b	#-17,	&0x001d	;#0xffef
   13da6:	1d 00 
   13da8:	f2 b2 03 00 	bit.b	#8,	&0x0003	;r2 As==11
   13dac:	fd 27       	jz	$-4      	;abs 0x13da8
   13dae:	f2 40 05 00 	mov.b	#5,	&0x006f	;#0x0005
   13db2:	6f 00 
   13db4:	d2 b3 6d 00 	bit.b	#1,	&0x006d	;r3 As==01
   13db8:	fd 23       	jnz	$-4      	;abs 0x13db4
   13dba:	5e 42 6e 00 	mov.b	&0x006e,r14	
   13dbe:	c2 43 6f 00 	mov.b	#0,	&0x006f	;r3 As==00
   13dc2:	e2 b2 03 00 	bit.b	#4,	&0x0003	;r2 As==10
   13dc6:	fd 27       	jz	$-4      	;abs 0x13dc2
   13dc8:	5b 42 6e 00 	mov.b	&0x006e,r11	
   13dcc:	f2 d0 10 00 	bis.b	#16,	&0x001d	;#0x0010
   13dd0:	1d 00 
   13dd2:	02 df       	bis	r15,	r2	
--
00003100 <__watchdog_support>:
    3100:	55 42 20 01 	mov.b	&0x0120,r5	
    3104:	35 d0 08 5a 	bis	#23048,	r5	;#0x5a08
    3108:	82 45 98 28 	mov	r5,	&0x2898	

0000310c <__init_stack>:
    310c:	31 40 00 31 	mov	#12544,	r1	;#0x3100

00003110 <__do_copy_data>:
    3110:	3f 40 50 01 	mov	#336,	r15	;#0x0150
    3114:	0f 93       	tst	r15		
    3116:	08 24       	jz	$+18     	;abs 0x3128
    3118:	92 42 98 28 	mov	&0x2898,&0x0120	
    311c:	20 01 
    311e:	2f 83       	decd	r15		
    3120:	9f 4f 6e fe 	mov	-402(r15),4352(r15);0xfe6e(r15), 0x1100(r15)
    3124:	00 11 
    3126:	f8 23       	jnz	$-14     	;abs 0x3118

--
000035fe <cc2420_timerb1_interrupt>:
    35fe:	0f 14       	pushm.a	#1,	r15	
    3600:	1f 42 1e 01 	mov	&0x011e,r15	
    3604:	e2 b3 1c 00 	bit.b	#2,	&0x001c	;r3 As==10
    3608:	06 24       	jz	$+14     	;abs 0x3616
    360a:	d2 53 bc 24 	inc.b	&0x24bc	
    360e:	92 42 94 01 	mov	&0x0194,&0x24b6	
    3612:	b6 24 
    3614:	05 3c       	jmp	$+12     	;abs 0x3620
    3616:	c2 43 bc 24 	mov.b	#0,	&0x24bc	;r3 As==00
    361a:	92 42 94 01 	mov	&0x0194,&0x24be	
    361e:	be 24 
    3620:	0f 16       	popm.a	#1,	r15	
    3622:	00 13       	reti			

00003624 <timera1>:
    3624:	3f 14       	pushm.a	#4,	r15	
    3626:	b1 13 4e 3d 	calla	#0x13d4e	
    362a:	1f 42 2e 01 	mov	&0x012e,r15	
    362e:	2f 93       	cmp	#2,	r15	;r3 As==10
    3630:	5d 20       	jnz	$+188    	;abs 0x36ec
    3632:	b2 b0 20 00 	bit	#32,	&0x0160	;#0x0020
    3636:	60 01 
    3638:	0b 24       	jz	$+24     	;abs 0x3650
    363a:	1e 42 74 01 	mov	&0x0174,r14	
    363e:	1f 42 70 01 	mov	&0x0170,r15	
    3642:	1d 42 70 01 	mov	&0x0170,r13	
    3646:	0f 9d       	cmp	r13,	r15	
    3648:	fa 23       	jnz	$-10     	;abs 0x363e
    364a:	0e 8f       	sub	r15,	r14	
    364c:	1e 93       	cmp	#1,	r14	;r3 As==01
    364e:	f1 27       	jz	$-28     	;abs 0x3632
    3650:	1f 42 70 01 	mov	&0x0170,r15	
    3654:	1e 42 70 01 	mov	&0x0170,r14	
--
0000378c <timera0>:
    378c:	3f 14       	pushm.a	#4,	r15	
    378e:	b1 13 4e 3d 	calla	#0x13d4e	
    3792:	b0 13 e0 aa 	calla	#0x0aae0	
    3796:	b0 13 24 6e 	calla	#0x06e24	
    379a:	0f 93       	tst	r15		
    379c:	04 24       	jz	$+10     	;abs 0x37a6
    379e:	03 38       	jl	$+8      	;abs 0x37a6
    37a0:	b1 c0 f0 00 	bic	#240,	16(r1)	;#0x00f0, 0x0010(r1)
    37a4:	10 00 
    37a6:	b1 13 74 3d 	calla	#0x13d74	
    37aa:	3c 16       	popm.a	#4,	r15	
    37ac:	00 13       	reti			

000037ae <uart0_rx_interrupt>:
    37ae:	3f 14       	pushm.a	#4,	r15	
    37b0:	e2 b2 65 00 	bit.b	#4,	&0x0065	;r2 As==10
    37b4:	03 24       	jz	$+8      	;abs 0x37bc
    37b6:	5f 42 66 00 	mov.b	&0x0066,r15	
--
000037d8 <watchdog_interrupt>:
    37d8:	82 43 20 01 	mov	#0,	&0x0120	;r3 As==00
    37dc:	00 13       	reti			

000037de <status>:
    37de:	3f 50 7f ff 	add	#-129,	r15	;#0xff7f
    37e2:	2f 93       	cmp	#2,	r15	;r3 As==10
    37e4:	03 2c       	jc	$+8      	;abs 0x37ec
    37e6:	5f 42 4c 24 	mov.b	&0x244c,r15	
    37ea:	10 01       	reta			
    37ec:	0f 43       	clr	r15		
    37ee:	10 01       	reta			

000037f0 <accm_write_reg>:
    37f0:	21 83       	decd	r1		
    37f2:	c1 4f 00 00 	mov.b	r15,	0(r1)	;0x0000(r1)
    37f6:	c1 4e 01 00 	mov.b	r14,	1(r1)	;0x0001(r1)
    37fa:	7f 40 53 00 	mov.b	#83,	r15	;#0x0053
    37fe:	b0 13 36 5c 	calla	#0x05c36	
--
00003c92 <wait_for_transmission>:
    3c92:	0b 14       	pushm.a	#1,	r11	
    3c94:	b0 13 c6 aa 	calla	#0x0aac6	
    3c98:	3b 40 34 f3 	mov	#-3276,	r11	;#0xf334
    3c9c:	0b 8f       	sub	r15,	r11	
    3c9e:	b0 13 46 3c 	calla	#0x03c46	
    3ca2:	7f f2       	and.b	#8,	r15	;r2 As==11
    3ca4:	05 24       	jz	$+12     	;abs 0x3cb0
    3ca6:	b0 13 c6 aa 	calla	#0x0aac6	
    3caa:	0f 5b       	add	r11,	r15	
    3cac:	0f 93       	tst	r15		
    3cae:	f7 3b       	jl	$-16     	;abs 0x3c9e
    3cb0:	0b 16       	popm.a	#1,	r11	
    3cb2:	10 01       	reta			

00003cb4 <wait_for_status>:
    3cb4:	1b 14       	pushm.a	#2,	r11	
    3cb6:	4a 4f       	mov.b	r15,	r10	
    3cb8:	b0 13 c6 aa 	calla	#0x0aac6	
    3cbc:	3b 40 34 f3 	mov	#-3276,	r11	;#0xf334
    3cc0:	0b 8f       	sub	r15,	r11	
    3cc2:	b0 13 46 3c 	calla	#0x03c46	
    3cc6:	4f ba       	bit.b	r10,	r15	
    3cc8:	05 20       	jnz	$+12     	;abs 0x3cd4
    3cca:	b0 13 c6 aa 	calla	#0x0aac6	
    3cce:	0f 5b       	add	r11,	r15	
    3cd0:	0f 93       	tst	r15		
    3cd2:	f7 3b       	jl	$-16     	;abs 0x3cc2
    3cd4:	1a 16       	popm.a	#2,	r11	
    3cd6:	10 01       	reta			

00003cd8 <getrxdata>:

----------------------------------------
FILE: ./udp-client.z1
TYPE: ./udp-client.z1: ELF 32-bit LSB executable, TI msp430, version 1 (embedded), statically linked, with debug_info, not stripped

[Memory size / flash-RAM efficiency]
   text	   data	    bss	    dec	    hex	filename
  42871	    336	   5922	  49129	   bfe9	./udp-client.z1

[Power / performance related symbols]
00003100 W __watchdog_support
00004d6e t add_timer
00001aec b bufmem_memb_mem
000024b9 b bufmem_memb_used
0000159c b buframmem_memb_mem
000024b1 b buframmem_memb_used
00003f26 t cc2420_cca
00004152 T cc2420_get_txpower
0000258a B cc2420_last_rssi
00004170 T cc2420_rssi
000042d6 T cc2420_set_cca_threshold
00004126 T cc2420_set_txpower
000035fe T cc2420_timerb1_interrupt
00004562 T clock_delay
0000453a T clock_init
00004592 T clock_seconds
00004520 T clock_time
0000456e T clock_wait
00004bfc T ctimer_expired
00004b36 T ctimer_init
0000133c b ctimer_list_list
00001130 D ctimer_process
00004ba8 T ctimer_reset
00004b98 T ctimer_set
00004b4e T ctimer_set_with_process
00004bd4 T ctimer_stop
00001264 b debouncetimer
00001204 d defaultroutermemb
0000233e b defaultroutermemb_memb_mem
00002576 b defaultroutermemb_memb_used
00001b4c b dis_timer
00004c2e T energest_flush
00004c2c T energest_init
00004dd2 T etimer_expired
00004dec T etimer_next_expiration_time
00004de0 T etimer_pending
0000113c D etimer_process
00004ca0 T etimer_request_poll
00004dc0 T etimer_reset
00004dae T etimer_set
00004e02 T etimer_stop
00008632 T get_probing_delay
000083de t handle_dao_ack_timer
000083f0 t handle_dio_timer
000084d4 t handle_dis_timer
000082be t handle_leaving_timer
0000849a t handle_periodic_timer
00008748 t handle_probing_timer
00008380 t handle_unicast_dio_timer
000055f2 T i2c_busy
00005c08 T memb_alloc
00005c46 T memb_free
00005bd2 T memb_init
00005c78 T memb_inmemb
00005ca2 T memb_numfree
00001128 d metadata_memb
000012fc b metadata_memb_memb_mem
00002487 b metadata_memb_memb_used
00001560 b mgt_timer
00005d68 T msp430_cpu_init
00001488 b neighbor_addr_mem_memb_mem
000024a4 b neighbor_addr_mem_memb_used
00001118 d neighbor_memb
00001280 b neighbor_memb_memb_mem
0000247d b neighbor_memb_memb_used
00001b78 b next_rtimer
00001224 d nodememb
000023bc b nodememb_memb_mem
00002578 b nodememb_memb_used
0000d390 r output_power
00001120 d packet_memb
000012cc b packet_memb_memb_mem
0000247f b packet_memb_memb_used
00006416 T packetbuf_addr
000025c4 B packetbuf_addrs
000014e0 b packetbuf_aligned
000063f8 T packetbuf_attr
00006342 T packetbuf_attr_clear
000063c8 T packetbuf_attr_copyfrom
000063a6 T packetbuf_attr_copyto
000025d4 B packetbuf_attrs
0000636a T packetbuf_clear
0000637c T packetbuf_copyfrom
000062c0 T packetbuf_copyto
000062a4 T packetbuf_datalen
000062b4 T packetbuf_dataptr
000024c5 b packetbuf_hdr_len
00006306 T packetbuf_hdralloc
000062aa T packetbuf_hdrlen
0000629e T packetbuf_hdrptr
0000627e T packetbuf_hdrreduce
00006424 T packetbuf_holds_broadcast
00001b96 b packetbuf_payload_len
00001b8a b packetbuf_ptr
00006402 T packetbuf_set_addr
000063ec T packetbuf_set_attr
00006298 T packetbuf_set_datalen
000062fa T packetbuf_totlen
00001b62 b periodic_timer
000025a4 B periodic_timer
00002294 b periodic_timer.3031
00006570 T platform_idle
00004a96 t process_thread_ctimer_process
00004caa t process_thread_etimer_process
000068a6 T queuebuf_free
0000682a T queuebuf_init
00006846 T queuebuf_new_from_packetbuf
0000683c T queuebuf_numfree
000068d0 T queuebuf_to_packetbuf
00006894 T queuebuf_update_attr_from_packetbuf
000084fa T rpl_timers_dio_reset
000087d8 T rpl_timers_init
000085b4 T rpl_timers_notify_dao_ack
00008548 T rpl_timers_schedule_dao
00008580 T rpl_timers_schedule_dao_ack
000087ae T rpl_timers_schedule_leaving
0000845e T rpl_timers_schedule_periodic_dis
00008850 T rpl_timers_schedule_state_update
00008528 T rpl_timers_schedule_unicast_dio
000087f4 T rpl_timers_stop_dag_timers
00008792 T rpl_timers_unschedule_leaving
00008840 T rpl_timers_unschedule_state_update
00008ac6 T rtimer_arch_init
00008ad4 T rtimer_arch_now
00008ae2 T rtimer_arch_schedule
00008ae8 T rtimer_init
00008aee T rtimer_run_next
0000124e d send_on_cca
0000a424 T stimer_expired
0000a408 T stimer_set
00001254 b suppressTimer1
0000125c b suppressTimer2
0000a6d4 T timer_expired
0000a6fe T timer_reset
0000a6b8 T timer_set
0000378c T timera0
00003624 T timera1
0000133e b timerlist
0000287c B uip_ds6_timer_periodic
00002708 B uip_ds6_timer_ra
0000bae2 T uip_sr_free_all
00003cb4 t wait_for_status
00003c92 t wait_for_transmission
0000c5dc t wait_ready
0000c5ca T watchdog_init
000037d8 T watchdog_interrupt
0000c5a2 T watchdog_periodic
0000c58e T watchdog_start
0000c5b4 T watchdog_stop

[CPU-intensive / large functions]
00005744 000000e2 T link_stats_packet_sent
0000d08c 000000e8 T memcpy
0000d174 000000e8 T memmove
00007238 000000e8 T rpl_ext_header_srh_update
00004436 000000ea T cc2420_init
00005826 000000f6 T link_stats_input_callback
000025ec 0000010c B curr_instance
0000a4ae 0000010c T tcpip_ipv6_output
00002710 00000110 B uip_ds6_if
0000c47a 00000114 T uiplib_ipaddr_snprint
000041b8 0000011e t get_value
0000778a 00000128 t dao_input
0000b430 00000136 T uip_icmp6_error_output
00006ca8 00000138 T rpl_dag_update_state
00004854 00000148 T csma_output_packet
000042ec 0000014a t set_value
0000a904 0000014c t process_thread_udp_client_process
000051f6 0000015c T frame802154_parse
0000b196 00000164 T uip_ds6_init
00001b98 00000168 b frag_info
00008eaa 0000016a t add_fragment
0000c74c 00000176 t print_field
00006de0 0000019e T rpl_process_dio
000046a4 000001b0 t transmit_from_queue
00007ba6 00000218 T rpl_icmp6_dio_output
0000313e 00000232 T main
0000746e 00000266 T rpl_ext_header_update
000078b2 00000274 t dio_input
0000b5fa 00000292 t ns_input
0000be0e 000004b6 T uip_process
0000159c 00000550 b buframmem_memb_mem
00001d00 00000558 b frag_buf
0000c8c2 00000742 T vuprintf
000090aa 0000075a t output
00009804 00000918 t input

[Power / performance related strings]
Ctimer process
Event timer

[Busy-wait / delay / loop related disassembly samples]
00003100 <__watchdog_support>:
    3100:	55 42 20 01 	mov.b	&0x0120,r5	
    3104:	35 d0 08 5a 	bis	#23048,	r5	;#0x5a08
    3108:	82 45 70 29 	mov	r5,	&0x2970	

0000310c <__init_stack>:
    310c:	31 40 00 31 	mov	#12544,	r1	;#0x3100

00003110 <__do_copy_data>:
    3110:	3f 40 50 01 	mov	#336,	r15	;#0x0150
    3114:	0f 93       	tst	r15		
    3116:	08 24       	jz	$+18     	;abs 0x3128
    3118:	92 42 70 29 	mov	&0x2970,&0x0120	
    311c:	20 01 
    311e:	2f 83       	decd	r15		
    3120:	9f 4f 38 d8 	mov	-10184(r15),4352(r15);0xd838(r15), 0x1100(r15)
    3124:	00 11 
    3126:	f8 23       	jnz	$-14     	;abs 0x3118

--
000035fe <cc2420_timerb1_interrupt>:
    35fe:	0f 14       	pushm.a	#1,	r15	
    3600:	1f 42 1e 01 	mov	&0x011e,r15	
    3604:	e2 b3 1c 00 	bit.b	#2,	&0x001c	;r3 As==10
    3608:	06 24       	jz	$+14     	;abs 0x3616
    360a:	d2 53 92 25 	inc.b	&0x2592	
    360e:	92 42 94 01 	mov	&0x0194,&0x258c	
    3612:	8c 25 
    3614:	05 3c       	jmp	$+12     	;abs 0x3620
    3616:	c2 43 92 25 	mov.b	#0,	&0x2592	;r3 As==00
    361a:	92 42 94 01 	mov	&0x0194,&0x2594	
    361e:	94 25 
    3620:	0f 16       	popm.a	#1,	r15	
    3622:	00 13       	reti			

00003624 <timera1>:
    3624:	3f 14       	pushm.a	#4,	r15	
    3626:	b0 13 8e c5 	calla	#0x0c58e	
    362a:	1f 42 2e 01 	mov	&0x012e,r15	
    362e:	2f 93       	cmp	#2,	r15	;r3 As==10
    3630:	5d 20       	jnz	$+188    	;abs 0x36ec
    3632:	b2 b0 20 00 	bit	#32,	&0x0160	;#0x0020
    3636:	60 01 
    3638:	0b 24       	jz	$+24     	;abs 0x3650
    363a:	1e 42 74 01 	mov	&0x0174,r14	
    363e:	1f 42 70 01 	mov	&0x0170,r15	
    3642:	1d 42 70 01 	mov	&0x0170,r13	
    3646:	0f 9d       	cmp	r13,	r15	
    3648:	fa 23       	jnz	$-10     	;abs 0x363e
    364a:	0e 8f       	sub	r15,	r14	
    364c:	1e 93       	cmp	#1,	r14	;r3 As==01
    364e:	f1 27       	jz	$-28     	;abs 0x3632
    3650:	1f 42 70 01 	mov	&0x0170,r15	
    3654:	1e 42 70 01 	mov	&0x0170,r14	
--
0000378c <timera0>:
    378c:	3f 14       	pushm.a	#4,	r15	
    378e:	b0 13 8e c5 	calla	#0x0c58e	
    3792:	b0 13 ee 8a 	calla	#0x08aee	
    3796:	b0 13 72 67 	calla	#0x06772	
    379a:	0f 93       	tst	r15		
    379c:	04 24       	jz	$+10     	;abs 0x37a6
    379e:	03 38       	jl	$+8      	;abs 0x37a6
    37a0:	b1 c0 f0 00 	bic	#240,	16(r1)	;#0x00f0, 0x0010(r1)
    37a4:	10 00 
    37a6:	b0 13 b4 c5 	calla	#0x0c5b4	
    37aa:	3c 16       	popm.a	#4,	r15	
    37ac:	00 13       	reti			

000037ae <uart0_rx_interrupt>:
    37ae:	3f 14       	pushm.a	#4,	r15	
    37b0:	e2 b2 65 00 	bit.b	#4,	&0x0065	;r2 As==10
    37b4:	03 24       	jz	$+8      	;abs 0x37bc
    37b6:	5f 42 66 00 	mov.b	&0x0066,r15	
--
000037d8 <watchdog_interrupt>:
    37d8:	82 43 20 01 	mov	#0,	&0x0120	;r3 As==00
    37dc:	00 13       	reti			

000037de <status>:
    37de:	3f 50 7f ff 	add	#-129,	r15	;#0xff7f
    37e2:	2f 93       	cmp	#2,	r15	;r3 As==10
    37e4:	03 2c       	jc	$+8      	;abs 0x37ec
    37e6:	5f 42 76 24 	mov.b	&0x2476,r15	
    37ea:	10 01       	reta			
    37ec:	0f 43       	clr	r15		
    37ee:	10 01       	reta			

000037f0 <accm_write_reg>:
    37f0:	21 83       	decd	r1		
    37f2:	c1 4f 00 00 	mov.b	r15,	0(r1)	;0x0000(r1)
    37f6:	c1 4e 01 00 	mov.b	r14,	1(r1)	;0x0001(r1)
    37fa:	7f 40 53 00 	mov.b	#83,	r15	;#0x0053
    37fe:	b0 13 84 55 	calla	#0x05584	
--
00003c92 <wait_for_transmission>:
    3c92:	0b 14       	pushm.a	#1,	r11	
    3c94:	b0 13 d4 8a 	calla	#0x08ad4	
    3c98:	3b 40 34 f3 	mov	#-3276,	r11	;#0xf334
    3c9c:	0b 8f       	sub	r15,	r11	
    3c9e:	b0 13 46 3c 	calla	#0x03c46	
    3ca2:	7f f2       	and.b	#8,	r15	;r2 As==11
    3ca4:	05 24       	jz	$+12     	;abs 0x3cb0
    3ca6:	b0 13 d4 8a 	calla	#0x08ad4	
    3caa:	0f 5b       	add	r11,	r15	
    3cac:	0f 93       	tst	r15		
    3cae:	f7 3b       	jl	$-16     	;abs 0x3c9e
    3cb0:	0b 16       	popm.a	#1,	r11	
    3cb2:	10 01       	reta			

00003cb4 <wait_for_status>:
    3cb4:	1b 14       	pushm.a	#2,	r11	
    3cb6:	4a 4f       	mov.b	r15,	r10	
    3cb8:	b0 13 d4 8a 	calla	#0x08ad4	
    3cbc:	3b 40 34 f3 	mov	#-3276,	r11	;#0xf334
    3cc0:	0b 8f       	sub	r15,	r11	
    3cc2:	b0 13 46 3c 	calla	#0x03c46	
    3cc6:	4f ba       	bit.b	r10,	r15	
    3cc8:	05 20       	jnz	$+12     	;abs 0x3cd4
    3cca:	b0 13 d4 8a 	calla	#0x08ad4	
    3cce:	0f 5b       	add	r11,	r15	
    3cd0:	0f 93       	tst	r15		
    3cd2:	f7 3b       	jl	$-16     	;abs 0x3cc2
    3cd4:	1a 16       	popm.a	#2,	r11	
    3cd6:	10 01       	reta			

00003cd8 <getrxdata>:
    3cd8:	0b 14       	pushm.a	#1,	r11	
    3cda:	d2 c3 19 00 	bic.b	#1,	&0x0019	;r3 As==01
--
00004126 <cc2420_set_txpower>:
    4126:	0b 14       	pushm.a	#1,	r11	
    4128:	4b 4f       	mov.b	r15,	r11	
    412a:	d2 53 78 24 	inc.b	&0x2478	
    412e:	3f 40 15 00 	mov	#21,	r15	;#0x0015
    4132:	b0 13 12 3b 	calla	#0x03b12	
    4136:	3f f0 e0 ff 	and	#-32,	r15	;#0xffe0
    413a:	0e 4b       	mov	r11,	r14	
    413c:	3e f0 1f 00 	and	#31,	r14	;#0x001f
    4140:	0e df       	bis	r15,	r14	
    4142:	3f 40 15 00 	mov	#21,	r15	;#0x0015
    4146:	b0 13 58 3b 	calla	#0x03b58	
    414a:	b0 13 66 3d 	calla	#0x03d66	
    414e:	0b 16       	popm.a	#1,	r11	
    4150:	10 01       	reta			

00004152 <cc2420_get_txpower>:
    4152:	0b 14       	pushm.a	#1,	r11	
    4154:	d2 53 78 24 	inc.b	&0x2478	
    4158:	3f 40 15 00 	mov	#21,	r15	;#0x0015
    415c:	b0 13 12 3b 	calla	#0x03b12	
    4160:	0b 4f       	mov	r15,	r11	
    4162:	b0 13 66 3d 	calla	#0x03d66	
    4166:	0f 4b       	mov	r11,	r15	
    4168:	3f f0 1f 00 	and	#31,	r15	;#0x001f
    416c:	0b 16       	popm.a	#1,	r11	
    416e:	10 01       	reta			

00004170 <cc2420_rssi>:
    4170:	1b 14       	pushm.a	#2,	r11	
    4172:	c2 93 78 24 	tst.b	&0x2478	
    4176:	1c 20       	jnz	$+58     	;abs 0x41b0
    4178:	d2 43 78 24 	mov.b	#1,	&0x2478	;r3 As==01
    417c:	c2 93 7b 24 	tst.b	&0x247b	
    4180:	04 20       	jnz	$+10     	;abs 0x418a
--
00004562 <clock_delay>:
    4562:	02 3c       	jmp	$+6      	;abs 0x4568
    4564:	03 43       	nop			
    4566:	3f 53       	add	#-1,	r15	;r3 As==11
    4568:	0f 93       	tst	r15		
    456a:	fc 23       	jnz	$-6      	;abs 0x4564
    456c:	10 01       	reta			

0000456e <clock_wait>:
    456e:	3b 14       	pushm.a	#4,	r11	
    4570:	08 4e       	mov	r14,	r8	
    4572:	09 4f       	mov	r15,	r9	
    4574:	b0 13 20 45 	calla	#0x04520	
    4578:	0a 4e       	mov	r14,	r10	

----------------------------------------
FILE: ./udp-server.z1
TYPE: ./udp-server.z1: ELF 32-bit LSB executable, TI msp430, version 1 (embedded), statically linked, with debug_info, not stripped

[Memory size / flash-RAM efficiency]
   text	   data	    bss	    dec	    hex	filename
  42585	    336	   5866	  48787	   be93	./udp-server.z1

[Power / performance related symbols]
00003100 W __watchdog_support
00004d6e t add_timer
00001aec b bufmem_memb_mem
000024a1 b bufmem_memb_used
0000159c b buframmem_memb_mem
00002499 b buframmem_memb_used
00003f26 t cc2420_cca
00004152 T cc2420_get_txpower
00002552 B cc2420_last_rssi
00004170 T cc2420_rssi
000042d6 T cc2420_set_cca_threshold
00004126 T cc2420_set_txpower
000035fe T cc2420_timerb1_interrupt
00004562 T clock_delay
0000453a T clock_init
00004592 T clock_seconds
00004520 T clock_time
0000456e T clock_wait
00004bfc T ctimer_expired
00004b36 T ctimer_init
0000133c b ctimer_list_list
00001130 D ctimer_process
00004ba8 T ctimer_reset
00004b98 T ctimer_set
00004b4e T ctimer_set_with_process
00004bd4 T ctimer_stop
00001264 b debouncetimer
00001204 d defaultroutermemb
00002326 b defaultroutermemb_memb_mem
0000253e b defaultroutermemb_memb_used
00001b4c b dis_timer
00004c2e T energest_flush
00004c2c T energest_init
00004dd2 T etimer_expired
00004dec T etimer_next_expiration_time
00004de0 T etimer_pending
0000113c D etimer_process
00004ca0 T etimer_request_poll
00004dc0 T etimer_reset
00004dae T etimer_set
00004e02 T etimer_stop
00008632 T get_probing_delay
000083de t handle_dao_ack_timer
000083f0 t handle_dio_timer
000084d4 t handle_dis_timer
000082be t handle_leaving_timer
0000849a t handle_periodic_timer
00008748 t handle_probing_timer
00008380 t handle_unicast_dio_timer
000055f2 T i2c_busy
00005c08 T memb_alloc
00005c46 T memb_free
00005bd2 T memb_init
00005c78 T memb_inmemb
00005ca2 T memb_numfree
00001128 d metadata_memb
000012fc b metadata_memb_memb_mem
0000246f b metadata_memb_memb_used
00001560 b mgt_timer
00005d68 T msp430_cpu_init
00001488 b neighbor_addr_mem_memb_mem
0000248c b neighbor_addr_mem_memb_used
00001118 d neighbor_memb
00001280 b neighbor_memb_memb_mem
00002465 b neighbor_memb_memb_used
00001b78 b next_rtimer
00001224 d nodememb
000023a4 b nodememb_memb_mem
00002540 b nodememb_memb_used
0000d2a0 r output_power
00001120 d packet_memb
000012cc b packet_memb_memb_mem
00002467 b packet_memb_memb_used
00006416 T packetbuf_addr
0000258c B packetbuf_addrs
000014e0 b packetbuf_aligned
000063f8 T packetbuf_attr
00006342 T packetbuf_attr_clear
000063c8 T packetbuf_attr_copyfrom
000063a6 T packetbuf_attr_copyto
0000259c B packetbuf_attrs
0000636a T packetbuf_clear
0000637c T packetbuf_copyfrom
000062c0 T packetbuf_copyto
000062a4 T packetbuf_datalen
000062b4 T packetbuf_dataptr
000024ad b packetbuf_hdr_len
00006306 T packetbuf_hdralloc
000062aa T packetbuf_hdrlen
0000629e T packetbuf_hdrptr
0000627e T packetbuf_hdrreduce
00006424 T packetbuf_holds_broadcast
00001b96 b packetbuf_payload_len
00001b8a b packetbuf_ptr
00006402 T packetbuf_set_addr
000063ec T packetbuf_set_attr
00006298 T packetbuf_set_datalen
000062fa T packetbuf_totlen
00001b62 b periodic_timer
0000256c B periodic_timer
00006570 T platform_idle
00004a96 t process_thread_ctimer_process
00004caa t process_thread_etimer_process
000068a6 T queuebuf_free
0000682a T queuebuf_init
00006846 T queuebuf_new_from_packetbuf
0000683c T queuebuf_numfree
000068d0 T queuebuf_to_packetbuf
00006894 T queuebuf_update_attr_from_packetbuf
000084fa T rpl_timers_dio_reset
000087d8 T rpl_timers_init
000085b4 T rpl_timers_notify_dao_ack
00008548 T rpl_timers_schedule_dao
00008580 T rpl_timers_schedule_dao_ack
000087ae T rpl_timers_schedule_leaving
0000845e T rpl_timers_schedule_periodic_dis
00008850 T rpl_timers_schedule_state_update
00008528 T rpl_timers_schedule_unicast_dio
000087f4 T rpl_timers_stop_dag_timers
00008792 T rpl_timers_unschedule_leaving
00008840 T rpl_timers_unschedule_state_update
00008ac6 T rtimer_arch_init
00008ad4 T rtimer_arch_now
00008ae2 T rtimer_arch_schedule
00008ae8 T rtimer_init
00008aee T rtimer_run_next
0000124e d send_on_cca
0000a424 T stimer_expired
0000a408 T stimer_set
00001254 b suppressTimer1
0000125c b suppressTimer2
0000a6d4 T timer_expired
0000a6fe T timer_reset
0000a6b8 T timer_set
0000378c T timera0
00003624 T timera1
0000133e b timerlist
00002844 B uip_ds6_timer_periodic
000026d0 B uip_ds6_timer_ra
0000b9f0 T uip_sr_free_all
00003cb4 t wait_for_status
00003c92 t wait_for_transmission
0000c4ea t wait_ready
0000c4d8 T watchdog_init
000037d8 T watchdog_interrupt
0000c4b0 T watchdog_periodic
0000c49c T watchdog_start
0000c4c2 T watchdog_stop

[CPU-intensive / large functions]
00001394 000000e0 b received_seqnos
00005744 000000e2 T link_stats_packet_sent
0000cf9a 000000e8 T memcpy
0000d082 000000e8 T memmove
00007238 000000e8 T rpl_ext_header_srh_update
00004436 000000ea T cc2420_init
00005826 000000f6 T link_stats_input_callback
000025b4 0000010c B curr_instance
0000a4ae 0000010c T tcpip_ipv6_output
000026d8 00000110 B uip_ds6_if
0000c388 00000114 T uiplib_ipaddr_snprint
000041b8 0000011e t get_value
0000778a 00000128 t dao_input
0000b33e 00000136 T uip_icmp6_error_output
00006ca8 00000138 T rpl_dag_update_state
00004854 00000148 T csma_output_packet
000042ec 0000014a t set_value
000051f6 0000015c T frame802154_parse
0000b0a4 00000164 T uip_ds6_init
00001b98 00000168 b frag_info
00008eaa 0000016a t add_fragment
0000c65a 00000176 t print_field
00006de0 0000019e T rpl_process_dio
000046a4 000001b0 t transmit_from_queue
00007ba6 00000218 T rpl_icmp6_dio_output
0000313e 00000232 T main
0000746e 00000266 T rpl_ext_header_update
000078b2 00000274 t dio_input
0000b508 00000292 t ns_input
0000bd1c 000004b6 T uip_process
0000159c 00000550 b buframmem_memb_mem
00001d00 00000558 b frag_buf
0000c7d0 00000742 T vuprintf
000090aa 0000075a t output
00009804 00000918 t input

[Power / performance related strings]
Ctimer process
Event timer

[Busy-wait / delay / loop related disassembly samples]
00003100 <__watchdog_support>:
    3100:	55 42 20 01 	mov.b	&0x0120,r5	
    3104:	35 d0 08 5a 	bis	#23048,	r5	;#0x5a08
    3108:	82 45 38 29 	mov	r5,	&0x2938	

0000310c <__init_stack>:
    310c:	31 40 00 31 	mov	#12544,	r1	;#0x3100

00003110 <__do_copy_data>:
    3110:	3f 40 50 01 	mov	#336,	r15	;#0x0150
    3114:	0f 93       	tst	r15		
    3116:	08 24       	jz	$+18     	;abs 0x3128
    3118:	92 42 38 29 	mov	&0x2938,&0x0120	
    311c:	20 01 
    311e:	2f 83       	decd	r15		
    3120:	9f 4f 1c d7 	mov	-10468(r15),4352(r15);0xd71c(r15), 0x1100(r15)
    3124:	00 11 
    3126:	f8 23       	jnz	$-14     	;abs 0x3118

--
000035fe <cc2420_timerb1_interrupt>:
    35fe:	0f 14       	pushm.a	#1,	r15	
    3600:	1f 42 1e 01 	mov	&0x011e,r15	
    3604:	e2 b3 1c 00 	bit.b	#2,	&0x001c	;r3 As==10
    3608:	06 24       	jz	$+14     	;abs 0x3616
    360a:	d2 53 5a 25 	inc.b	&0x255a	
    360e:	92 42 94 01 	mov	&0x0194,&0x2554	
    3612:	54 25 
    3614:	05 3c       	jmp	$+12     	;abs 0x3620
    3616:	c2 43 5a 25 	mov.b	#0,	&0x255a	;r3 As==00
    361a:	92 42 94 01 	mov	&0x0194,&0x255c	
    361e:	5c 25 
    3620:	0f 16       	popm.a	#1,	r15	
    3622:	00 13       	reti			

00003624 <timera1>:
    3624:	3f 14       	pushm.a	#4,	r15	
    3626:	b0 13 9c c4 	calla	#0x0c49c	
    362a:	1f 42 2e 01 	mov	&0x012e,r15	
    362e:	2f 93       	cmp	#2,	r15	;r3 As==10
    3630:	5d 20       	jnz	$+188    	;abs 0x36ec
    3632:	b2 b0 20 00 	bit	#32,	&0x0160	;#0x0020
    3636:	60 01 
    3638:	0b 24       	jz	$+24     	;abs 0x3650
    363a:	1e 42 74 01 	mov	&0x0174,r14	
    363e:	1f 42 70 01 	mov	&0x0170,r15	
    3642:	1d 42 70 01 	mov	&0x0170,r13	
    3646:	0f 9d       	cmp	r13,	r15	
    3648:	fa 23       	jnz	$-10     	;abs 0x363e
    364a:	0e 8f       	sub	r15,	r14	
    364c:	1e 93       	cmp	#1,	r14	;r3 As==01
    364e:	f1 27       	jz	$-28     	;abs 0x3632
    3650:	1f 42 70 01 	mov	&0x0170,r15	
    3654:	1e 42 70 01 	mov	&0x0170,r14	
--
0000378c <timera0>:
    378c:	3f 14       	pushm.a	#4,	r15	
    378e:	b0 13 9c c4 	calla	#0x0c49c	
    3792:	b0 13 ee 8a 	calla	#0x08aee	
    3796:	b0 13 72 67 	calla	#0x06772	
    379a:	0f 93       	tst	r15		
    379c:	04 24       	jz	$+10     	;abs 0x37a6
    379e:	03 38       	jl	$+8      	;abs 0x37a6
    37a0:	b1 c0 f0 00 	bic	#240,	16(r1)	;#0x00f0, 0x0010(r1)
    37a4:	10 00 
    37a6:	b0 13 c2 c4 	calla	#0x0c4c2	
    37aa:	3c 16       	popm.a	#4,	r15	
    37ac:	00 13       	reti			

000037ae <uart0_rx_interrupt>:
    37ae:	3f 14       	pushm.a	#4,	r15	
    37b0:	e2 b2 65 00 	bit.b	#4,	&0x0065	;r2 As==10
    37b4:	03 24       	jz	$+8      	;abs 0x37bc
    37b6:	5f 42 66 00 	mov.b	&0x0066,r15	
--
000037d8 <watchdog_interrupt>:
    37d8:	82 43 20 01 	mov	#0,	&0x0120	;r3 As==00
    37dc:	00 13       	reti			

000037de <status>:
    37de:	3f 50 7f ff 	add	#-129,	r15	;#0xff7f
    37e2:	2f 93       	cmp	#2,	r15	;r3 As==10
    37e4:	03 2c       	jc	$+8      	;abs 0x37ec
    37e6:	5f 42 5e 24 	mov.b	&0x245e,r15	
    37ea:	10 01       	reta			
    37ec:	0f 43       	clr	r15		
    37ee:	10 01       	reta			

000037f0 <accm_write_reg>:
    37f0:	21 83       	decd	r1		
    37f2:	c1 4f 00 00 	mov.b	r15,	0(r1)	;0x0000(r1)
    37f6:	c1 4e 01 00 	mov.b	r14,	1(r1)	;0x0001(r1)
    37fa:	7f 40 53 00 	mov.b	#83,	r15	;#0x0053
    37fe:	b0 13 84 55 	calla	#0x05584	
--
00003c92 <wait_for_transmission>:
    3c92:	0b 14       	pushm.a	#1,	r11	
    3c94:	b0 13 d4 8a 	calla	#0x08ad4	
    3c98:	3b 40 34 f3 	mov	#-3276,	r11	;#0xf334
    3c9c:	0b 8f       	sub	r15,	r11	
    3c9e:	b0 13 46 3c 	calla	#0x03c46	
    3ca2:	7f f2       	and.b	#8,	r15	;r2 As==11
    3ca4:	05 24       	jz	$+12     	;abs 0x3cb0
    3ca6:	b0 13 d4 8a 	calla	#0x08ad4	
    3caa:	0f 5b       	add	r11,	r15	
    3cac:	0f 93       	tst	r15		
    3cae:	f7 3b       	jl	$-16     	;abs 0x3c9e
    3cb0:	0b 16       	popm.a	#1,	r11	
    3cb2:	10 01       	reta			

00003cb4 <wait_for_status>:
    3cb4:	1b 14       	pushm.a	#2,	r11	
    3cb6:	4a 4f       	mov.b	r15,	r10	
    3cb8:	b0 13 d4 8a 	calla	#0x08ad4	
    3cbc:	3b 40 34 f3 	mov	#-3276,	r11	;#0xf334
    3cc0:	0b 8f       	sub	r15,	r11	
    3cc2:	b0 13 46 3c 	calla	#0x03c46	
    3cc6:	4f ba       	bit.b	r10,	r15	
    3cc8:	05 20       	jnz	$+12     	;abs 0x3cd4
    3cca:	b0 13 d4 8a 	calla	#0x08ad4	
    3cce:	0f 5b       	add	r11,	r15	
    3cd0:	0f 93       	tst	r15		
    3cd2:	f7 3b       	jl	$-16     	;abs 0x3cc2
    3cd4:	1a 16       	popm.a	#2,	r11	
    3cd6:	10 01       	reta			

00003cd8 <getrxdata>:
    3cd8:	0b 14       	pushm.a	#1,	r11	
    3cda:	d2 c3 19 00 	bic.b	#1,	&0x0019	;r3 As==01
--
00004126 <cc2420_set_txpower>:
    4126:	0b 14       	pushm.a	#1,	r11	
    4128:	4b 4f       	mov.b	r15,	r11	
    412a:	d2 53 60 24 	inc.b	&0x2460	
    412e:	3f 40 15 00 	mov	#21,	r15	;#0x0015
    4132:	b0 13 12 3b 	calla	#0x03b12	
    4136:	3f f0 e0 ff 	and	#-32,	r15	;#0xffe0
    413a:	0e 4b       	mov	r11,	r14	
    413c:	3e f0 1f 00 	and	#31,	r14	;#0x001f
    4140:	0e df       	bis	r15,	r14	
    4142:	3f 40 15 00 	mov	#21,	r15	;#0x0015
    4146:	b0 13 58 3b 	calla	#0x03b58	
    414a:	b0 13 66 3d 	calla	#0x03d66	
    414e:	0b 16       	popm.a	#1,	r11	
    4150:	10 01       	reta			

00004152 <cc2420_get_txpower>:
    4152:	0b 14       	pushm.a	#1,	r11	
    4154:	d2 53 60 24 	inc.b	&0x2460	
    4158:	3f 40 15 00 	mov	#21,	r15	;#0x0015
    415c:	b0 13 12 3b 	calla	#0x03b12	
    4160:	0b 4f       	mov	r15,	r11	
    4162:	b0 13 66 3d 	calla	#0x03d66	
    4166:	0f 4b       	mov	r11,	r15	
    4168:	3f f0 1f 00 	and	#31,	r15	;#0x001f
    416c:	0b 16       	popm.a	#1,	r11	
    416e:	10 01       	reta			

00004170 <cc2420_rssi>:
    4170:	1b 14       	pushm.a	#2,	r11	
    4172:	c2 93 60 24 	tst.b	&0x2460	
    4176:	1c 20       	jnz	$+58     	;abs 0x41b0
    4178:	d2 43 60 24 	mov.b	#1,	&0x2460	;r3 As==01
    417c:	c2 93 63 24 	tst.b	&0x2463	
    4180:	04 20       	jnz	$+10     	;abs 0x418a
--
00004562 <clock_delay>:
    4562:	02 3c       	jmp	$+6      	;abs 0x4568
    4564:	03 43       	nop			
    4566:	3f 53       	add	#-1,	r15	;r3 As==11
    4568:	0f 93       	tst	r15		
    456a:	fc 23       	jnz	$-6      	;abs 0x4564
    456c:	10 01       	reta			

0000456e <clock_wait>:
    456e:	3b 14       	pushm.a	#4,	r11	
    4570:	08 4e       	mov	r14,	r8	
    4572:	09 4f       	mov	r15,	r9	
    4574:	b0 13 20 45 	calla	#0x04520	
    4578:	0a 4e       	mov	r14,	r10	

----------------------------------------
FILE: extra-firmwares/base-demo.simplelink
TYPE: extra-firmwares/base-demo.simplelink: ELF 32-bit LSB executable, ARM, EABI5 version 1 (SYSV), statically linked, with debug_info, not stripped

[Memory size / flash-RAM efficiency]
   text	   data	    bss	    dec	    hex	filename
  71393	   1408	  12968	  85769	  14f09	extra-firmwares/base-demo.simplelink

[Power / performance related symbols]
000003e4 T CC1352P1_LAUNCHXL_wakeUpExtFlash
00008ad0 T ClockP_Params_init
00008c74 T ClockP_add
00008d34 T ClockP_construct
20003f70 b ClockP_defaultParams
00008c94 T ClockP_destruct
00008a1c T ClockP_doTick
00008dac T ClockP_getCpuFreq
00008dbc T ClockP_getSystemTickPeriod
00008af0 T ClockP_getTicks
00008b14 T ClockP_getTicksUntilInterrupt
00008d94 T ClockP_getTimeout
20005171 b ClockP_initialized
00008da8 T ClockP_isActive
20002180 b ClockP_module
00008d90 T ClockP_setTimeout
00008cb0 T ClockP_start
00008ae0 T ClockP_startup
00008a28 t ClockP_startup.part.1
00008d88 T ClockP_stop
20001e48 D ClockP_tickPeriod
00008b44 T ClockP_walkQueueDynamic
00008bb4 T ClockP_workFuncDynamic
00000100 A HEAPSIZE
00010cce T NOROM_CPUcpsid
00010cd6 T NOROM_CPUcpsie
00010cde T NOROM_CPUdelay
0000fad4 T NOROM_RFCSynthPowerDown
0000fcdc T NOROM_SysCtrlIdle
0000fd14 T NOROM_SysCtrlStandby
0000d7a8 T PowerCC26X2_RCOSC_clockFunc
0000d4cc T PowerCC26X2_auxISR
0000d794 T PowerCC26X2_calibrate
00010d8c R PowerCC26X2_config
0000d458 T PowerCC26X2_initiateCalibration
20001e5c D PowerCC26X2_module
20004080 b PowerCC26X2_swiKey
0000d1f4 T PowerCC26XX_calibrate
0000d20c T PowerCC26XX_isStableXOSC_HF
00009274 T PowerCC26XX_schedulerDisable
00009284 T PowerCC26XX_schedulerRestore
000091a4 T PowerCC26XX_standbyPolicy
0000d254 T PowerCC26XX_switchXOSC_HF
0000cb1c T Power_disablePolicy
0000cb30 T Power_enablePolicy
0000cb40 T Power_getConstraintMask
0000cb4c T Power_getDependencyCount
0000cb5c T Power_getTransitionLatency
0000cb78 T Power_idleFunc
0000ce3c T Power_init
0000cb90 T Power_registerNotify
0000cbb4 T Power_releaseConstraint
0000cce0 T Power_releaseDependency
0000cd88 T Power_setConstraint
0000cf80 T Power_setDependency
0000d030 T Power_sleep
0000d1d4 T Power_unregisterNotify
0000ba2c T RF_Params_init
200040cc b RF_Sch
0000b71c T RF_ScheduleCmdParams_init
0000bb3c T RF_TxPowerTable_findPowerLevel
0000bba4 T RF_TxPowerTable_findValue
0000998c t RF_abortCmd
00009b20 t RF_applyRfCorePatch
00009690 t RF_attachOverrides
0000ae28 t RF_calculateDispatchTime
0000b9f4 T RF_cancelCmd
0000a484 t RF_clkInactivityCallback
200040f4 b RF_clkInactivityObj
0000b634 t RF_clkPowerUp
20004118 b RF_clkPowerUpObj
00009820 t RF_clkReqAccess
0000aa30 t RF_cmdDispatchTime
20002220 b RF_cmdPool
2000413c b RF_cmdQ
0000976c t RF_cmdStoreEvents
2000415c b RF_core
2000416c b RF_currClient
00009cbc t RF_decodeOverridePointers
0000968c t RF_defaultCallback
00009688 T RF_defaultConflictPolicy
00011050 r RF_defaultParams
0000a278 T RF_defaultSubmitPolicy
000096fc t RF_detachOverrides
000098e4 t RF_discardPendCmd
0000aae4 t RF_dispatchNextCmd
0000af08 t RF_dispatchNextEvent
20004170 b RF_errTolValInUs
0000ba10 T RF_flushCmd
0000b0b0 t RF_fsmActiveState
0000af7c t RF_fsmPowerUpState
00009ff8 t RF_fsmSetupState
00009c28 t RF_fsmXOSCState
0000a9a4 T RF_getCurrentTime
0000ba50 T RF_getRssi
0000baa0 T RF_getTxPower
0000ac8c t RF_hwiCpe0Active
00009c98 t RF_hwiCpe0ChangePhy
20004174 b RF_hwiCpe0Obj
0000ada0 t RF_hwiCpe0PowerFsm
00009b94 t RF_hwiHw
20004190 b RF_hwiHwObj
00009ed0 t RF_initRadioSetup
000097a4 t RF_issueRadioFreeCb
20005175 b RF_numClients
0000a75c T RF_open
0000b924 T RF_pendCmd
0000a1ac t RF_pendCmd.part.17
0000b658 T RF_postCmd
20005176 b RF_powerConstraint
0000a450 T RF_powerConstraintRelease
0000a384 T RF_powerConstraintSet
0000a4a0 t RF_radioOpDoneCb
0000a5f8 t RF_ratFreeChannel
20002420 b RF_ratModule
0000a3a0 t RF_ratRestartChannels
200041ac b RF_ratSyncCmd
200041c0 b RF_rtcBeginSequence
200041c4 b RF_rtcTimestampA
0000b934 T RF_runCmd
0000ba48 T RF_runDirectCmd
0000a328 t RF_runDirectImmediateCmd
0000b72c T RF_scheduleCmd
000098b0 t RF_searchAndReplacePAOverride
0000ba74 T RF_setTxPower
00009c04 t RF_swiFsm
200041c8 b RF_swiFsmObj
0000a690 t RF_swiHw
200041fc b RF_swiHwObj
00009828 t RF_syncCb
00009e0c t RF_updatePaConfiguration
00009604 t RF_verifyGap
0000a154 t RF_wakeupNotification
20004230 b RF_wakeupNotifyObj
0000b964 T RF_yield
00008de8 T TimerP_Params_init
00008ff0 T TimerP_construct
00008ef0 t TimerP_construct.part.0
20001e4c d TimerP_defaultParams
00008dc8 T TimerP_dynamicStub
0000900c T TimerP_getCurrentTick
00009000 T TimerP_getFreq
00008df8 T TimerP_getMaxTicks
20003f88 b TimerP_handle
20003f8c b TimerP_hwiStruct
20005172 b TimerP_initialized
00008e1c T TimerP_setNextTick
00008e74 T TimerP_start
0000fb7c t TrimAfterColdResetWakeupFromShutDown
0000f604 T WatchdogCC26XX_clear
0000f610 T WatchdogCC26XX_close
0000f614 T WatchdogCC26XX_control
0000f654 T WatchdogCC26XX_convertMsToTicks
000111dc R WatchdogCC26XX_fxnTable
0000f61c T WatchdogCC26XX_init
0000f680 T WatchdogCC26XX_open
0000f624 T WatchdogCC26XX_setReload
0000f5e4 T Watchdog_Params_init
00010dd0 R Watchdog_config
0000f5fc T Watchdog_convertMsToTicks
00011241 R Watchdog_count
000111d0 R Watchdog_defaultParams
0000f554 T Watchdog_init
0000f5a0 T Watchdog_open
0000f5f4 T Watchdog_setReload
20005300 B __heap_end__
20005200 B __heap_start__
20005300 B _eheap
20005200 B _heap
0000140c t add_timer
20005177 b bDisableFlashInIdleConstraint
200031bc b bufmem_memb_mem
20004add b bufmem_memb_used
2000437a b buframmem_memb_mem
20004ae5 b buframmem_memb_used
0000fefc t check_etimer.part.0
000009a4 T clock_arch_enter_idle
000008f0 T clock_arch_exit_idle
000008fc T clock_arch_standby_policy
0000091c T clock_init

[CPU-intensive / large functions]
200037d8 00000180 b nodememb_memb_mem
0000f3c4 00000190 T UARTCC26XX_read
0000998c 00000194 t RF_abortCmd
00000ce0 000001a0 t transmit_from_queue
0000d030 000001a4 T Power_sleep
0000aae4 000001a8 t RF_dispatchNextCmd
0000d29c 000001bc t runCalibrateFsm
00003e60 000001d0 T rpl_icmp6_dio_output
0000f020 000001ec T UARTCC26XX_hwiIntFxn
0000b72c 000001f8 T RF_scheduleCmd
00000a24 000001f8 T main
0000c598 00000200 T PIN_init
20002220 00000200 b RF_cmdPool
0000ec90 00000224 T UARTCC26XX_open
00003818 00000234 T rpl_ext_header_update
0000dda4 00000244 t SPICC26X2DMA_hwiFxn
0000a75c 00000248 T RF_open
00003bb4 00000248 t dio_input
20002964 00000260 b rx_data_queue
00007bf4 0000027c t ns_input
00000110 000002be T __udivmoddi4
0000d4cc 000002c8 T PowerCC26X2_auxISR
0000e2c0 000002c8 T SPICC26X2DMA_open
0000dfe8 000002d8 T SPICC26X2DMA_transfer
00008214 00000404 T uip_process
2000395c 00000500 B uip_aligned_buf
20004bfe 0000054c b frag_buf
2000437a 00000550 b buframmem_memb_mem
0000b0b0 00000584 t RF_fsmActiveState
00005628 000006fc t output
00006830 00000770 T format_str_v
00005e70 000007d4 t input
0000ed00 1fff6600 B __stack_size
20014000 dffec13a N _stack_origin
20005300 dfffae3a N _stack

[Power / performance related strings]
Ctimer process
Event timer
ClockP.h
ClockP.h
Power.h
ClockPTimer_nortos.c
ClockP.h
TimerP.h
TimerPCC26XX_nortos.c
TimerP.h
/db/vtree/library/trees/mcpi/mcpi-4.10.02.00/exports/coresdk_cc13xx_cc26xx_4_10_02_00/source/ti/drivers/power
PowerCC26X2_nortos.c
Power.h
ClockP.h
PowerCC26X2.h
/db/vtree/library/trees/mcpi/mcpi-4.10.02.00/exports/coresdk_cc13xx_cc26xx_4_10_02_00/source/ti/drivers/power
ClockP.h
Power.h
PowerCC26XX.h
/db/vtree/library/trees/mcpi/mcpi-4.10.02.00/exports/coresdk_cc13xx_cc26xx_4_10_02_00/source/ti/drivers/power
ClockP.h
PowerCC26XX.h
Power.h
Power.h
ClockP.h
ClockP.h
Power.h
power
/db/vtree/library/trees/mcpi/mcpi-4.10.02.00/exports/coresdk_cc13xx_cc26xx_4_10_02_00/source/ti/drivers/power
PowerCC26X2.c
ClockP.h
Power.h
PowerCC26XX.h
PowerCC26X2.h
power
/db/vtree/library/trees/mcpi/mcpi-4.10.02.00/exports/coresdk_cc13xx_cc26xx_4_10_02_00/source/ti/drivers/power
PowerCC26X2_calibrateRCOSC.c
Power.h
ClockP.h
PowerCC26X2.h
/db/vtree/library/trees/mcpi/mcpi-4.10.02.00/exports/coresdk_cc13xx_cc26xx_4_10_02_00/source/ti/drivers/power
Power.h
ClockP.h
PowerCC26XX.h
ClockP.h
Power.h
Power.h
ClockP.h
Watchdog.c
Watchdog.h
watchdog
/db/vtree/library/trees/mcpi/mcpi-4.10.02.00/exports/coresdk_cc13xx_cc26xx_4_10_02_00/source/ti/drivers/watchdog
WatchdogCC26XX.c
watchdog.h
ClockP.h
Watchdog.h
WatchdogCC26XX.h
ClockP_tickPeriod
clockTickPeriod
idleCallback
ClockP_Struct
ClockP_startup
clockStruct
ClockP_Handle
ClockP_start
Power_disablePolicy
ClockP_isActive
Power_enablePolicy
ClockP_add
malloc
ClockP_destruct
ClockP_FreqHz
ClockP_staticObjectSize
ClockP_workFuncDynamic
timerFreq
ClockP_create
TimerP_getCurrentTick
TimerP_StartMode_USER
TimerP_getCount64
usecsPerTimerTick
TimerP_Params_init
ClockP_usleep
ClockP_defaultParams
ClockP_Params_init
timerParams
_ClockP_Obj
TimerP_construct
_TimerP_FreqHz
ClockP_stop
ClockP_getTimeout
TimerP_getFreq
_TimerP_Struct
TimerP_StartMode_AUTO
ClockP_getSystemTicks
ClockP_getCpuFreq
TimerP_getMaxTicks
timer
TimerP_setNextTick
dpl/ClockPTimer_nortos.c
TimerP_StartMode
ClockP_Params
TimerP_Handle
ClockP_delete
ClockP_construct
ClockP_walkQueueDynamic
ClockP_sleep
clockQ
timerStruct
ClockP_setTimeout
ClockP_initialized
ClockP_Fxn
ClockP_module
ticksToSleep
_ClockP_Module_State
TimerP_Fxn
ClockP_getSystemTickPeriod
ClockP_doTick
ClockP_scheduleNextTick
ClockP_getTicks
ClockP_getTicksUntilInterrupt

[Busy-wait / delay / loop related disassembly samples]
     408:	f010 fc69 	bl	10cde <NOROM_CPUdelay>
     40c:	2201      	movs	r2, #1
     40e:	2114      	movs	r1, #20
     410:	4620      	mov	r0, r4
     412:	f00c fa35 	bl	c880 <PIN_setOutputValue>
     416:	f44f 700c 	mov.w	r0, #560	@ 0x230
     41a:	f010 fc60 	bl	10cde <NOROM_CPUdelay>
     41e:	4620      	mov	r0, r4
     420:	f00c f9f0 	bl	c804 <PIN_close>
     424:	b006      	add	sp, #24
     426:	bd10      	pop	{r4, pc}
     428:	00010d14 	.word	0x00010d14

0000042c <CC1352P1_LAUNCHXL_shutDownExtFlash>:
     42c:	b530      	push	{r4, r5, lr}
     42e:	4d0b      	ldr	r5, [pc, #44]	@ (45c <CC1352P1_LAUNCHXL_shutDownExtFlash+0x30>)
     430:	b089      	sub	sp, #36	@ 0x24
     432:	f7ff ffd7 	bl	3e4 <CC1352P1_LAUNCHXL_wakeUpExtFlash>
     436:	cd0f      	ldmia	r5!, {r0, r1, r2, r3}
     438:	ac03      	add	r4, sp, #12
     43a:	c40f      	stmia	r4!, {r0, r1, r2, r3}
     43c:	682b      	ldr	r3, [r5, #0]
     43e:	6023      	str	r3, [r4, #0]
     440:	a903      	add	r1, sp, #12
     442:	4668      	mov	r0, sp
--
     4a8:	f00b fafa 	bl	baa0 <RF_getTxPower>
     4ac:	8832      	ldrh	r2, [r6, #0]
     4ae:	f5b2 5fc1 	cmp.w	r2, #6176	@ 0x1820
     4b2:	ea4f 73d0 	mov.w	r3, r0, lsr #31
     4b6:	d007      	beq.n	4c8 <rfDriverCallback+0x40>
     4b8:	f643 0107 	movw	r1, #14343	@ 0x3807
     4bc:	428a      	cmp	r2, r1
     4be:	d018      	beq.n	4f2 <rfDriverCallback+0x6a>
     4c0:	f640 0102 	movw	r1, #2050	@ 0x802
     4c4:	428a      	cmp	r2, r1
     4c6:	d128      	bne.n	51a <rfDriverCallback+0x92>
     4c8:	7bf2      	ldrb	r2, [r6, #15]
     4ca:	0652      	lsls	r2, r2, #25
     4cc:	d025      	beq.n	51a <rfDriverCallback+0x92>
     4ce:	6820      	ldr	r0, [r4, #0]
     4d0:	2200      	movs	r2, #0
     4d2:	211c      	movs	r1, #28
     4d4:	b183      	cbz	r3, 4f8 <rfDriverCallback+0x70>
     4d6:	f00c fad7 	bl	ca88 <PINCC26XX_setMux>
--
     5e4:	f00f fcc9 	bl	ff7a <etimer_set>
     5e8:	e00e      	b.n	608 <MIN_STACKSIZE+0x8>
     5ea:	4822      	ldr	r0, [pc, #136]	@ (674 <MIN_STACKSIZE+0x74>)
     5ec:	f010 f808 	bl	10600 <puts>
     5f0:	4b21      	ldr	r3, [pc, #132]	@ (678 <MIN_STACKSIZE+0x78>)
     5f2:	2101      	movs	r1, #1
     5f4:	689b      	ldr	r3, [r3, #8]
     5f6:	2081      	movs	r0, #129	@ 0x81
     5f8:	4798      	blx	r3
     5fa:	481d      	ldr	r0, [pc, #116]	@ (670 <MIN_STACKSIZE+0x70>)
     5fc:	f44f 6120 	mov.w	r1, #2560	@ 0xa00
     600:	f00f fcbb 	bl	ff7a <etimer_set>
     604:	f7ff ffba 	bl	57c <get_sync_sensor_readings>
     608:	f240 136f 	movw	r3, #367	@ 0x16f
     60c:	802b      	strh	r3, [r5, #0]
     60e:	2001      	movs	r0, #1
     610:	bd38      	pop	{r3, r4, r5, pc}
     612:	4b1a      	ldr	r3, [pc, #104]	@ (67c <MIN_STACKSIZE+0x7c>)
     614:	781b      	ldrb	r3, [r3, #0]
     616:	428b      	cmp	r3, r1
     618:	d106      	bne.n	628 <MIN_STACKSIZE+0x28>
     61a:	f894 204a 	ldrb.w	r2, [r4, #74]	@ 0x4a
     61e:	6c21      	ldr	r1, [r4, #64]	@ 0x40
     620:	4817      	ldr	r0, [pc, #92]	@ (680 <MIN_STACKSIZE+0x80>)
     622:	f001 fe8f 	bl	2344 <printf>
     626:	e7ef      	b.n	608 <MIN_STACKSIZE+0x8>
     628:	4b16      	ldr	r3, [pc, #88]	@ (684 <MIN_STACKSIZE+0x84>)
     62a:	781b      	ldrb	r3, [r3, #0]
     62c:	428b      	cmp	r3, r1
     62e:	d104      	bne.n	63a <MIN_STACKSIZE+0x3a>
--
     660:	f010 fae8 	bl	10c34 <watchdog_reboot>
     664:	e7d0      	b.n	608 <MIN_STACKSIZE+0x8>
     666:	2300      	movs	r3, #0
     668:	8003      	strh	r3, [r0, #0]
     66a:	2003      	movs	r0, #3
     66c:	e7d0      	b.n	610 <MIN_STACKSIZE+0x10>
     66e:	bf00      	nop
     670:	200027e4 	.word	0x200027e4
     674:	0001128d 	.word	0x0001128d
     678:	00010e60 	.word	0x00010e60
     67c:	20004a90 	.word	0x20004a90
     680:	000112a5 	.word	0x000112a5
     684:	20004a91 	.word	0x20004a91
     688:	000112cd 	.word	0x000112cd
     68c:	20004a92 	.word	0x20004a92
     690:	000112dd 	.word	0x000112dd

00000694 <configure>:
     694:	2880      	cmp	r0, #128	@ 0x80
--
     758:	f000 fd5a 	bl	1210 <ctimer_expired>
     75c:	2800      	cmp	r0, #0
     75e:	d0ed      	beq.n	73c <process_thread_button_hal_process+0x34>
     760:	683b      	ldr	r3, [r7, #0]
     762:	9300      	str	r3, [sp, #0]
     764:	f855 3c04 	ldr.w	r3, [r5, #-4]
     768:	4642      	mov	r2, r8
     76a:	2102      	movs	r1, #2
     76c:	4618      	mov	r0, r3
     76e:	f000 fcfb 	bl	1168 <ctimer_set_with_process>
     772:	e7e3      	b.n	73c <process_thread_button_hal_process+0x34>
     774:	2300      	movs	r3, #0
     776:	8003      	strh	r3, [r0, #0]
     778:	2003      	movs	r0, #3
     77a:	b002      	add	sp, #8
     77c:	e8bd 81f0 	ldmia.w	sp!, {r4, r5, r6, r7, r8, pc}
     780:	20002804 	.word	0x20002804
     784:	20001b40 	.word	0x20001b40
     788:	200030ac 	.word	0x200030ac
     78c:	000007e9 	.word	0x000007e9

00000790 <press_release_handler>:
     790:	4a03      	ldr	r2, [pc, #12]	@ (7a0 <press_release_handler+0x10>)
     792:	6813      	ldr	r3, [r2, #0]
     794:	4303      	orrs	r3, r0
     796:	4803      	ldr	r0, [pc, #12]	@ (7a4 <press_release_handler+0x14>)
     798:	6013      	str	r3, [r2, #0]
     79a:	f001 bee7 	b.w	256c <process_poll>
--
     7c4:	f000 fcd0 	bl	1168 <ctimer_set_with_process>
     7c8:	4b06      	ldr	r3, [pc, #24]	@ (7e4 <duration_exceeded_callback+0x3c>)
     7ca:	7819      	ldrb	r1, [r3, #0]
     7cc:	4622      	mov	r2, r4
     7ce:	2000      	movs	r0, #0
     7d0:	b002      	add	sp, #8
     7d2:	e8bd 4010 	ldmia.w	sp!, {r4, lr}
     7d6:	f001 be89 	b.w	24ec <process_post>
     7da:	bf00      	nop
     7dc:	000007a9 	.word	0x000007a9
     7e0:	200030ac 	.word	0x200030ac
     7e4:	20004a90 	.word	0x20004a90

000007e8 <debounce_handler>:
     7e8:	b573      	push	{r0, r1, r4, r5, r6, lr}
     7ea:	4604      	mov	r4, r0
     7ec:	f000 fd10 	bl	1210 <ctimer_expired>
     7f0:	b340      	cbz	r0, 844 <debounce_handler+0x5c>
     7f2:	f104 0620 	add.w	r6, r4, #32
     7f6:	4630      	mov	r0, r6
     7f8:	f000 fd0a 	bl	1210 <ctimer_expired>
     7fc:	4605      	mov	r5, r0
     7fe:	4620      	mov	r0, r4
     800:	f00f fb6a 	bl	fed8 <button_hal_get_state>
     804:	2801      	cmp	r0, #1
     806:	d115      	bne.n	834 <debounce_handler+0x4c>
     808:	b1e5      	cbz	r5, 844 <debounce_handler+0x5c>
     80a:	4b0f      	ldr	r3, [pc, #60]	@ (848 <debounce_handler+0x60>)
     80c:	4a0f      	ldr	r2, [pc, #60]	@ (84c <debounce_handler+0x64>)
     80e:	681b      	ldr	r3, [r3, #0]
     810:	9300      	str	r3, [sp, #0]
     812:	2500      	movs	r5, #0
     814:	4623      	mov	r3, r4
     816:	f884 504a 	strb.w	r5, [r4, #74]	@ 0x4a
     81a:	217e      	movs	r1, #126	@ 0x7e
     81c:	4630      	mov	r0, r6
     81e:	f000 fca3 	bl	1168 <ctimer_set_with_process>
     822:	4b0b      	ldr	r3, [pc, #44]	@ (850 <debounce_handler+0x68>)
     824:	4622      	mov	r2, r4
     826:	7819      	ldrb	r1, [r3, #0]
     828:	4628      	mov	r0, r5
     82a:	b002      	add	sp, #8
     82c:	e8bd 4070 	ldmia.w	sp!, {r4, r5, r6, lr}
     830:	f001 be5c 	b.w	24ec <process_post>
     834:	b930      	cbnz	r0, 844 <debounce_handler+0x5c>
     836:	b92d      	cbnz	r5, 844 <debounce_handler+0x5c>
     838:	4630      	mov	r0, r6
     83a:	f000 fcd3 	bl	11e4 <ctimer_stop>
     83e:	4b05      	ldr	r3, [pc, #20]	@ (854 <debounce_handler+0x6c>)
     840:	4622      	mov	r2, r4
     842:	e7f0      	b.n	826 <debounce_handler+0x3e>
     844:	b002      	add	sp, #8
     846:	bd70      	pop	{r4, r5, r6, pc}
     848:	200030ac 	.word	0x200030ac

----------------------------------------
FILE: extra-firmwares/hardworker.z1
TYPE: extra-firmwares/hardworker.z1: ELF 32-bit LSB executable, TI msp430, version 1 (embedded), statically linked, with debug_info, not stripped

[Memory size / flash-RAM efficiency]
   text	   data	    bss	    dec	    hex	filename
  73564	    374	   5698	  79636	  13714	extra-firmwares/hardworker.z1

[Power / performance related symbols]
00003100 W __watchdog_support
00005262 t add_timer
00001b32 b bufmem_memb_mem
000024b7 b bufmem_memb_used
000015e2 b buframmem_memb_mem
000024af b buframmem_memb_used
00003f8e t cc2420_cca
000041ba T cc2420_get_txpower
000024dc B cc2420_last_rssi
000041d8 T cc2420_rssi
0000433e T cc2420_set_cca_threshold
0000418e T cc2420_set_txpower
0000363a T cc2420_timerb1_interrupt
000045ca T clock_delay
000045a2 T clock_init
000045fa T clock_seconds
00004588 T clock_time
000045d6 T clock_wait
000050fa T ctimer_expired
00005018 T ctimer_init
00001362 b ctimer_list_list
00001130 D ctimer_process
000050a6 T ctimer_reset
0000a3e0 t ctimer_set.constprop.3
0000502c T ctimer_set_with_process
000050d2 T ctimer_stop
0000128a b debouncetimer
0000122a d defaultroutermemb
0000233c b defaultroutermemb_memb_mem
000024c7 b defaultroutermemb_memb_used
00001b92 b dis_timer
000052d2 T etimer_next_expiration_time
000052c6 T etimer_pending
0000113c D etimer_process
00005194 T etimer_request_poll
000052b4 T etimer_reset
000052a2 T etimer_set
000052e8 T etimer_stop
0000a758 T get_probing_delay
0000a3ce t handle_dao_ack_timer
0000a470 t handle_dio_timer
0000a5dc t handle_dis_timer
0000a3b0 t handle_leaving_timer
0000a58a t handle_periodic_timer
0000a86a t handle_probing_timer
0000a3bc t handle_unicast_dio_timer
00005d8e T i2c_busy
0000136a b led_timer
00001382 b loop_timer
00006384 T memb_alloc
000063c2 T memb_free
0000634e T memb_init
000063f4 T memb_inmemb
0000641e T memb_numfree
00001128 d metadata_memb
00001322 b metadata_memb_memb_mem
00002485 b metadata_memb_memb_used
000015aa b mgt_timer
000064e4 T msp430_cpu_init
000014d2 b neighbor_addr_mem_memb_mem
000024a2 b neighbor_addr_mem_memb_used
00001118 d neighbor_memb
000012a6 b neighbor_memb_memb_mem
0000247b b neighbor_memb_memb_used
00001bbe b next_rtimer
0000124a d nodememb
000023ba b nodememb_memb_mem
000024c9 b nodememb_memb_used
0000c4f4 r output_power
00001120 d packet_memb
000012f2 b packet_memb_memb_mem
0000247d b packet_memb_memb_used
00006b46 T packetbuf_addr
00002516 B packetbuf_addrs
0000152a b packetbuf_aligned
00006b2a T packetbuf_attr
00006a76 T packetbuf_attr_clear
00006afc T packetbuf_attr_copyfrom
00006ada T packetbuf_attr_copyto
00002526 B packetbuf_attrs
00006a9e T packetbuf_clear
00006ab0 T packetbuf_copyfrom
000069f4 T packetbuf_copyto
000069d8 T packetbuf_datalen
000069e8 T packetbuf_dataptr
000024c3 b packetbuf_hdr_len
00006a3a T packetbuf_hdralloc
000069de T packetbuf_hdrlen
000069d2 T packetbuf_hdrptr
000069b2 T packetbuf_hdrreduce
00006b54 T packetbuf_holds_broadcast
00001bd8 b packetbuf_payload_len
00001bd0 b packetbuf_ptr
00006b34 T packetbuf_set_addr
00006b20 T packetbuf_set_attr
000069cc T packetbuf_set_datalen
00006a2e T packetbuf_totlen
00001ba8 b periodic_timer
000024f6 B periodic_timer
00006caa T platform_idle
00004f86 t process_thread_ctimer_process
0000519e t process_thread_etimer_process
000071cc T queuebuf_attr
00007170 T queuebuf_free
000070f4 T queuebuf_init
00007110 T queuebuf_new_from_packetbuf
00007106 T queuebuf_numfree
0000719a T queuebuf_to_packetbuf
0000715e T queuebuf_update_attr_from_packetbuf
0000a602 T rpl_timers_dio_reset
0000a992 T rpl_timers_init
0000a6de T rpl_timers_notify_dao_ack
0000a67a T rpl_timers_schedule_dao
0000a6ae T rpl_timers_schedule_dao_ack
0000a96c T rpl_timers_schedule_leaving
0000a552 T rpl_timers_schedule_periodic_dis
0000a9f6 T rpl_timers_schedule_state_update
0000a65e T rpl_timers_schedule_unicast_dio
0000a9aa T rpl_timers_stop_dag_timers
0000a950 T rpl_timers_unschedule_leaving
0000ad9e T rtimer_arch_init
0000adac T rtimer_arch_now
0000adba T rtimer_run_next
00001274 d send_on_cca
0000c3e4 T stimer_expired
0000127a b suppressTimer1
00001282 b suppressTimer2
0001185e T timer_expired
00011888 T timer_reset
00011842 T timer_set
000037c4 T timera0
00003660 T timera1
00001364 b timerlist
00001376 b udp_timer
000027c6 B uip_ds6_timer_periodic
00002660 B uip_ds6_timer_ra
0001346a T uip_sr_free_all
00003d1c t wait_for_status
00003cfa t wait_for_transmission
000144f8 t wait_ready
000144e6 T watchdog_init
0000380e T watchdog_interrupt
000144be T watchdog_periodic
000144aa T watchdog_start
000144d0 T watchdog_stop

[CPU-intensive / large functions]
00011bec 00000124 T uip_ds6_nbr_update_ll
00004354 0000014a t set_value
00005820 0000014e t parse
00012866 00000156 t echo_request_input
00001bdc 00000158 b frag_info
000056c4 0000015c T frame802154_parse
00013618 0000016e t ext_hdr_options_process
00014668 00000176 t print_field
000131e8 00000182 T uip_sr_update_node
00004dae 00000194 t input_packet
00007574 000001a4 t process_dio_init_dag
000084b6 000001a6 T rpl_ext_header_hbh_update
000129fc 000001c4 T uip_icmp6_error_output
00009ee4 000001da T rpl_neighbor_snprint
000082c4 000001f2 T rpl_ext_header_srh_update
000098e2 000001f2 T rpl_icmp6_dao_output
000079b4 00000208 T rpl_dag_update_state
00004ab2 0000025e T csma_output_packet
0000313e 0000026e T main
00012526 00000282 T uip_ds6_init
0000b11c 0000028e t add_fragment
0000964a 00000298 T rpl_icmp6_dio_output
000047d4 000002de t transmit_from_queue
00007bbc 00000344 T rpl_process_dio
00008c9e 0000036a t dao_input
0001131a 00000412 T tcpip_ipv6_output
00012cc8 0000041e t ns_input
0000871c 00000438 T rpl_ext_header_update
00009008 000004ac t dio_input
000015e2 00000550 b buframmem_memb_mem
00001d34 00000558 b frag_buf
000147de 00000742 T vuprintf
000138b0 00000930 T uip_process
0000b562 00000ddc t output
00010000 0000122e t input

[Power / performance related strings]
could not allocate queuebuf, dropping packet
could not allocate packet, dropping packet
could not allocate neighbor, dropping packet
Failed to retrieve max radio driver payload length
! radio does not support getting RADIO_CONST_MAX_PAYLOAD_LEN. Abort init.
CTimer
ctimer_set %p %lu
Ctimer process
Event timer
just joined, no parent yet, setting timer for leaving
poisoning and leaving after a delay
reset DIO timer (%s)
output: could not allocate queuebuf, dropping fragment
output: failed to calculate payload size - dropping packet
Not enough packetbuf space to compress header (%u bytes, %u left). Aborting.
output: fragmentation needed. fragments: %u, free queuebufs: %zu
output: dropping packet, not enough free bufs (needed: %zu, free: %zu)
input: failed to allocate new reassembly context
Not enough packetbuf space to decompress header (%u bytes, %u left). Aborting.
output: No next-hop found, dropping packet
, out of memory
Extension header option too long: dropping packet
RPL Option Error: Dropping Packet
dropping packet with length %d > %d
Dropping packet, src is mcast
Dropping packet, not for me and link local or multicast

[Busy-wait / delay / loop related disassembly samples]
00011842 <timer_set>:
   11842:	0b 14       	pushm.a	#1,	r11	
   11844:	0b 4f       	mov	r15,	r11	
   11846:	8f 4d 04 00 	mov	r13,	4(r15)	;0x0004(r15)
   1184a:	8f 4e 06 00 	mov	r14,	6(r15)	;0x0006(r15)
   1184e:	b0 13 88 45 	calla	#0x04588	
   11852:	8b 4e 00 00 	mov	r14,	0(r11)	;0x0000(r11)
   11856:	8b 4f 02 00 	mov	r15,	2(r11)	;0x0002(r11)
   1185a:	0b 16       	popm.a	#1,	r11	
   1185c:	10 01       	reta			

0001185e <timer_expired>:
   1185e:	0b 14       	pushm.a	#1,	r11	
   11860:	0b 4f       	mov	r15,	r11	
   11862:	b0 13 88 45 	calla	#0x04588	
   11866:	2e 8b       	sub	@r11,	r14	
   11868:	1f 7b 02 00 	subc	2(r11),	r15	;0x0002(r11)
   1186c:	1e 53       	inc	r14		
   1186e:	0f 63       	adc	r15		
   11870:	5d 43       	mov.b	#1,	r13	;r3 As==01
   11872:	8b 9f 06 00 	cmp	r15,	6(r11)	;0x0006(r11)
   11876:	05 28       	jnc	$+12     	;abs 0x11882
   11878:	03 20       	jnz	$+8      	;abs 0x11880
   1187a:	8b 9e 04 00 	cmp	r14,	4(r11)	;0x0004(r11)
   1187e:	01 28       	jnc	$+4      	;abs 0x11882
   11880:	4d 43       	clr.b	r13		
   11882:	4f 4d       	mov.b	r13,	r15	
   11884:	0b 16       	popm.a	#1,	r11	
   11886:	10 01       	reta			

00011888 <timer_reset>:
   11888:	0b 14       	pushm.a	#1,	r11	
   1188a:	0b 4f       	mov	r15,	r11	
   1188c:	b1 13 5e 18 	calla	#0x1185e	
   11890:	4f 93       	tst.b	r15		
   11892:	06 24       	jz	$+14     	;abs 0x118a0
   11894:	9b 5b 04 00 	add	4(r11),	0(r11)	;0x0004(r11), 0x0000(r11)
   11898:	00 00 
   1189a:	9b 6b 06 00 	addc	6(r11),	2(r11)	;0x0006(r11), 0x0002(r11)
   1189e:	02 00 
   118a0:	0b 16       	popm.a	#1,	r11	
   118a2:	10 01       	reta			

000118a4 <status>:
   118a4:	3f 50 7f ff 	add	#-129,	r15	;#0xff7f
   118a8:	2f 93       	cmp	#2,	r15	;r3 As==10
   118aa:	03 2c       	jc	$+8      	;abs 0x118b2
   118ac:	5f 42 c5 24 	mov.b	&0x24c5,r15	
   118b0:	10 01       	reta			
--
000144aa <watchdog_start>:
   144aa:	1f 42 6e 24 	mov	&0x246e,r15	
   144ae:	3f 53       	add	#-1,	r15	;r3 As==11
   144b0:	82 4f 6e 24 	mov	r15,	&0x246e	
   144b4:	03 20       	jnz	$+8      	;abs 0x144bc
   144b6:	b2 40 1c 5a 	mov	#23068,	&0x0120	;#0x5a1c
   144ba:	20 01 
   144bc:	10 01       	reta			

000144be <watchdog_periodic>:
   144be:	1f 42 20 01 	mov	&0x0120,r15	
   144c2:	3f f0 ff 00 	and	#255,	r15	;#0x00ff
   144c6:	3f d0 18 5a 	bis	#23064,	r15	;#0x5a18
   144ca:	82 4f 20 01 	mov	r15,	&0x0120	
   144ce:	10 01       	reta			

000144d0 <watchdog_stop>:
   144d0:	1f 42 6e 24 	mov	&0x246e,r15	
   144d4:	1f 53       	inc	r15		
   144d6:	82 4f 6e 24 	mov	r15,	&0x246e	
   144da:	1f 93       	cmp	#1,	r15	;r3 As==01
   144dc:	03 20       	jnz	$+8      	;abs 0x144e4
   144de:	b2 40 80 5a 	mov	#23168,	&0x0120	;#0x5a80
   144e2:	20 01 
   144e4:	10 01       	reta			

000144e6 <watchdog_init>:
   144e6:	82 43 6e 24 	mov	#0,	&0x246e	;r3 As==00
   144ea:	b1 13 d0 44 	calla	#0x144d0	
   144ee:	d2 c3 02 00 	bic.b	#1,	&0x0002	;r3 As==01
   144f2:	d2 d3 00 00 	bis.b	#1,	&0x0000	;r3 As==01
   144f6:	10 01       	reta			

000144f8 <wait_ready>:
   144f8:	0b 14       	pushm.a	#1,	r11	
   144fa:	b0 13 6c 64 	calla	#0x0646c	
   144fe:	f2 f0 ef ff 	and.b	#-17,	&0x001d	;#0xffef
   14502:	1d 00 
   14504:	f2 b2 03 00 	bit.b	#8,	&0x0003	;r2 As==11
   14508:	fd 27       	jz	$-4      	;abs 0x14504
   1450a:	f2 40 05 00 	mov.b	#5,	&0x006f	;#0x0005
   1450e:	6f 00 
   14510:	d2 b3 6d 00 	bit.b	#1,	&0x006d	;r3 As==01
   14514:	fd 23       	jnz	$-4      	;abs 0x14510
   14516:	5e 42 6e 00 	mov.b	&0x006e,r14	
   1451a:	c2 43 6f 00 	mov.b	#0,	&0x006f	;r3 As==00
   1451e:	e2 b2 03 00 	bit.b	#4,	&0x0003	;r2 As==10
   14522:	fd 27       	jz	$-4      	;abs 0x1451e
   14524:	5b 42 6e 00 	mov.b	&0x006e,r11	
   14528:	f2 d0 10 00 	bis.b	#16,	&0x001d	;#0x0010
   1452c:	1d 00 
   1452e:	02 df       	bis	r15,	r2	
--
00003100 <__watchdog_support>:
    3100:	55 42 20 01 	mov.b	&0x0120,r5	
    3104:	35 d0 08 5a 	bis	#23048,	r5	;#0x5a08
    3108:	82 45 b6 28 	mov	r5,	&0x28b6	

0000310c <__init_stack>:
    310c:	31 40 00 31 	mov	#12544,	r1	;#0x3100

00003110 <__do_copy_data>:
    3110:	3f 40 76 01 	mov	#374,	r15	;#0x0176
    3114:	0f 93       	tst	r15		
    3116:	08 24       	jz	$+18     	;abs 0x3128
    3118:	92 42 b6 28 	mov	&0x28b6,&0x0120	
    311c:	20 01 
    311e:	2f 83       	decd	r15		
    3120:	9f 4f 48 fe 	mov	-440(r15),4352(r15);0xfe48(r15), 0x1100(r15)
    3124:	00 11 
    3126:	f8 23       	jnz	$-14     	;abs 0x3118

--
0000363a <cc2420_timerb1_interrupt>:
    363a:	0f 14       	pushm.a	#1,	r15	
    363c:	1f 42 1e 01 	mov	&0x011e,r15	
    3640:	e2 b3 1c 00 	bit.b	#2,	&0x001c	;r3 As==10
    3644:	06 24       	jz	$+14     	;abs 0x3652
    3646:	d2 53 e4 24 	inc.b	&0x24e4	
    364a:	92 42 94 01 	mov	&0x0194,&0x24de	
    364e:	de 24 
    3650:	05 3c       	jmp	$+12     	;abs 0x365c
    3652:	c2 43 e4 24 	mov.b	#0,	&0x24e4	;r3 As==00
    3656:	92 42 94 01 	mov	&0x0194,&0x24e6	
    365a:	e6 24 
    365c:	0f 16       	popm.a	#1,	r15	
    365e:	00 13       	reti			

00003660 <timera1>:
    3660:	3f 14       	pushm.a	#4,	r15	
    3662:	b1 13 aa 44 	calla	#0x144aa	
    3666:	1f 42 2e 01 	mov	&0x012e,r15	
    366a:	2f 93       	cmp	#2,	r15	;r3 As==10
    366c:	5b 20       	jnz	$+184    	;abs 0x3724
    366e:	b2 b0 20 00 	bit	#32,	&0x0160	;#0x0020
    3672:	60 01 
    3674:	0b 24       	jz	$+24     	;abs 0x368c
    3676:	1e 42 74 01 	mov	&0x0174,r14	
    367a:	1f 42 70 01 	mov	&0x0170,r15	
    367e:	1d 42 70 01 	mov	&0x0170,r13	
    3682:	0f 9d       	cmp	r13,	r15	
    3684:	fa 23       	jnz	$-10     	;abs 0x367a
    3686:	0e 8f       	sub	r15,	r14	
    3688:	1e 93       	cmp	#1,	r14	;r3 As==01
    368a:	f1 27       	jz	$-28     	;abs 0x366e
    368c:	1f 42 70 01 	mov	&0x0170,r15	
    3690:	1e 42 70 01 	mov	&0x0170,r14	
--
000037c4 <timera0>:
    37c4:	3f 14       	pushm.a	#4,	r15	
    37c6:	b1 13 aa 44 	calla	#0x144aa	
    37ca:	b0 13 ba ad 	calla	#0x0adba	
    37ce:	b0 13 68 6f 	calla	#0x06f68	
    37d2:	4f 93       	tst.b	r15		
    37d4:	03 24       	jz	$+8      	;abs 0x37dc
    37d6:	b1 c0 f0 00 	bic	#240,	16(r1)	;#0x00f0, 0x0010(r1)
    37da:	10 00 
    37dc:	b1 13 d0 44 	calla	#0x144d0	
    37e0:	3c 16       	popm.a	#4,	r15	
    37e2:	00 13       	reti			

000037e4 <uart0_rx_interrupt>:
    37e4:	3f 14       	pushm.a	#4,	r15	
    37e6:	e2 b2 65 00 	bit.b	#4,	&0x0065	;r2 As==10
    37ea:	03 24       	jz	$+8      	;abs 0x37f2
    37ec:	5f 42 66 00 	mov.b	&0x0066,r15	
    37f0:	0c 3c       	jmp	$+26     	;abs 0x380a
--
0000380e <watchdog_interrupt>:
    380e:	82 43 20 01 	mov	#0,	&0x0120	;r3 As==00

----------------------------------------
FILE: extra-firmwares/hello-world.sky
TYPE: extra-firmwares/hello-world.sky: ELF 32-bit LSB executable, TI msp430, version 1 (embedded), statically linked, with debug_info, not stripped

[Memory size / flash-RAM efficiency]
   text	   data	    bss	    dec	    hex	filename
  42237	    324	   6714	  49275	   c07b	extra-firmwares/hello-world.sky

[Power / performance related symbols]
00004000 W __watchdog_support
00005956 t add_timer
00001c6e b bufmem_memb_mem
00001c66 b bufmem_memb_used
00001716 b buframmem_memb_mem
0000170e b buframmem_memb_used
00004834 t cc2420_cca
00004b02 T cc2420_get_txpower
000027c4 B cc2420_last_rssi
00004b20 T cc2420_rssi
00004c8a T cc2420_set_cca_threshold
00004ad6 T cc2420_set_txpower
0000435a T cc2420_timerb1_interrupt
00004ff4 T clock_delay
00004fcc T clock_init
00005000 T clock_seconds
00004fb2 T clock_time
0000566e T ctimer_expired
000055b4 T ctimer_init
00001324 b ctimer_list_list
00001124 D ctimer_process
00005616 T ctimer_reset
00009108 t ctimer_set.constprop.3
000055c8 T ctimer_set_with_process
00005646 T ctimer_stop
00001244 b debouncetimer
0000121e d defaultroutermemb
000025e4 b defaultroutermemb_memb_mem
000025e2 b defaultroutermemb_memb_used
00001d10 b dis_timer
000059c6 T etimer_next_expiration_time
000059ba T etimer_pending
0000112e D etimer_process
00005880 T etimer_request_poll
000059a8 T etimer_reset
00005996 T etimer_set
000059dc T etimer_stop
0000944e T get_probing_delay
000090f6 t handle_dao_ack_timer
0000919c t handle_dio_timer
000092f8 t handle_dis_timer
000090d8 t handle_leaving_timer
000092be t handle_periodic_timer
00009574 t handle_probing_timer
000090e4 t handle_unicast_dio_timer
00006844 T memb_alloc
00006882 T memb_free
0000680e T memb_init
000068b4 T memb_inmemb
000068de T memb_numfree
0000111c d metadata_memb
000012f2 b metadata_memb_memb_mem
000012ea b metadata_memb_memb_used
00001642 b mgt_timer
00006986 T msp430_add_lpm_req
00006992 T msp430_cpu_init
00001518 b neighbor_addr_mem_memb_mem
00001508 b neighbor_addr_mem_memb_used
0000110c d neighbor_memb
0000126a b neighbor_memb_memb_mem
00001268 b neighbor_memb_memb_used
00001d38 b next_rtimer
00001238 d nodememb
00002674 b nodememb_memb_mem
00002664 b nodememb_memb_used
0000e0c2 r output_power
00001114 d packet_memb
000012ba b packet_memb_memb_mem
000012b2 b packet_memb_memb_used
00007092 T packetbuf_addr
000027ee B packetbuf_addrs
000015c2 b packetbuf_aligned
00007072 T packetbuf_attr
00006fba T packetbuf_attr_clear
00007044 T packetbuf_attr_copyfrom
00007022 T packetbuf_attr_copyto
000027fe B packetbuf_attrs
00006fe2 T packetbuf_clear
00006ff4 T packetbuf_copyfrom
00006f2c T packetbuf_copyto
00006f10 T packetbuf_datalen
00006f20 T packetbuf_dataptr
00001d4d b packetbuf_hdr_len
00006f7e T packetbuf_hdralloc
00006f16 T packetbuf_hdrlen
00006f0a T packetbuf_hdrptr
00006eea T packetbuf_hdrreduce
000070a4 T packetbuf_holds_broadcast
00001d58 b packetbuf_payload_len
00001d4e b packetbuf_ptr
0000707c T packetbuf_set_addr
00007068 T packetbuf_set_attr
00006f04 T packetbuf_set_datalen
00006f72 T packetbuf_totlen
00001d24 b periodic_timer
000027d0 B periodic_timer
000071ac T platform_idle
0000551a t process_thread_ctimer_process
0000588a t process_thread_etimer_process
000074e6 T queuebuf_free
00007466 T queuebuf_init
00007482 T queuebuf_new_from_packetbuf
00007478 T queuebuf_numfree
00007510 T queuebuf_to_packetbuf
000074d4 T queuebuf_update_attr_from_packetbuf
0000931e T rpl_timers_dio_reset
00009600 T rpl_timers_init
000093d0 T rpl_timers_notify_dao_ack
00009368 T rpl_timers_schedule_dao
000093a0 T rpl_timers_schedule_dao_ack
000095da T rpl_timers_schedule_leaving
00009282 T rpl_timers_schedule_periodic_dis
00009664 T rpl_timers_schedule_state_update
0000934c T rpl_timers_schedule_unicast_dio
00009618 T rpl_timers_stop_dag_timers
000095be T rpl_timers_unschedule_leaving
00009952 T rtimer_arch_init
00009960 T rtimer_arch_now
0000996e T rtimer_run_next
00002428 b rxdma_timer
0000110a d send_on_cca
0000b340 T stimer_expired
0000132e b timer.1898
0000b5d2 T timer_expired
0000b5fc T timer_reset
0000b5b6 T timer_set
00009926 T timera0
00004eda T timera1
00001326 b timerlist
00002a8e B uip_ds6_timer_periodic
00002928 B uip_ds6_timer_ra
0000c85a T uip_sr_free_all
0000459e t wait_for_status
0000457c t wait_for_transmission
0000d2aa T watchdog_init
0000d268 T watchdog_interrupt
0000d282 T watchdog_periodic
0000d26e T watchdog_start
0000d294 T watchdog_stop

[CPU-intensive / large functions]
0000dbdc 000000fa T memcpy
0000dcd6 000000fa T memmove
0000281a 000000fe B curr_instance
00006458 00000106 T link_stats_input_callback
00002930 00000108 B uip_ds6_if
0000b3b0 00000114 T tcpip_ipv6_output
00007ebe 00000118 T rpl_ext_header_srh_update
00004b6c 0000011e t get_value
000024c0 00000120 b _ds6_neighbors_mem
000056e8 00000120 T ds2411_init
00002674 00000120 b nodememb_memb_mem
0000d13c 0000012c T uiplib_ipaddr_snprint
00007912 00000144 T rpl_dag_update_state
000052e2 00000146 T csma_output_packet
0000c172 00000146 T uip_icmp6_error_output
00004ca0 00000150 t set_value
00001d5a 00000158 b frag_info
0000beea 00000164 T uip_ds6_init
00005e28 00000168 T frame802154_parse
000084a6 0000016c t dao_input
0000d37e 00000194 t print_field
00007a56 000001b6 T rpl_process_dio
00005126 000001bc t transmit_from_queue
00009d8a 000001fc t add_fragment
00008954 00000230 T rpl_icmp6_dio_output
0000403e 00000238 T main
0000c358 00000298 t ns_input
0000813e 000002aa T rpl_ext_header_update
00008612 000002ba t dio_input
0000caa8 000004c2 T uip_process
00001716 00000550 b buframmem_memb_mem
00001eb4 00000558 b frag_buf
0000d512 0000063e T vuprintf
0000a054 0000079e t output
0000a7f2 00000a1a t input

[Power / performance related strings]
Ctimer process
Event timer

[Busy-wait / delay / loop related disassembly samples]
00004000 <__watchdog_support>:
    4000:	55 42 20 01 	mov.b	&0x0120,r5	
    4004:	35 d0 08 5a 	bis	#23048,	r5	;#0x5a08
    4008:	82 45 7c 2c 	mov	r5,	&0x2c7c	

0000400c <__init_stack>:
    400c:	31 40 00 39 	mov	#14592,	r1	;#0x3900

00004010 <__do_copy_data>:
    4010:	3f 40 44 01 	mov	#324,	r15	;#0x0144
    4014:	0f 93       	tst	r15		
    4016:	08 24       	jz	$+18     	;abs 0x4028
    4018:	92 42 7c 2c 	mov	&0x2c7c,&0x0120	
    401c:	20 01 
    401e:	2f 83       	decd	r15		
    4020:	9f 4f de e4 	mov	-6946(r15),4352(r15);0xe4de(r15), 0x1100(r15)
    4024:	00 11 
    4026:	f8 23       	jnz	$-14     	;abs 0x4018

--
0000435a <cc2420_timerb1_interrupt>:
    435a:	0f 12       	push	r15		
    435c:	1f 42 1e 01 	mov	&0x011e,r15	
    4360:	e2 b3 1c 00 	bit.b	#2,	&0x001c	;r3 As==10
    4364:	06 24       	jz	$+14     	;abs 0x4372
    4366:	d2 53 cc 27 	inc.b	&0x27cc	
    436a:	92 42 94 01 	mov	&0x0194,&0x27c6	
    436e:	c6 27 
    4370:	05 3c       	jmp	$+12     	;abs 0x437c
    4372:	c2 43 cc 27 	mov.b	#0,	&0x27cc	;r3 As==00
    4376:	92 42 94 01 	mov	&0x0194,&0x27ce	
    437a:	ce 27 
    437c:	3f 41       	pop	r15		
    437e:	00 13       	reti			

00004380 <cc2420_port1_interrupt>:
    4380:	0f 12       	push	r15		
    4382:	0e 12       	push	r14		
    4384:	0d 12       	push	r13		
--
0000457c <wait_for_transmission>:
    457c:	0b 12       	push	r11		
    457e:	b0 12 60 99 	call	#0x9960	
    4582:	3b 40 34 f3 	mov	#-3276,	r11	;#0xf334
    4586:	0b 8f       	sub	r15,	r11	
    4588:	b0 12 2e 45 	call	#0x452e	
    458c:	7f f2       	and.b	#8,	r15	;r2 As==11
    458e:	05 24       	jz	$+12     	;abs 0x459a
    4590:	b0 12 60 99 	call	#0x9960	
    4594:	0f 5b       	add	r11,	r15	
    4596:	0f 93       	tst	r15		
    4598:	f7 3b       	jl	$-16     	;abs 0x4588
    459a:	3b 41       	pop	r11		
    459c:	30 41       	ret			

0000459e <wait_for_status>:
    459e:	0b 12       	push	r11		
    45a0:	0a 12       	push	r10		
    45a2:	4a 4f       	mov.b	r15,	r10	
    45a4:	b0 12 60 99 	call	#0x9960	
    45a8:	3b 40 34 f3 	mov	#-3276,	r11	;#0xf334
    45ac:	0b 8f       	sub	r15,	r11	
    45ae:	b0 12 2e 45 	call	#0x452e	
    45b2:	4f ba       	bit.b	r10,	r15	
    45b4:	05 20       	jnz	$+12     	;abs 0x45c0
    45b6:	b0 12 60 99 	call	#0x9960	
    45ba:	0f 5b       	add	r11,	r15	
    45bc:	0f 93       	tst	r15		
    45be:	f7 3b       	jl	$-16     	;abs 0x45ae
    45c0:	3a 41       	pop	r10		
    45c2:	3b 41       	pop	r11		
    45c4:	30 41       	ret			

000045c6 <getrxdata>:
--
00004ad6 <cc2420_set_txpower>:
    4ad6:	0b 12       	push	r11		
    4ad8:	4b 4f       	mov.b	r15,	r11	
    4ada:	d2 53 50 12 	inc.b	&0x1250	
    4ade:	3f 40 15 00 	mov	#21,	r15	;#0x0015
    4ae2:	b0 12 de 43 	call	#0x43de	
    4ae6:	3f f0 e0 ff 	and	#-32,	r15	;#0xffe0
    4aea:	0e 4b       	mov	r11,	r14	
    4aec:	3e f0 1f 00 	and	#31,	r14	;#0x001f
    4af0:	0e df       	bis	r15,	r14	
    4af2:	3f 40 15 00 	mov	#21,	r15	;#0x0015
    4af6:	b0 12 2a 44 	call	#0x442a	
    4afa:	b0 12 58 46 	call	#0x4658	
    4afe:	3b 41       	pop	r11		
    4b00:	30 41       	ret			

00004b02 <cc2420_get_txpower>:
    4b02:	0b 12       	push	r11		
    4b04:	d2 53 50 12 	inc.b	&0x1250	
    4b08:	3f 40 15 00 	mov	#21,	r15	;#0x0015
    4b0c:	b0 12 de 43 	call	#0x43de	
    4b10:	0b 4f       	mov	r15,	r11	
    4b12:	b0 12 58 46 	call	#0x4658	
    4b16:	0f 4b       	mov	r11,	r15	
    4b18:	3f f0 1f 00 	and	#31,	r15	;#0x001f
    4b1c:	3b 41       	pop	r11		
    4b1e:	30 41       	ret			

00004b20 <cc2420_rssi>:
    4b20:	0b 12       	push	r11		
    4b22:	0a 12       	push	r10		
    4b24:	c2 93 50 12 	tst.b	&0x1250	
    4b28:	1c 20       	jnz	$+58     	;abs 0x4b62
    4b2a:	d2 43 50 12 	mov.b	#1,	&0x1250	;r3 As==01
    4b2e:	c2 93 53 12 	tst.b	&0x1253	
--
00004eda <timera1>:
    4eda:	0f 12       	push	r15		
    4edc:	0e 12       	push	r14		
    4ede:	0d 12       	push	r13		
    4ee0:	0c 12       	push	r12		
    4ee2:	b0 12 6e d2 	call	#0xd26e	
    4ee6:	1f 42 2e 01 	mov	&0x012e,r15	
    4eea:	2f 93       	cmp	#2,	r15	;r3 As==10
    4eec:	5b 20       	jnz	$+184    	;abs 0x4fa4
    4eee:	b2 b0 20 00 	bit	#32,	&0x0160	;#0x0020
    4ef2:	60 01 
    4ef4:	0b 24       	jz	$+24     	;abs 0x4f0c
    4ef6:	1e 42 74 01 	mov	&0x0174,r14	
    4efa:	1f 42 70 01 	mov	&0x0170,r15	
    4efe:	1d 42 70 01 	mov	&0x0170,r13	
    4f02:	0f 9d       	cmp	r13,	r15	
    4f04:	fa 23       	jnz	$-10     	;abs 0x4efa
    4f06:	0e 8f       	sub	r15,	r14	
    4f08:	1e 93       	cmp	#1,	r14	;r3 As==01
--
00004ff4 <clock_delay>:
    4ff4:	02 3c       	jmp	$+6      	;abs 0x4ffa
    4ff6:	03 43       	nop			
    4ff8:	3f 53       	add	#-1,	r15	;r3 As==11
    4ffa:	0f 93       	tst	r15		
    4ffc:	fc 23       	jnz	$-6      	;abs 0x4ff6
    4ffe:	30 41       	ret			

00005000 <clock_seconds>:
    5000:	1e 42 62 12 	mov	&0x1262,r14	
    5004:	1f 42 64 12 	mov	&0x1264,r15	
    5008:	1c 42 62 12 	mov	&0x1262,r12	
    500c:	1d 42 64 12 	mov	&0x1264,r13	
    5010:	0e 9c       	cmp	r12,	r14	
    5012:	f6 23       	jnz	$-18     	;abs 0x5000
    5014:	0f 9d       	cmp	r13,	r15	
    5016:	f4 23       	jnz	$-22     	;abs 0x5000
    5018:	30 41       	ret			

--
0000551a <process_thread_ctimer_process>:
    551a:	0b 12       	push	r11		
    551c:	0a 12       	push	r10		
    551e:	09 12       	push	r9		
    5520:	0a 4f       	mov	r15,	r10	
    5522:	2f 4f       	mov	@r15,	r15	
    5524:	0f 93       	tst	r15		
    5526:	04 24       	jz	$+10     	;abs 0x5530
    5528:	3f 90 45 00 	cmp	#69,	r15	;#0x0045
    552c:	34 20       	jnz	$+106    	;abs 0x5596
    552e:	3a 3c       	jmp	$+118    	;abs 0x55a4
    5530:	1b 42 24 13 	mov	&0x1324,r11	
    5534:	09 3c       	jmp	$+20     	;abs 0x5548
    5536:	1d 4b 06 00 	mov	6(r11),	r13	;0x0006(r11)
    553a:	1e 4b 08 00 	mov	8(r11),	r14	;0x0008(r11)
    553e:	0f 4b       	mov	r11,	r15	
    5540:	2f 53       	incd	r15		
    5542:	b0 12 96 59 	call	#0x5996	
    5546:	2b 4b       	mov	@r11,	r11	
--
000055b4 <ctimer_init>:
    55b4:	c2 43 22 13 	mov.b	#0,	&0x1322	;r3 As==00
    55b8:	82 43 24 13 	mov	#0,	&0x1324	;r3 As==00
    55bc:	0e 43       	clr	r14		
    55be:	3f 40 24 11 	mov	#4388,	r15	;#0x1124
    55c2:	b0 12 18 74 	call	#0x7418	
    55c6:	30 41       	ret			

000055c8 <ctimer_set_with_process>:

----------------------------------------
FILE: extra-firmwares/hello-world.z1
TYPE: extra-firmwares/hello-world.z1: ELF 32-bit LSB executable, TI msp430, version 1 (embedded), statically linked, with debug_info, not stripped

[Memory size / flash-RAM efficiency]
   text	   data	    bss	    dec	    hex	filename
  41512	    328	   5676	  47516	   b99c	extra-firmwares/hello-world.z1

[Power / performance related symbols]
00003100 W __watchdog_support
00004d14 t add_timer
00001aee b bufmem_memb_mem
00002473 b bufmem_memb_used
0000159e b buframmem_memb_mem
0000246b b buframmem_memb_used
00003f20 t cc2420_cca
0000414c T cc2420_get_txpower
00002498 B cc2420_last_rssi
0000416a T cc2420_rssi
000042d0 T cc2420_set_cca_threshold
00004120 T cc2420_set_txpower
00003604 T cc2420_timerb1_interrupt
0000455c T clock_delay
00004534 T clock_init
0000458c T clock_seconds
0000451a T clock_time
00004568 T clock_wait
00004bac T ctimer_expired
00004afa T ctimer_init
00001334 b ctimer_list_list
00001130 D ctimer_process
00004b58 T ctimer_reset
000082c6 t ctimer_set.constprop.3
00004b0e T ctimer_set_with_process
00004b84 T ctimer_stop
0000125c b debouncetimer
000011fc d defaultroutermemb
000022f8 b defaultroutermemb_memb_mem
00002483 b defaultroutermemb_memb_used
00001b4e b dis_timer
00004d84 T etimer_next_expiration_time
00004d78 T etimer_pending
0000113c D etimer_process
00004c46 T etimer_request_poll
00004d66 T etimer_reset
00004d54 T etimer_set
00004d9a T etimer_stop
000085f8 T get_probing_delay
000082b4 t handle_dao_ack_timer
00008356 t handle_dio_timer
000084aa t handle_dis_timer
00008296 t handle_leaving_timer
00008470 t handle_periodic_timer
0000870a t handle_probing_timer
000082a2 t handle_unicast_dio_timer
00005640 T i2c_busy
00005c24 T memb_alloc
00005c62 T memb_free
00005bee T memb_init
00005c94 T memb_inmemb
00005cbe T memb_numfree
00001128 d metadata_memb
000012f4 b metadata_memb_memb_mem
00002441 b metadata_memb_memb_used
00001566 b mgt_timer
00005d84 T msp430_cpu_init
0000148e b neighbor_addr_mem_memb_mem
0000245e b neighbor_addr_mem_memb_used
00001118 d neighbor_memb
00001278 b neighbor_memb_memb_mem
00002437 b neighbor_memb_memb_used
00001b7a b next_rtimer
0000121c d nodememb
00002376 b nodememb_memb_mem
00002485 b nodememb_memb_used
0000cf10 r output_power
00001120 d packet_memb
000012c4 b packet_memb_memb_mem
00002439 b packet_memb_memb_used
000063e6 T packetbuf_addr
000024d2 B packetbuf_addrs
000014e6 b packetbuf_aligned
000063ca T packetbuf_attr
00006316 T packetbuf_attr_clear
0000639c T packetbuf_attr_copyfrom
0000637a T packetbuf_attr_copyto
000024e2 B packetbuf_attrs
0000633e T packetbuf_clear
00006350 T packetbuf_copyfrom
00006294 T packetbuf_copyto
00006278 T packetbuf_datalen
00006288 T packetbuf_dataptr
0000247f b packetbuf_hdr_len
000062da T packetbuf_hdralloc
0000627e T packetbuf_hdrlen
00006272 T packetbuf_hdrptr
00006252 T packetbuf_hdrreduce
000063f4 T packetbuf_holds_broadcast
00001b96 b packetbuf_payload_len
00001b8c b packetbuf_ptr
000063d4 T packetbuf_set_addr
000063c0 T packetbuf_set_attr
0000626c T packetbuf_set_datalen
000062ce T packetbuf_totlen
00001b64 b periodic_timer
000024b2 B periodic_timer
0000654a T platform_idle
00004a68 t process_thread_ctimer_process
00004c50 t process_thread_etimer_process
00006872 T queuebuf_free
000067f6 T queuebuf_init
00006812 T queuebuf_new_from_packetbuf
00006808 T queuebuf_numfree
0000689c T queuebuf_to_packetbuf
00006860 T queuebuf_update_attr_from_packetbuf
000084d0 T rpl_timers_dio_reset
00008792 T rpl_timers_init
0000857e T rpl_timers_notify_dao_ack
0000851a T rpl_timers_schedule_dao
0000854e T rpl_timers_schedule_dao_ack
0000876c T rpl_timers_schedule_leaving
00008438 T rpl_timers_schedule_periodic_dis
000087f6 T rpl_timers_schedule_state_update
000084fe T rpl_timers_schedule_unicast_dio
000087aa T rpl_timers_stop_dag_timers
00008750 T rpl_timers_unschedule_leaving
00008a68 T rtimer_arch_init
00008a76 T rtimer_arch_now
00008a84 T rtimer_run_next
00001246 d send_on_cca
0000a2e2 T stimer_expired
0000124c b suppressTimer1
00001254 b suppressTimer2
0000133e b timer.2130
0000a566 T timer_expired
0000a590 T timer_reset
0000a54a T timer_set
0000378e T timera0
0000362a T timera1
00001336 b timerlist
00002782 B uip_ds6_timer_periodic
0000261c B uip_ds6_timer_ra
0000b768 T uip_sr_free_all
00003cae t wait_for_status
00003c8c t wait_for_transmission
0000c156 t wait_ready
0000c144 T watchdog_init
000037d8 T watchdog_interrupt
0000c11c T watchdog_periodic
0000c108 T watchdog_start
0000c12e T watchdog_stop

[CPU-intensive / large functions]
0000139a 000000e0 b received_seqnos
00005792 000000e2 T link_stats_packet_sent
0000cc06 000000e8 T memcpy
0000ccee 000000e8 T memmove
000071d6 000000e8 T rpl_ext_header_srh_update
00004430 000000ea T cc2420_init
00005874 000000f6 T link_stats_input_callback
00002624 00000108 B uip_ds6_if
00002500 0000010c B curr_instance
0000a352 0000010c T tcpip_ipv6_output
0000bff4 00000114 T uiplib_ipaddr_snprint
000041b2 0000011e t get_value
00004840 00000136 T csma_output_packet
0000b0d8 00000136 T uip_icmp6_error_output
00006c74 0000013c T rpl_dag_update_state
000042e6 0000014a t set_value
00007722 00000158 t dao_input
00001b98 00000158 b frag_info
00005176 0000015c T frame802154_parse
0000ae58 00000164 T uip_ds6_init
0000c2c6 00000176 t print_field
00006db0 0000019e T rpl_process_dio
00004694 000001ac t transmit_from_queue
00008e3a 000001e8 t add_fragment
00007b8c 0000020a T rpl_icmp6_dio_output
0000313e 00000238 T main
00007406 00000266 T rpl_ext_header_update
0000b2a2 00000290 t ns_input
0000787a 00000292 t dio_input
0000b984 000004ba T uip_process
0000159e 00000550 b buframmem_memb_mem
00001cf0 00000558 b frag_buf
0000c43c 00000742 T vuprintf
000090d2 00000746 t output
00009818 0000099c t input

[Power / performance related strings]
Ctimer process
Event timer

[Busy-wait / delay / loop related disassembly samples]
00003100 <__watchdog_support>:
    3100:	55 42 20 01 	mov.b	&0x0120,r5	
    3104:	35 d0 08 5a 	bis	#23048,	r5	;#0x5a08
    3108:	82 45 72 28 	mov	r5,	&0x2872	

0000310c <__init_stack>:
    310c:	31 40 00 31 	mov	#12544,	r1	;#0x3100

00003110 <__do_copy_data>:
    3110:	3f 40 48 01 	mov	#328,	r15	;#0x0148
    3114:	0f 93       	tst	r15		
    3116:	08 24       	jz	$+18     	;abs 0x3128
    3118:	92 42 72 28 	mov	&0x2872,&0x0120	
    311c:	20 01 
    311e:	2f 83       	decd	r15		
    3120:	9f 4f ea d2 	mov	-11542(r15),4352(r15);0xd2ea(r15), 0x1100(r15)
    3124:	00 11 
    3126:	f8 23       	jnz	$-14     	;abs 0x3118

--
00003604 <cc2420_timerb1_interrupt>:
    3604:	0f 14       	pushm.a	#1,	r15	
    3606:	1f 42 1e 01 	mov	&0x011e,r15	
    360a:	e2 b3 1c 00 	bit.b	#2,	&0x001c	;r3 As==10
    360e:	06 24       	jz	$+14     	;abs 0x361c
    3610:	d2 53 a0 24 	inc.b	&0x24a0	
    3614:	92 42 94 01 	mov	&0x0194,&0x249a	
    3618:	9a 24 
    361a:	05 3c       	jmp	$+12     	;abs 0x3626
    361c:	c2 43 a0 24 	mov.b	#0,	&0x24a0	;r3 As==00
    3620:	92 42 94 01 	mov	&0x0194,&0x24a2	
    3624:	a2 24 
    3626:	0f 16       	popm.a	#1,	r15	
    3628:	00 13       	reti			

0000362a <timera1>:
    362a:	3f 14       	pushm.a	#4,	r15	
    362c:	b0 13 08 c1 	calla	#0x0c108	
    3630:	1f 42 2e 01 	mov	&0x012e,r15	
    3634:	2f 93       	cmp	#2,	r15	;r3 As==10
    3636:	5b 20       	jnz	$+184    	;abs 0x36ee
    3638:	b2 b0 20 00 	bit	#32,	&0x0160	;#0x0020
    363c:	60 01 
    363e:	0b 24       	jz	$+24     	;abs 0x3656
    3640:	1e 42 74 01 	mov	&0x0174,r14	
    3644:	1f 42 70 01 	mov	&0x0170,r15	
    3648:	1d 42 70 01 	mov	&0x0170,r13	
    364c:	0f 9d       	cmp	r13,	r15	
    364e:	fa 23       	jnz	$-10     	;abs 0x3644
    3650:	0e 8f       	sub	r15,	r14	
    3652:	1e 93       	cmp	#1,	r14	;r3 As==01
    3654:	f1 27       	jz	$-28     	;abs 0x3638
    3656:	1f 42 70 01 	mov	&0x0170,r15	
    365a:	1e 42 70 01 	mov	&0x0170,r14	
--
0000378e <timera0>:
    378e:	3f 14       	pushm.a	#4,	r15	
    3790:	b0 13 08 c1 	calla	#0x0c108	
    3794:	b0 13 84 8a 	calla	#0x08a84	
    3798:	b0 13 42 67 	calla	#0x06742	
    379c:	4f 93       	tst.b	r15		
    379e:	03 24       	jz	$+8      	;abs 0x37a6
    37a0:	b1 c0 f0 00 	bic	#240,	16(r1)	;#0x00f0, 0x0010(r1)
    37a4:	10 00 
    37a6:	b0 13 2e c1 	calla	#0x0c12e	
    37aa:	3c 16       	popm.a	#4,	r15	
    37ac:	00 13       	reti			

000037ae <uart0_rx_interrupt>:
    37ae:	3f 14       	pushm.a	#4,	r15	
    37b0:	e2 b2 65 00 	bit.b	#4,	&0x0065	;r2 As==10
    37b4:	03 24       	jz	$+8      	;abs 0x37bc
    37b6:	5f 42 66 00 	mov.b	&0x0066,r15	
    37ba:	0c 3c       	jmp	$+26     	;abs 0x37d4
--
000037d8 <watchdog_interrupt>:
    37d8:	82 43 20 01 	mov	#0,	&0x0120	;r3 As==00
    37dc:	00 13       	reti			

000037de <status>:
    37de:	3f 50 7f ff 	add	#-129,	r15	;#0xff7f
    37e2:	2f 93       	cmp	#2,	r15	;r3 As==10
    37e4:	03 2c       	jc	$+8      	;abs 0x37ec
    37e6:	5f 42 30 24 	mov.b	&0x2430,r15	
    37ea:	10 01       	reta			
    37ec:	0f 43       	clr	r15		
    37ee:	10 01       	reta			

000037f0 <accm_write_reg>:
    37f0:	21 83       	decd	r1		
    37f2:	c1 4f 00 00 	mov.b	r15,	0(r1)	;0x0000(r1)
    37f6:	c1 4e 01 00 	mov.b	r14,	1(r1)	;0x0001(r1)
    37fa:	7f 40 53 00 	mov.b	#83,	r15	;#0x0053
    37fe:	b0 13 d2 55 	calla	#0x055d2	
--
00003c8c <wait_for_transmission>:
    3c8c:	0b 14       	pushm.a	#1,	r11	
    3c8e:	b0 13 76 8a 	calla	#0x08a76	
    3c92:	3b 40 34 f3 	mov	#-3276,	r11	;#0xf334
    3c96:	0b 8f       	sub	r15,	r11	
    3c98:	b0 13 40 3c 	calla	#0x03c40	
    3c9c:	7f f2       	and.b	#8,	r15	;r2 As==11
    3c9e:	05 24       	jz	$+12     	;abs 0x3caa
    3ca0:	b0 13 76 8a 	calla	#0x08a76	
    3ca4:	0f 5b       	add	r11,	r15	
    3ca6:	0f 93       	tst	r15		
    3ca8:	f7 3b       	jl	$-16     	;abs 0x3c98
    3caa:	0b 16       	popm.a	#1,	r11	
    3cac:	10 01       	reta			

00003cae <wait_for_status>:
    3cae:	1b 14       	pushm.a	#2,	r11	
    3cb0:	4a 4f       	mov.b	r15,	r10	
    3cb2:	b0 13 76 8a 	calla	#0x08a76	
    3cb6:	3b 40 34 f3 	mov	#-3276,	r11	;#0xf334
    3cba:	0b 8f       	sub	r15,	r11	
    3cbc:	b0 13 40 3c 	calla	#0x03c40	
    3cc0:	4f ba       	bit.b	r10,	r15	
    3cc2:	05 20       	jnz	$+12     	;abs 0x3cce
    3cc4:	b0 13 76 8a 	calla	#0x08a76	
    3cc8:	0f 5b       	add	r11,	r15	
    3cca:	0f 93       	tst	r15		
    3ccc:	f7 3b       	jl	$-16     	;abs 0x3cbc
    3cce:	1a 16       	popm.a	#2,	r11	
    3cd0:	10 01       	reta			

00003cd2 <getrxdata>:
    3cd2:	0b 14       	pushm.a	#1,	r11	
    3cd4:	d2 c3 19 00 	bic.b	#1,	&0x0019	;r3 As==01
--
00004120 <cc2420_set_txpower>:
    4120:	0b 14       	pushm.a	#1,	r11	
    4122:	4b 4f       	mov.b	r15,	r11	
    4124:	d2 53 32 24 	inc.b	&0x2432	
    4128:	3f 40 15 00 	mov	#21,	r15	;#0x0015
    412c:	b0 13 0c 3b 	calla	#0x03b0c	
    4130:	3f f0 e0 ff 	and	#-32,	r15	;#0xffe0
    4134:	0e 4b       	mov	r11,	r14	
    4136:	3e f0 1f 00 	and	#31,	r14	;#0x001f
    413a:	0e df       	bis	r15,	r14	
    413c:	3f 40 15 00 	mov	#21,	r15	;#0x0015
    4140:	b0 13 52 3b 	calla	#0x03b52	
    4144:	b0 13 60 3d 	calla	#0x03d60	
    4148:	0b 16       	popm.a	#1,	r11	
    414a:	10 01       	reta			

0000414c <cc2420_get_txpower>:
    414c:	0b 14       	pushm.a	#1,	r11	
    414e:	d2 53 32 24 	inc.b	&0x2432	
    4152:	3f 40 15 00 	mov	#21,	r15	;#0x0015
    4156:	b0 13 0c 3b 	calla	#0x03b0c	
    415a:	0b 4f       	mov	r15,	r11	
    415c:	b0 13 60 3d 	calla	#0x03d60	
    4160:	0f 4b       	mov	r11,	r15	
    4162:	3f f0 1f 00 	and	#31,	r15	;#0x001f
    4166:	0b 16       	popm.a	#1,	r11	
    4168:	10 01       	reta			

0000416a <cc2420_rssi>:
    416a:	1b 14       	pushm.a	#2,	r11	
    416c:	c2 93 32 24 	tst.b	&0x2432	
    4170:	1c 20       	jnz	$+58     	;abs 0x41aa
    4172:	d2 43 32 24 	mov.b	#1,	&0x2432	;r3 As==01
    4176:	c2 93 35 24 	tst.b	&0x2435	
    417a:	04 20       	jnz	$+10     	;abs 0x4184
--
0000455c <clock_delay>:
    455c:	02 3c       	jmp	$+6      	;abs 0x4562
    455e:	03 43       	nop			
    4560:	3f 53       	add	#-1,	r15	;r3 As==11
    4562:	0f 93       	tst	r15		
    4564:	fc 23       	jnz	$-6      	;abs 0x455e
    4566:	10 01       	reta			

00004568 <clock_wait>:
    4568:	3b 14       	pushm.a	#4,	r11	
    456a:	08 4e       	mov	r14,	r8	
    456c:	09 4f       	mov	r15,	r9	
    456e:	b0 13 1a 45 	calla	#0x0451a	
    4572:	0a 4e       	mov	r14,	r10	

----------------------------------------
FILE: extra-firmwares/mtype5756516.cooja
TYPE: extra-firmwares/mtype5756516.cooja: ELF 64-bit LSB shared object, x86-64, version 1 (SYSV), dynamically linked, BuildID[sha1]=1f0390f80935c86149abad7dbc92cbc9a0fe7759, not stripped

[Memory size / flash-RAM efficiency]
   text	   data	    bss	    dec	    hex	filename
 324415	   9488	 292376	 626279	  98e67	extra-firmwares/mtype5756516.cooja

[Power / performance related symbols]
0000000000019548 t add_timer
000000000001e283 t buffer_free
00000000000646a0 b bufmem_memb_mem
0000000000064660 b bufmem_memb_used
00000000000648e0 b buframmem_memb_mem
00000000000648a0 b buframmem_memb_used
000000000003984d t check_timer_miss
0000000000016579 T clock_delay
000000000001652e T clock_init
000000000001654d T clock_seconds
0000000000016539 T clock_time
00000000000165b8 T compower_accumulate
0000000000016642 T compower_clear
0000000000055990 B compower_idle_activity
000000000001659e T compower_init
00000000000523e0 D cooja_radio_driver
0000000000054000 D cooja_radio_process
0000000000017fd4 T ctimer_expired
0000000000017da5 T ctimer_init
0000000000054040 d ctimer_list
0000000000057b88 b ctimer_list_list
0000000000054060 D ctimer_process
0000000000017e94 T ctimer_reset
0000000000017f05 T ctimer_restart
0000000000015484 t ctimer_set
0000000000018ac7 t ctimer_set
000000000001cf02 t ctimer_set
000000000001e185 t ctimer_set
0000000000024997 t ctimer_set
000000000002b9b4 t ctimer_set
0000000000035298 t ctimer_set
0000000000035fb1 t ctimer_set
000000000003b2f7 t ctimer_set
000000000004039b t ctimer_set
0000000000017dda T ctimer_set_with_process
0000000000017f76 T ctimer_stop
0000000000054770 d defaultroutermemb
0000000000097960 b defaultroutermemb_memb_mem
0000000000097948 b defaultroutermemb_memb_used
000000000006a8c0 b dis_timer
0000000000094a39 b do_wait_for_ack.22
000000000001e89f t domain_set_free
0000000000094e00 b eb_timer.0
0000000000058028 B energest_current_mode
0000000000058000 B energest_current_time
00000000000189ff T energest_flush
0000000000018a91 T energest_get_total_time
000000000001898c T energest_init
0000000000016e27 t energest_off
0000000000016de6 t energest_on
000000000001894b t energest_on
0000000000016e8d t energest_switch
0000000000057fc0 B energest_total_time
0000000000016587 t energest_type_time
0000000000018934 t energest_type_time
0000000000034263 t energest_type_time
0000000000052460 D esmrf_driver
0000000000054080 d esmrf_icmp_handler
00000000000196a7 T etimer_adjust
00000000000196d8 T etimer_expiration_time
0000000000017c04 t etimer_expired
000000000002d7c1 t etimer_expired
000000000003424b t etimer_expired
000000000003561b t etimer_expired
000000000003b2df t etimer_expired
000000000003ce62 t etimer_expired
0000000000019727 T etimer_next_expiration_time
000000000001970d T etimer_pending
00000000000540a0 D etimer_process
000000000001952e T etimer_request_poll
0000000000019651 T etimer_reset
0000000000019616 T etimer_reset_with_new_interval
000000000001967c T etimer_restart
00000000000195e0 T etimer_set
00000000000196f8 T etimer_start_time
0000000000019748 T etimer_stop
                 U free@@GLIBC_2.2.5
00000000000585a0 b fwd_delay
000000000006cb00 b fwd_delay
000000000002c190 T get_probing_delay
000000000001cfda t guess_etx_from_rssi
000000000002c0da t handle_dao_ack_timer
000000000002bc58 t handle_dio_timer
000000000002ba6b t handle_dis_timer
000000000002c4c3 t handle_leaving_timer
000000000002c5c8 t handle_periodic_timer
000000000002c3c1 t handle_probing_timer
0000000000024b3f t handle_timer
000000000002bdc7 t handle_unicast_dio_timer
0000000000094ce0 b keepalive_timer
000000000006baf8 b last_cpu
000000000006bb08 b last_deep_lpm
000000000006bb00 b last_lpm
000000000005be60 b lifetime_timer
000000000001fa36 t lifetime_timer_expiration
0000000000054620 d link_memb
0000000000093f40 b link_memb_memb_mem
0000000000093f20 b link_memb_memb_used
000000000006cb68 b loc_clock
00000000000342a0 t log_energest
00000000000547f0 d mcast_route_memb
0000000000097c20 b mcast_route_memb_memb_mem
0000000000097c08 b mcast_route_memb_memb_used
000000000001df1d T memb_alloc
000000000001df97 T memb_free
000000000001deba T memb_init
000000000001e02a T memb_inmemb
000000000001e081 T memb_numfree
0000000000062f60 b neighbor_addr_mem_memb_mem
0000000000062e20 b neighbor_addr_mem_memb_used
000000000006c064 b next_free
000000000006b188 b next_rtimer
0000000000054860 d nodememb
0000000000098900 b nodememb_memb_mem
00000000000987c0 b nodememb_memb_used
00000000000524e0 D nullradio_driver
00000000000545e0 d packet_memb
000000000006cc60 b packet_memb_memb_mem
000000000006cc20 b packet_memb_memb_used
00000000000542e8 d packetbuf
000000000002305f T packetbuf_addr
0000000000064260 B packetbuf_addrs
0000000000064280 b packetbuf_aligned
0000000000022ffc T packetbuf_attr
0000000000022ed5 T packetbuf_attr_clear
0000000000022f85 T packetbuf_attr_copyfrom
0000000000022f3a T packetbuf_attr_copyto
0000000000064240 B packetbuf_attrs
0000000000022c10 T packetbuf_clear
0000000000022c3e T packetbuf_copyfrom
0000000000022c97 T packetbuf_copyto
0000000000022e6e T packetbuf_datalen
0000000000022e38 T packetbuf_dataptr
000000000006b3a8 b packetbuf_hdr_len
0000000000022d3d T packetbuf_hdralloc
0000000000022e7f T packetbuf_hdrlen
0000000000022e5d T packetbuf_hdrptr
0000000000022dcc T packetbuf_hdrreduce
0000000000023089 T packetbuf_holds_broadcast
000000000006b3ac b packetbuf_payload_len
000000000006b3a0 b packetbuf_ptr
0000000000022ebd T packetbuf_remaininglen
000000000002301d T packetbuf_set_addr
0000000000022fd0 T packetbuf_set_attr
0000000000022e1c T packetbuf_set_datalen
0000000000022e9b T packetbuf_totlen
0000000000054830 d packets_memb
0000000000097ce0 b packets_memb_memb_mem
0000000000097cc0 b packets_memb_memb_used
000000000006a900 b periodic_timer
0000000000058680 B periodic_timer
000000000006bb20 b periodic_timer.0
0000000000094e60 b periodic_timer.4936
000000000001738c t process_thread_cooja_radio_process
0000000000017c43 t process_thread_ctimer_process
0000000000019348 t process_thread_etimer_process
000000000003459f t process_thread_simple_energest_process
00000000000245dc T queuebuf_addr
0000000000024623 T queuebuf_attr
00000000000245ac T queuebuf_datalen
0000000000024565 T queuebuf_dataptr
000000000002465e T queuebuf_debug_print
0000000000024490 T queuebuf_free
00000000000242fc T queuebuf_init
00000000000242e7 t queuebuf_load_to_ram
000000000002433e T queuebuf_new_from_packetbuf
0000000000024325 T queuebuf_numfree
00000000000244ec T queuebuf_to_packetbuf
00000000000243f1 T queuebuf_update_attr_from_packetbuf
0000000000024434 T queuebuf_update_from_packetbuf
0000000000016fe9 T radio_LQI
0000000000016ffc t radio_lqi_last
0000000000017032 t radio_off
000000000001700f t radio_on
00000000000170cc t radio_read
0000000000022b28 t radio_read
00000000000171b4 t radio_send
0000000000016f8c T radio_set_channel
0000000000016fa6 T radio_set_txpower
0000000000016fd6 T radio_signal_strength_current

[CPU-intensive / large functions]
0000000000033cb5 000000000000056f t input
0000000000025a3f 00000000000005a4 t accept
00000000000299e0 0000000000000638 T rpl_icmp6_dio_output
000000000001ed48 0000000000000671 T icmp_out
00000000000292dc 0000000000000704 t dio_input
000000000002df70 0000000000000714 t cmd_rpl_status
000000000003a46e 0000000000000799 t tsch_rx_slot
000000000003fbbb 00000000000007c6 t ns_input
000000000006cc60 0000000000000800 b packet_memb_memb_mem
000000000006a960 0000000000000800 B simSerialReceivingData
0000000000039c52 000000000000081c t tsch_tx_slot
0000000000020aeb 00000000000009a7 t accept
0000000000025fe3 00000000000009ae t icmp_input
0000000000097ce0 0000000000000ab0 b packets_memb_memb_mem
000000000003287c 0000000000000e0b t uncompress_hdr_iphc
0000000000053000 0000000000000ec0 d _GLOBAL_OFFSET_TABLE_
000000000003193b 0000000000000f41 t compress_hdr_iphc
00000000000415f3 0000000000000f5d T uip_process
00000000000549c0 0000000000000fa0 B simCFSData
000000000001fb44 0000000000000fa7 t icmp_in
00000000000586c0 00000000000012c0 b _link_stats_mem
0000000000069600 00000000000012c0 b _rpl_neighbors_mem
0000000000062f60 00000000000012c0 b neighbor_addr_mem_memb_mem
00000000000002f0 0000000000001974 r __TMC_END__
0000000000067480 0000000000001ec0 b buffered_msgs
00000000000559c0 0000000000002000 B simLoggedData
0000000000059b60 00000000000021c0 b buffered_message_set
00000000000457d8 000000000000227c r __GNU_EH_FRAME_HDR
000000000005bfa0 00000000000023d0 b cooja_thread
0000000000060760 00000000000023d0 b process_run_thread
000000000005e380 00000000000023d0 b rtimer_thread
00000000000953c0 0000000000002580 b _ds6_neighbors_mem
00000000000648e0 0000000000002a80 b buframmem_memb_mem
0000000000098900 0000000000002ee0 b nodememb_memb_mem
000000000006d460 0000000000026ac0 b _tsch_neighbors_mem

[Power / performance related strings]
ctimer_set_with_process
ctimer_expired
ctimer_stop
clock_init
clock_time
clock_seconds
clock_delay
energest_total_time
compower_idle_activity
compower_init
compower_clear
compower_accumulate
energest_flush
cooja_radio_driver
rtimer_arch_init
etimer_process
ctimer_init
watchdog_init
queuebuf_init
simple_energest_init
watchdog_start
energest_current_mode
rtimer_arch_now
energest_current_time
simRadioHWOn
simPower
simRadioChannel
cooja_radio_process
radio_set_channel
radio_set_txpower
radio_signal_strength_last
radio_signal_strength_current
radio_LQI
packetbuf_set_attr
packetbuf_clear
packetbuf_dataptr
packetbuf_set_datalen
ctimer_process
etimer_set
ctimer_reset
etimer_reset
ctimer_restart
etimer_restart
etimer_stop
energest_get_total_time
packetbuf_addr
etimer_request_poll
etimer_reset_with_new_interval
etimer_adjust
etimer_expiration_time
etimer_start_time
etimer_pending
etimer_next_expiration_time
packetbuf_holds_broadcast
packetbuf_datalen
packetbuf_hdralloc
packetbuf_hdrptr
packetbuf_hdrreduce
packetbuf_set_addr
periodic_timer
trickle_timer_inconsistency
trickle_timer_config
trickle_timer_set
trickle_timer_consistency
rtimer_arch_check
simEtimerPending
simEtimerNextExpirationTime
nullradio_driver
packetbuf_attrs
packetbuf_addrs
packetbuf_attr_clear
packetbuf_copyfrom
packetbuf_copyto
packetbuf_totlen
packetbuf_hdrlen
packetbuf_remaininglen
packetbuf_attr_copyto
packetbuf_attr_copyfrom
simDontFallAsleep
queuebuf_numfree
queuebuf_new_from_packetbuf
queuebuf_update_attr_from_packetbuf
queuebuf_update_from_packetbuf
queuebuf_free
queuebuf_to_packetbuf
queuebuf_dataptr
queuebuf_datalen
queuebuf_addr
queuebuf_attr
queuebuf_debug_print
watchdog_periodic
rpl_timers_stop_dag_timers
rpl_timers_schedule_state_update
rpl_timers_dio_reset
rpl_timers_schedule_leaving
rpl_timers_unschedule_leaving
rpl_timers_schedule_dao
rpl_timers_schedule_periodic_dis
rpl_timers_schedule_dao_ack
rpl_timers_notify_dao_ack
rpl_timers_schedule_unicast_dio
get_probing_delay
rpl_timers_init
simRtimerPending
simRtimerNextExpirationTime
simRtimerCurrentTicks
rtimer_arch_schedule
rtimer_arch_next
rtimer_arch_pending
rtimer_run_next
rtimer_set
watchdog_reboot
simple_energest_process
stimer_reset
stimer_expired
stimer_restart
stimer_elapsed
uip_ds6_timer_periodic
timer_remaining
tsch_security_set_packetbuf_attr

[Busy-wait / delay / loop related disassembly samples]
0000000000012db0 <rpl_timers_notify_dao_ack@plt>:
   12db0:	f3 0f 1e fa          	endbr64
   12db4:	f2 ff 25 5d 02 04 00 	bnd jmp *0x4025d(%rip)        # 53018 <rpl_timers_notify_dao_ack@@Base+0x26efd>
   12dbb:	0f 1f 44 00 00       	nopl   0x0(%rax,%rax,1)

0000000000012dc0 <uip_icmp6_input@plt>:
   12dc0:	f3 0f 1e fa          	endbr64
   12dc4:	f2 ff 25 55 02 04 00 	bnd jmp *0x40255(%rip)        # 53020 <uip_icmp6_input@@Base+0x140a2>
   12dcb:	0f 1f 44 00 00       	nopl   0x0(%rax,%rax,1)

0000000000012dd0 <tsch_adaptive_timesync_get_drift_ppm@plt>:
   12dd0:	f3 0f 1e fa          	endbr64
   12dd4:	f2 ff 25 4d 02 04 00 	bnd jmp *0x4024d(%rip)        # 53028 <tsch_adaptive_timesync_get_drift_ppm@@Base+0x1cad9>
   12ddb:	0f 1f 44 00 00       	nopl   0x0(%rax,%rax,1)

0000000000012de0 <rpl_timers_schedule_dao@plt>:
   12de0:	f3 0f 1e fa          	endbr64
   12de4:	f2 ff 25 45 02 04 00 	bnd jmp *0x40245(%rip)        # 53030 <rpl_timers_schedule_dao@@Base+0x270e0>
   12deb:	0f 1f 44 00 00       	nopl   0x0(%rax,%rax,1)

0000000000012df0 <ringbuf_put@plt>:
   12df0:	f3 0f 1e fa          	endbr64
   12df4:	f2 ff 25 3d 02 04 00 	bnd jmp *0x4023d(%rip)        # 53038 <ringbuf_put@@Base+0x2e9a0>
   12dfb:	0f 1f 44 00 00       	nopl   0x0(%rax,%rax,1)

0000000000012e00 <gpio_hal_arch_no_port_pin_set_output@plt>:
   12e00:	f3 0f 1e fa          	endbr64
   12e04:	f2 ff 25 35 02 04 00 	bnd jmp *0x40235(%rip)        # 53040 <gpio_hal_arch_no_port_pin_set_output@@Base+0x374ef>
   12e0b:	0f 1f 44 00 00       	nopl   0x0(%rax,%rax,1)

0000000000012e10 <packetbuf_attr_copyto@plt>:
   12e10:	f3 0f 1e fa          	endbr64
   12e14:	f2 ff 25 2d 02 04 00 	bnd jmp *0x4022d(%rip)        # 53048 <packetbuf_attr_copyto@@Base+0x3010e>
   12e1b:	0f 1f 44 00 00       	nopl   0x0(%rax,%rax,1)

0000000000012e20 <uipbuf_get_last_header@plt>:
--
0000000000012e80 <rtimer_run_next@plt>:
   12e80:	f3 0f 1e fa          	endbr64
   12e84:	f2 ff 25 f5 01 04 00 	bnd jmp *0x401f5(%rip)        # 53080 <rtimer_run_next@@Base+0x25fff>
   12e8b:	0f 1f 44 00 00       	nopl   0x0(%rax,%rax,1)

0000000000012e90 <tsch_queue_reset@plt>:
   12e90:	f3 0f 1e fa          	endbr64
   12e94:	f2 ff 25 ed 01 04 00 	bnd jmp *0x401ed(%rip)        # 53088 <tsch_queue_reset@@Base+0x1b77d>
   12e9b:	0f 1f 44 00 00       	nopl   0x0(%rax,%rax,1)

0000000000012ea0 <tsch_queue_update_all_backoff_windows@plt>:
   12ea0:	f3 0f 1e fa          	endbr64
   12ea4:	f2 ff 25 e5 01 04 00 	bnd jmp *0x401e5(%rip)        # 53090 <tsch_queue_update_all_backoff_windows@@Base+0x1b3ee>
   12eab:	0f 1f 44 00 00       	nopl   0x0(%rax,%rax,1)

0000000000012eb0 <uiplib_ipaddr_snprint@plt>:
   12eb0:	f3 0f 1e fa          	endbr64
   12eb4:	f2 ff 25 dd 01 04 00 	bnd jmp *0x401dd(%rip)        # 53098 <uiplib_ipaddr_snprint@@Base+0x10109>
   12ebb:	0f 1f 44 00 00       	nopl   0x0(%rax,%rax,1)

0000000000012ec0 <uip_icmp6_echo_reply_callback_add@plt>:
--
0000000000012fa0 <rtimer_arch_init@plt>:
   12fa0:	f3 0f 1e fa          	endbr64
   12fa4:	f2 ff 25 65 01 04 00 	bnd jmp *0x40165(%rip)        # 53110 <rtimer_arch_init@@Base+0x261cf>
   12fab:	0f 1f 44 00 00       	nopl   0x0(%rax,%rax,1)

0000000000012fb0 <rpl_timers_schedule_periodic_dis@plt>:
   12fb0:	f3 0f 1e fa          	endbr64
   12fb4:	f2 ff 25 5d 01 04 00 	bnd jmp *0x4015d(%rip)        # 53118 <rpl_timers_schedule_periodic_dis@@Base+0x27724>
   12fbb:	0f 1f 44 00 00       	nopl   0x0(%rax,%rax,1)

0000000000012fc0 <uipbuf_get_len_field@plt>:
   12fc0:	f3 0f 1e fa          	endbr64
   12fc4:	f2 ff 25 55 01 04 00 	bnd jmp *0x40155(%rip)        # 53120 <uipbuf_get_len_field@@Base+0x10927>
   12fcb:	0f 1f 44 00 00       	nopl   0x0(%rax,%rax,1)

0000000000012fd0 <pthread_getattr_np@plt>:
   12fd0:	f3 0f 1e fa          	endbr64
   12fd4:	f2 ff 25 4d 01 04 00 	bnd jmp *0x4014d(%rip)        # 53128 <pthread_getattr_np@GLIBC_2.2.5>
   12fdb:	0f 1f 44 00 00       	nopl   0x0(%rax,%rax,1)

0000000000012fe0 <dbl_list_tail@plt>:
   12fe0:	f3 0f 1e fa          	endbr64
   12fe4:	f2 ff 25 45 01 04 00 	bnd jmp *0x40145(%rip)        # 53130 <dbl_list_tail@@Base+0x3acb0>
   12feb:	0f 1f 44 00 00       	nopl   0x0(%rax,%rax,1)

0000000000012ff0 <rpl_timers_stop_dag_timers@plt>:
   12ff0:	f3 0f 1e fa          	endbr64
   12ff4:	f2 ff 25 3d 01 04 00 	bnd jmp *0x4013d(%rip)        # 53138 <rpl_timers_stop_dag_timers@@Base+0x26af1>
   12ffb:	0f 1f 44 00 00       	nopl   0x0(%rax,%rax,1)

0000000000013000 <tsch_slot_operation_start@plt>:
   13000:	f3 0f 1e fa          	endbr64
   13004:	f2 ff 25 35 01 04 00 	bnd jmp *0x40135(%rip)        # 53140 <tsch_slot_operation_start@@Base+0x18003>
   1300b:	0f 1f 44 00 00       	nopl   0x0(%rax,%rax,1)

0000000000013010 <trickle_timer_config@plt>:
   13010:	f3 0f 1e fa          	endbr64
   13014:	f2 ff 25 2d 01 04 00 	bnd jmp *0x4012d(%rip)        # 53148 <trickle_timer_config@@Base+0x1cd6e>
   1301b:	0f 1f 44 00 00       	nopl   0x0(%rax,%rax,1)

0000000000013020 <crc16_add@plt>:
   13020:	f3 0f 1e fa          	endbr64
   13024:	f2 ff 25 25 01 04 00 	bnd jmp *0x40125(%rip)        # 53150 <crc16_add@@Base+0x3b772>
   1302b:	0f 1f 44 00 00       	nopl   0x0(%rax,%rax,1)

0000000000013030 <packetbuf_set_addr@plt>:
   13030:	f3 0f 1e fa          	endbr64
   13034:	f2 ff 25 1d 01 04 00 	bnd jmp *0x4011d(%rip)        # 53158 <packetbuf_set_addr@@Base+0x3013b>
   1303b:	0f 1f 44 00 00       	nopl   0x0(%rax,%rax,1)

0000000000013040 <strncmp@plt>:
   13040:	f3 0f 1e fa          	endbr64
   13044:	f2 ff 25 15 01 04 00 	bnd jmp *0x40115(%rip)        # 53160 <strncmp@GLIBC_2.2.5>
   1304b:	0f 1f 44 00 00       	nopl   0x0(%rax,%rax,1)

0000000000013050 <ctimer_stop@plt>:
   13050:	f3 0f 1e fa          	endbr64
   13054:	f2 ff 25 0d 01 04 00 	bnd jmp *0x4010d(%rip)        # 53168 <ctimer_stop@@Base+0x3b1f2>
   1305b:	0f 1f 44 00 00       	nopl   0x0(%rax,%rax,1)

0000000000013060 <tsch_queue_backoff_expired@plt>:
   13060:	f3 0f 1e fa          	endbr64
   13064:	f2 ff 25 05 01 04 00 	bnd jmp *0x40105(%rip)        # 53170 <tsch_queue_backoff_expired@@Base+0x1b58f>
   1306b:	0f 1f 44 00 00       	nopl   0x0(%rax,%rax,1)

0000000000013070 <radio_signal_strength_last@plt>:
   13070:	f3 0f 1e fa          	endbr64
   13074:	f2 ff 25 fd 00 04 00 	bnd jmp *0x400fd(%rip)        # 53178 <radio_signal_strength_last@@Base+0x3c1b5>
   1307b:	0f 1f 44 00 00       	nopl   0x0(%rax,%rax,1)

0000000000013080 <tsch_security_mic_len@plt>:
   13080:	f3 0f 1e fa          	endbr64
   13084:	f2 ff 25 f5 00 04 00 	bnd jmp *0x400f5(%rip)        # 53180 <tsch_security_mic_len@@Base+0x1a0b4>
   1308b:	0f 1f 44 00 00       	nopl   0x0(%rax,%rax,1)

0000000000013090 <uip_udp_packet_sendto@plt>:
--
00000000000130b0 <get_probing_delay@plt>:
   130b0:	f3 0f 1e fa          	endbr64
   130b4:	f2 ff 25 dd 00 04 00 	bnd jmp *0x400dd(%rip)        # 53198 <get_probing_delay@@Base+0x27008>
   130bb:	0f 1f 44 00 00       	nopl   0x0(%rax,%rax,1)

00000000000130c0 <uip_sr_is_addr_reachable@plt>:
   130c0:	f3 0f 1e fa          	endbr64
   130c4:	f2 ff 25 d5 00 04 00 	bnd jmp *0x400d5(%rip)        # 531a0 <uip_sr_is_addr_reachable@@Base+0x12ab3>
   130cb:	0f 1f 44 00 00       	nopl   0x0(%rax,%rax,1)

00000000000130d0 <mac_sequence_is_duplicate@plt>:
   130d0:	f3 0f 1e fa          	endbr64
   130d4:	f2 ff 25 cd 00 04 00 	bnd jmp *0x400cd(%rip)        # 531a8 <mac_sequence_is_duplicate@@Base+0x354ce>
   130db:	0f 1f 44 00 00       	nopl   0x0(%rax,%rax,1)

00000000000130e0 <ctimer_set_with_process@plt>:
   130e0:	f3 0f 1e fa          	endbr64
   130e4:	f2 ff 25 c5 00 04 00 	bnd jmp *0x400c5(%rip)        # 531b0 <ctimer_set_with_process@@Base+0x3b3d6>
   130eb:	0f 1f 44 00 00       	nopl   0x0(%rax,%rax,1)

00000000000130f0 <tsch_adaptive_timesync_reset@plt>:
   130f0:	f3 0f 1e fa          	endbr64
   130f4:	f2 ff 25 bd 00 04 00 	bnd jmp *0x400bd(%rip)        # 531b8 <tsch_adaptive_timesync_reset@@Base+0x1c8f8>
   130fb:	0f 1f 44 00 00       	nopl   0x0(%rax,%rax,1)

0000000000013100 <frame802154_extract_linkaddr@plt>:
   13100:	f3 0f 1e fa          	endbr64
   13104:	f2 ff 25 b5 00 04 00 	bnd jmp *0x400b5(%rip)        # 531c0 <frame802154_extract_linkaddr@@Base+0x396ae>
   1310b:	0f 1f 44 00 00       	nopl   0x0(%rax,%rax,1)

0000000000013110 <ringbufindex_peek_put@plt>:
   13110:	f3 0f 1e fa          	endbr64
   13114:	f2 ff 25 ad 00 04 00 	bnd jmp *0x400ad(%rip)        # 531c8 <ringbufindex_peek_put@@Base+0x2e938>
   1311b:	0f 1f 44 00 00       	nopl   0x0(%rax,%rax,1)

0000000000013120 <memb_init@plt>:
--
00000000000131e0 <ctimer_reset@plt>:
   131e0:	f3 0f 1e fa          	endbr64
   131e4:	f2 ff 25 45 00 04 00 	bnd jmp *0x40045(%rip)        # 53230 <ctimer_reset@@Base+0x3b39c>
   131eb:	0f 1f 44 00 00       	nopl   0x0(%rax,%rax,1)

00000000000131f0 <get_match_length@plt>:
   131f0:	f3 0f 1e fa          	endbr64

----------------------------------------
FILE: extra-firmwares/nullnet-broadcast.z1
TYPE: extra-firmwares/nullnet-broadcast.z1: ELF 32-bit LSB executable, TI msp430, version 1 (embedded), statically linked, with debug_info, not stripped

[Memory size / flash-RAM efficiency]
   text	   data	    bss	    dec	    hex	filename
  17866	    166	   2240	  20272	   4f30	extra-firmwares/nullnet-broadcast.z1

[Power / performance related symbols]
00003100 W __watchdog_support
00004c04 t add_timer
0000199e b bufmem_memb_mem
000019f3 b bufmem_memb_used
0000144e b buframmem_memb_mem
000019eb b buframmem_memb_used
00003e32 t cc2420_cca
0000405e T cc2420_get_txpower
00001a06 B cc2420_last_rssi
0000407c T cc2420_rssi
000041e2 T cc2420_set_cca_threshold
00004032 T cc2420_set_txpower
0000350a T cc2420_timerb1_interrupt
0000446e T clock_delay
00004446 T clock_init
0000442c T clock_time
0000447a T clock_wait
00004a28 T ctimer_init
00001292 b ctimer_list_list
00001130 D ctimer_process
00004a8a T ctimer_set
00004a40 T ctimer_set_with_process
00004a9a T ctimer_stop
000011ba b debouncetimer
00004ac4 T energest_flush
00004ac2 T energest_init
00004c68 T etimer_expired
00004c82 T etimer_next_expiration_time
00004c76 T etimer_pending
0000113c D etimer_process
00004b36 T etimer_request_poll
00004c56 T etimer_reset
00004c44 T etimer_set
00004c98 T etimer_stop
00005488 T i2c_busy
000057ca T memb_alloc
00005808 T memb_free
00005794 T memb_init
0000583a T memb_inmemb
00001128 d metadata_memb
00001252 b metadata_memb_memb_mem
000019d9 b metadata_memb_memb_used
00001412 b mgt_timer
00005904 T msp430_cpu_init
00001118 d neighbor_memb
000011d6 b neighbor_memb_memb_mem
000019cf b neighbor_memb_memb_used
000019ae b next_rtimer
00007370 r output_power
00001120 d packet_memb
00001222 b packet_memb_memb_mem
000019d1 b packet_memb_memb_used
00005cf8 T packetbuf_addr
00001a2e B packetbuf_addrs
00001392 b packetbuf_aligned
00005cda T packetbuf_attr
00005c24 T packetbuf_attr_clear
00005caa T packetbuf_attr_copyfrom
00005c88 T packetbuf_attr_copyto
00001a3e B packetbuf_attrs
00005c4c T packetbuf_clear
00005c5e T packetbuf_copyfrom
00005ba2 T packetbuf_copyto
00005b86 T packetbuf_datalen
00005b96 T packetbuf_dataptr
00005be8 T packetbuf_hdralloc
00005b8c T packetbuf_hdrlen
00005b80 T packetbuf_hdrptr
00005b60 T packetbuf_hdrreduce
00005d06 T packetbuf_holds_broadcast
00005ce4 T packetbuf_set_addr
00005cce T packetbuf_set_attr
00005b7a T packetbuf_set_datalen
00005bdc T packetbuf_totlen
0000137e b periodic_timer.2287
00005e6e T platform_idle
00004988 t process_thread_ctimer_process
00004b40 t process_thread_etimer_process
0000619a T queuebuf_free
00006128 T queuebuf_init
0000613a T queuebuf_new_from_packetbuf
000061c4 T queuebuf_to_packetbuf
00006188 T queuebuf_update_attr_from_packetbuf
00006202 T rtimer_arch_init
00006210 T rtimer_arch_now
0000621e T rtimer_arch_schedule
00006224 T rtimer_init
0000622a T rtimer_run_next
000011a4 d send_on_cca
00003cca t set_auto_ack
000011aa b suppressTimer1
000011b2 b suppressTimer2
000064de T timer_expired
00006508 T timer_reset
000064c2 T timer_set
00003698 T timera0
00003530 T timera1
00001294 b timerlist
00003bc0 t wait_for_status
00003b9e t wait_for_transmission
00006716 t wait_ready
00006704 T watchdog_init
000036e4 T watchdog_interrupt
000066dc T watchdog_periodic
000066c8 T watchdog_start
000066ee T watchdog_stop

[CPU-intensive / large functions]
00001392 00000080 b packetbuf_aligned
00003600 00000084 T i2c_tx_interrupt
0000344a 00000084 T port1_isr
000056fa 00000086 T mac_sequence_register_seqno
00004510 00000086 t tx_done
00005f02 00000088 t exit_process
0000677a 00000088 T xmem_pread
00005000 0000008c T frame802154_parse_fcf
00005fe4 0000008c T process_run
00005336 0000009e t create_frame
000051e8 0000009e t parse
00004988 000000a0 t process_thread_ctimer_process
00004dbc 000000a8 t field_len
00005286 000000b0 T framer_802154_setup_params
000059a0 000000b2 t process_thread_nullnet_example_process
00003e86 000000ba t cc2420_read
00006250 000000c2 t process_thread_sensors_process
00004b40 000000c4 t process_thread_etimer_process
00003530 000000d0 T timera1
000063f0 000000d2 t process_thread_stack_check_process
00004f2c 000000d4 T frame802154_create
00005d26 000000d6 T platform_init_stage_two
00004cdc 000000e0 T frame802154_has_panid
0000129a 000000e0 b received_seqnos
00007152 000000e8 T memcpy
00004342 000000ea T cc2420_init
000040c4 0000011e t get_value
00004746 00000148 T csma_output_packet
000041f8 0000014a t set_value
0000508c 0000015c T frame802154_parse
00006812 00000176 t print_field
00004596 000001b0 t transmit_from_queue
0000313e 000001c4 T main
0000144e 00000550 b buframmem_memb_mem
00006988 00000742 T vuprintf

[Power / performance related strings]
Ctimer process
Event timer

[Busy-wait / delay / loop related disassembly samples]
00003100 <__watchdog_support>:
    3100:	55 42 20 01 	mov.b	&0x0120,r5	
    3104:	35 d0 08 5a 	bis	#23048,	r5	;#0x5a08
    3108:	82 45 64 1a 	mov	r5,	&0x1a64	

0000310c <__init_stack>:
    310c:	31 40 00 31 	mov	#12544,	r1	;#0x3100

00003110 <__do_copy_data>:
    3110:	3f 40 a6 00 	mov	#166,	r15	;#0x00a6
    3114:	0f 93       	tst	r15		
    3116:	08 24       	jz	$+18     	;abs 0x3128
    3118:	92 42 64 1a 	mov	&0x1a64,&0x0120	
    311c:	20 01 
    311e:	2f 83       	decd	r15		
    3120:	9f 4f 8c 76 	mov	30348(r15),4352(r15);0x768c(r15), 0x1100(r15)
    3124:	00 11 
    3126:	f8 23       	jnz	$-14     	;abs 0x3118

--
0000350a <cc2420_timerb1_interrupt>:
    350a:	0f 14       	pushm.a	#1,	r15	
    350c:	1f 42 1e 01 	mov	&0x011e,r15	
    3510:	e2 b3 1c 00 	bit.b	#2,	&0x001c	;r3 As==10
    3514:	06 24       	jz	$+14     	;abs 0x3522
    3516:	d2 53 0e 1a 	inc.b	&0x1a0e	
    351a:	92 42 94 01 	mov	&0x0194,&0x1a08	
    351e:	08 1a 
    3520:	05 3c       	jmp	$+12     	;abs 0x352c
    3522:	c2 43 0e 1a 	mov.b	#0,	&0x1a0e	;r3 As==00
    3526:	92 42 94 01 	mov	&0x0194,&0x1a10	
    352a:	10 1a 
    352c:	0f 16       	popm.a	#1,	r15	
    352e:	00 13       	reti			

00003530 <timera1>:
    3530:	3f 14       	pushm.a	#4,	r15	
    3532:	b0 13 c8 66 	calla	#0x066c8	
    3536:	1f 42 2e 01 	mov	&0x012e,r15	
    353a:	2f 93       	cmp	#2,	r15	;r3 As==10
    353c:	5d 20       	jnz	$+188    	;abs 0x35f8
    353e:	b2 b0 20 00 	bit	#32,	&0x0160	;#0x0020
    3542:	60 01 
    3544:	0b 24       	jz	$+24     	;abs 0x355c
    3546:	1e 42 74 01 	mov	&0x0174,r14	
    354a:	1f 42 70 01 	mov	&0x0170,r15	
    354e:	1d 42 70 01 	mov	&0x0170,r13	
    3552:	0f 9d       	cmp	r13,	r15	
    3554:	fa 23       	jnz	$-10     	;abs 0x354a
    3556:	0e 8f       	sub	r15,	r14	
    3558:	1e 93       	cmp	#1,	r14	;r3 As==01
    355a:	f1 27       	jz	$-28     	;abs 0x353e
    355c:	1f 42 70 01 	mov	&0x0170,r15	
    3560:	1e 42 70 01 	mov	&0x0170,r14	
--
00003698 <timera0>:
    3698:	3f 14       	pushm.a	#4,	r15	
    369a:	b0 13 c8 66 	calla	#0x066c8	
    369e:	b0 13 2a 62 	calla	#0x0622a	
    36a2:	b0 13 70 60 	calla	#0x06070	
    36a6:	0f 93       	tst	r15		
    36a8:	04 24       	jz	$+10     	;abs 0x36b2
    36aa:	03 38       	jl	$+8      	;abs 0x36b2
    36ac:	b1 c0 f0 00 	bic	#240,	16(r1)	;#0x00f0, 0x0010(r1)
    36b0:	10 00 
    36b2:	b0 13 ee 66 	calla	#0x066ee	
    36b6:	3c 16       	popm.a	#4,	r15	
    36b8:	00 13       	reti			

000036ba <uart0_rx_interrupt>:
    36ba:	3f 14       	pushm.a	#4,	r15	
    36bc:	e2 b2 65 00 	bit.b	#4,	&0x0065	;r2 As==10
    36c0:	03 24       	jz	$+8      	;abs 0x36c8
    36c2:	5f 42 66 00 	mov.b	&0x0066,r15	
--
000036e4 <watchdog_interrupt>:
    36e4:	82 43 20 01 	mov	#0,	&0x0120	;r3 As==00
    36e8:	00 13       	reti			

000036ea <status>:
    36ea:	3f 50 7f ff 	add	#-129,	r15	;#0xff7f
    36ee:	2f 93       	cmp	#2,	r15	;r3 As==10
    36f0:	03 2c       	jc	$+8      	;abs 0x36f8
    36f2:	5f 42 c8 19 	mov.b	&0x19c8,r15	
    36f6:	10 01       	reta			
    36f8:	0f 43       	clr	r15		
    36fa:	10 01       	reta			

000036fc <accm_write_reg>:
    36fc:	21 83       	decd	r1		
    36fe:	c1 4f 00 00 	mov.b	r15,	0(r1)	;0x0000(r1)
    3702:	c1 4e 01 00 	mov.b	r14,	1(r1)	;0x0001(r1)
    3706:	7f 40 53 00 	mov.b	#83,	r15	;#0x0053
    370a:	b0 13 1a 54 	calla	#0x0541a	
--
00003b9e <wait_for_transmission>:
    3b9e:	0b 14       	pushm.a	#1,	r11	
    3ba0:	b0 13 10 62 	calla	#0x06210	
    3ba4:	3b 40 34 f3 	mov	#-3276,	r11	;#0xf334
    3ba8:	0b 8f       	sub	r15,	r11	
    3baa:	b0 13 52 3b 	calla	#0x03b52	
    3bae:	7f f2       	and.b	#8,	r15	;r2 As==11
    3bb0:	05 24       	jz	$+12     	;abs 0x3bbc
    3bb2:	b0 13 10 62 	calla	#0x06210	
    3bb6:	0f 5b       	add	r11,	r15	
    3bb8:	0f 93       	tst	r15		
    3bba:	f7 3b       	jl	$-16     	;abs 0x3baa
    3bbc:	0b 16       	popm.a	#1,	r11	
    3bbe:	10 01       	reta			

00003bc0 <wait_for_status>:
    3bc0:	1b 14       	pushm.a	#2,	r11	
    3bc2:	4a 4f       	mov.b	r15,	r10	
    3bc4:	b0 13 10 62 	calla	#0x06210	
    3bc8:	3b 40 34 f3 	mov	#-3276,	r11	;#0xf334
    3bcc:	0b 8f       	sub	r15,	r11	
    3bce:	b0 13 52 3b 	calla	#0x03b52	
    3bd2:	4f ba       	bit.b	r10,	r15	
    3bd4:	05 20       	jnz	$+12     	;abs 0x3be0
    3bd6:	b0 13 10 62 	calla	#0x06210	
    3bda:	0f 5b       	add	r11,	r15	
    3bdc:	0f 93       	tst	r15		
    3bde:	f7 3b       	jl	$-16     	;abs 0x3bce
    3be0:	1a 16       	popm.a	#2,	r11	
    3be2:	10 01       	reta			

00003be4 <getrxdata>:
    3be4:	0b 14       	pushm.a	#1,	r11	
    3be6:	d2 c3 19 00 	bic.b	#1,	&0x0019	;r3 As==01
--
00004032 <cc2420_set_txpower>:
    4032:	0b 14       	pushm.a	#1,	r11	
    4034:	4b 4f       	mov.b	r15,	r11	
    4036:	d2 53 ca 19 	inc.b	&0x19ca	
    403a:	3f 40 15 00 	mov	#21,	r15	;#0x0015
    403e:	b0 13 1e 3a 	calla	#0x03a1e	
    4042:	3f f0 e0 ff 	and	#-32,	r15	;#0xffe0
    4046:	0e 4b       	mov	r11,	r14	
    4048:	3e f0 1f 00 	and	#31,	r14	;#0x001f
    404c:	0e df       	bis	r15,	r14	
    404e:	3f 40 15 00 	mov	#21,	r15	;#0x0015
    4052:	b0 13 64 3a 	calla	#0x03a64	
    4056:	b0 13 72 3c 	calla	#0x03c72	
    405a:	0b 16       	popm.a	#1,	r11	
    405c:	10 01       	reta			

0000405e <cc2420_get_txpower>:
    405e:	0b 14       	pushm.a	#1,	r11	
    4060:	d2 53 ca 19 	inc.b	&0x19ca	
    4064:	3f 40 15 00 	mov	#21,	r15	;#0x0015
    4068:	b0 13 1e 3a 	calla	#0x03a1e	
    406c:	0b 4f       	mov	r15,	r11	
    406e:	b0 13 72 3c 	calla	#0x03c72	
    4072:	0f 4b       	mov	r11,	r15	
    4074:	3f f0 1f 00 	and	#31,	r15	;#0x001f
    4078:	0b 16       	popm.a	#1,	r11	
    407a:	10 01       	reta			

0000407c <cc2420_rssi>:
    407c:	1b 14       	pushm.a	#2,	r11	
    407e:	c2 93 ca 19 	tst.b	&0x19ca	
    4082:	1c 20       	jnz	$+58     	;abs 0x40bc
    4084:	d2 43 ca 19 	mov.b	#1,	&0x19ca	;r3 As==01
    4088:	c2 93 cd 19 	tst.b	&0x19cd	
    408c:	04 20       	jnz	$+10     	;abs 0x4096
--
0000446e <clock_delay>:
    446e:	02 3c       	jmp	$+6      	;abs 0x4474
    4470:	03 43       	nop			
    4472:	3f 53       	add	#-1,	r15	;r3 As==11
    4474:	0f 93       	tst	r15		
    4476:	fc 23       	jnz	$-6      	;abs 0x4470
    4478:	10 01       	reta			

0000447a <clock_wait>:
    447a:	3b 14       	pushm.a	#4,	r11	
    447c:	08 4e       	mov	r14,	r8	
    447e:	09 4f       	mov	r15,	r9	
    4480:	b0 13 2c 44 	calla	#0x0442c	
    4484:	0a 4e       	mov	r14,	r10	

----------------------------------------
FILE: extra-firmwares/nullnet-unicast-u50.sky
TYPE: extra-firmwares/nullnet-unicast-u50.sky: ELF 32-bit LSB executable, TI msp430, version 1 (embedded), statically linked, with debug_info, not stripped

[Memory size / flash-RAM efficiency]
   text	   data	    bss	    dec	    hex	filename
  17793	    310	   2814	  20917	   51b5	extra-firmwares/nullnet-unicast-u50.sky

[Power / performance related symbols]
00004000 W __watchdog_support
00005a46 t add_timer
00001adc b bufmem_memb_mem
00001ad4 b bufmem_memb_used
00001584 b buframmem_memb_mem
0000157c b buframmem_memb_used
000048c8 t cc2420_cca
00004b96 T cc2420_get_txpower
00001ca8 B cc2420_last_rssi
00004bb4 T cc2420_rssi
00004d1e T cc2420_set_cca_threshold
00004b6a T cc2420_set_txpower
000042fa T cc2420_timerb1_interrupt
0000508c T clock_delay
00005064 T clock_init
0000504a T clock_time
00005632 T ctimer_init
00001316 b ctimer_list_list
00001124 D ctimer_process
00005694 T ctimer_reset
00005646 T ctimer_set_with_process
000056c4 T ctimer_stop
00001236 b debouncetimer
00001cdc B energest_current_mode
00001ce2 B energest_current_time
0000589c T energest_flush
0000585c T energest_init
000045fe t energest_off
000045b6 t energest_on
00006b00 t energest_switch
00001cb4 B energest_total_time
00005ab6 T etimer_next_expiration_time
00005aaa T etimer_pending
0000112e D etimer_process
00005970 T etimer_request_poll
00005a98 T etimer_reset
00005a86 T etimer_set
00005acc T etimer_stop
00007486 t handle_rxdma_timer
0000657e T memb_alloc
000065bc T memb_free
00006548 T memb_init
000065ee T memb_inmemb
0000111c d metadata_memb
000012e4 b metadata_memb_memb_mem
000012dc b metadata_memb_memb_used
000014b0 b mgt_timer
0000669a T msp430_add_lpm_req
000066a6 T msp430_cpu_init
0000110c d neighbor_memb
0000125c b neighbor_memb_memb_mem
0000125a b neighbor_memb_memb_used
00001aec b next_rtimer
0000826e r output_power
00001114 d packet_memb
000012ac b packet_memb_memb_mem
000012a4 b packet_memb_memb_used
00006ae0 T packetbuf_addr
00001cfa B packetbuf_addrs
00001430 b packetbuf_aligned
00006ac0 T packetbuf_attr
00006a08 T packetbuf_attr_clear
00006a92 T packetbuf_attr_copyfrom
00006a70 T packetbuf_attr_copyto
00001d0a B packetbuf_attrs
00006a30 T packetbuf_clear
00006a42 T packetbuf_copyfrom
0000697a T packetbuf_copyto
0000695e T packetbuf_datalen
0000696e T packetbuf_dataptr
000069cc T packetbuf_hdralloc
00006964 T packetbuf_hdrlen
00006958 T packetbuf_hdrptr
00006938 T packetbuf_hdrreduce
00006af2 T packetbuf_holds_broadcast
00006aca T packetbuf_set_addr
00006ab6 T packetbuf_set_attr
00006952 T packetbuf_set_datalen
000069c0 T packetbuf_totlen
0000141c b periodic_timer.2697
00006c78 T platform_idle
00005598 t process_thread_ctimer_process
0000597a t process_thread_etimer_process
00006fb8 T queuebuf_free
00006f42 T queuebuf_init
00006f54 T queuebuf_new_from_packetbuf
00006fe2 T queuebuf_to_packetbuf
00006fa6 T queuebuf_update_attr_from_packetbuf
000070b6 T rtimer_arch_init
000070c4 T rtimer_arch_now
000070d2 T rtimer_run_next
00001c0e b rxdma_timer
0000110a d send_on_cca
00007430 T timer_expired
0000745a T timer_reset
00007414 T timer_set
0000708a T timera0
00004f6e T timera1
00001318 b timerlist
00004524 t wait_for_status
00004502 t wait_for_transmission
0000764a T watchdog_init
00007608 T watchdog_interrupt
00007622 T watchdog_periodic
0000760e T watchdog_start
00007634 T watchdog_stop

[CPU-intensive / large functions]
000064b8 00000090 T mac_sequence_register_seqno
00007384 00000090 t process_thread_stack_check_process
00005cf4 00000096 T frame802154_create_fcf
00006d22 00000098 t exit_process
0000510c 00000098 t tx_done
00005598 0000009a t process_thread_ctimer_process
000045fe 0000009c t energest_off
000061d8 000000a2 t create_frame
00006080 000000a2 t parse
000071d6 000000a4 t process_thread_serial_line_process
00005bf0 000000aa t field_len
00006122 000000b6 T framer_802154_setup_params
00006746 000000ba t process_thread_nullnet_example_process
00005e5c 000000bc T frame802154_parse_fcf
00004930 000000be t cc2420_read
000014bc 000000c0 b events
000070ea 000000c2 t process_thread_sensors_process
0000597a 000000cc t process_thread_etimer_process
00005d8a 000000d2 T frame802154_create
00004f6e 000000dc T timera1
00005b10 000000e0 T frame802154_has_panid
00001338 000000e0 b received_seqnos
00004e84 000000ea T cc2420_init
00007514 000000f4 T uart1_init
00007f06 000000fa T memcpy
00004c00 0000011e t get_value
0000573c 00000120 T ds2411_init
00005360 00000146 T csma_output_packet
00004d34 00000150 t set_value
00005f18 00000168 T frame802154_parse
000076a8 00000194 t print_field
000051a4 000001bc t transmit_from_queue
0000403e 000001d8 T main
00001584 00000550 b buframmem_memb_mem
0000783c 0000063e T vuprintf

[Power / performance related strings]
recv fr:%u:rssi:%d:as:%d:
Ctimer process
Event timer

[Busy-wait / delay / loop related disassembly samples]
00004000 <__watchdog_support>:
    4000:	55 42 20 01 	mov.b	&0x0120,r5	
    4004:	35 d0 08 5a 	bis	#23048,	r5	;#0x5a08
    4008:	82 45 32 1d 	mov	r5,	&0x1d32	

0000400c <__init_stack>:
    400c:	31 40 00 39 	mov	#14592,	r1	;#0x3900

00004010 <__do_copy_data>:
    4010:	3f 40 36 01 	mov	#310,	r15	;#0x0136
    4014:	0f 93       	tst	r15		
    4016:	08 24       	jz	$+18     	;abs 0x4028
    4018:	92 42 32 1d 	mov	&0x1d32,&0x0120	
    401c:	20 01 
    401e:	2f 83       	decd	r15		
    4020:	9f 4f 64 85 	mov	-31388(r15),4352(r15);0x8564(r15), 0x1100(r15)
    4024:	00 11 
    4026:	f8 23       	jnz	$-14     	;abs 0x4018

--
000042fa <cc2420_timerb1_interrupt>:
    42fa:	0f 12       	push	r15		
    42fc:	1f 42 1e 01 	mov	&0x011e,r15	
    4300:	e2 b3 1c 00 	bit.b	#2,	&0x001c	;r3 As==10
    4304:	06 24       	jz	$+14     	;abs 0x4312
    4306:	d2 53 b0 1c 	inc.b	&0x1cb0	
    430a:	92 42 94 01 	mov	&0x0194,&0x1caa	
    430e:	aa 1c 
    4310:	05 3c       	jmp	$+12     	;abs 0x431c
    4312:	c2 43 b0 1c 	mov.b	#0,	&0x1cb0	;r3 As==00
    4316:	92 42 94 01 	mov	&0x0194,&0x1cb2	
    431a:	b2 1c 
    431c:	3f 41       	pop	r15		
    431e:	00 13       	reti			

00004320 <cc2420_port1_interrupt>:
    4320:	0f 12       	push	r15		
    4322:	0e 12       	push	r14		
    4324:	0d 12       	push	r13		
--
00004502 <wait_for_transmission>:
    4502:	0b 12       	push	r11		
    4504:	b0 12 c4 70 	call	#0x70c4	
    4508:	3b 40 34 f3 	mov	#-3276,	r11	;#0xf334
    450c:	0b 8f       	sub	r15,	r11	
    450e:	b0 12 ce 44 	call	#0x44ce	
    4512:	7f f2       	and.b	#8,	r15	;r2 As==11
    4514:	05 24       	jz	$+12     	;abs 0x4520
    4516:	b0 12 c4 70 	call	#0x70c4	
    451a:	0f 5b       	add	r11,	r15	
    451c:	0f 93       	tst	r15		
    451e:	f7 3b       	jl	$-16     	;abs 0x450e
    4520:	3b 41       	pop	r11		
    4522:	30 41       	ret			

00004524 <wait_for_status>:
    4524:	0b 12       	push	r11		
    4526:	0a 12       	push	r10		
    4528:	4a 4f       	mov.b	r15,	r10	
    452a:	b0 12 c4 70 	call	#0x70c4	
    452e:	3b 40 34 f3 	mov	#-3276,	r11	;#0xf334
    4532:	0b 8f       	sub	r15,	r11	
    4534:	b0 12 ce 44 	call	#0x44ce	
    4538:	4f ba       	bit.b	r10,	r15	
    453a:	05 20       	jnz	$+12     	;abs 0x4546
    453c:	b0 12 c4 70 	call	#0x70c4	
    4540:	0f 5b       	add	r11,	r15	
    4542:	0f 93       	tst	r15		
    4544:	f7 3b       	jl	$-16     	;abs 0x4534
    4546:	3a 41       	pop	r10		
    4548:	3b 41       	pop	r11		
    454a:	30 41       	ret			

0000454c <getrxdata>:
--
00004b6a <cc2420_set_txpower>:
    4b6a:	0b 12       	push	r11		
    4b6c:	4b 4f       	mov.b	r15,	r11	
    4b6e:	d2 53 42 12 	inc.b	&0x1242	
    4b72:	3f 40 15 00 	mov	#21,	r15	;#0x0015
    4b76:	b0 12 7e 43 	call	#0x437e	
    4b7a:	3f f0 e0 ff 	and	#-32,	r15	;#0xffe0
    4b7e:	0e 4b       	mov	r11,	r14	
    4b80:	3e f0 1f 00 	and	#31,	r14	;#0x001f
    4b84:	0e df       	bis	r15,	r14	
    4b86:	3f 40 15 00 	mov	#21,	r15	;#0x0015
    4b8a:	b0 12 ca 43 	call	#0x43ca	
    4b8e:	b0 12 c8 46 	call	#0x46c8	
    4b92:	3b 41       	pop	r11		
    4b94:	30 41       	ret			

00004b96 <cc2420_get_txpower>:
    4b96:	0b 12       	push	r11		
    4b98:	d2 53 42 12 	inc.b	&0x1242	
    4b9c:	3f 40 15 00 	mov	#21,	r15	;#0x0015
    4ba0:	b0 12 7e 43 	call	#0x437e	
    4ba4:	0b 4f       	mov	r15,	r11	
    4ba6:	b0 12 c8 46 	call	#0x46c8	
    4baa:	0f 4b       	mov	r11,	r15	
    4bac:	3f f0 1f 00 	and	#31,	r15	;#0x001f
    4bb0:	3b 41       	pop	r11		
    4bb2:	30 41       	ret			

00004bb4 <cc2420_rssi>:
    4bb4:	0b 12       	push	r11		
    4bb6:	0a 12       	push	r10		
    4bb8:	c2 93 42 12 	tst.b	&0x1242	
    4bbc:	1c 20       	jnz	$+58     	;abs 0x4bf6
    4bbe:	d2 43 42 12 	mov.b	#1,	&0x1242	;r3 As==01
    4bc2:	c2 93 45 12 	tst.b	&0x1245	
--
00004f6e <timera1>:
    4f6e:	0f 12       	push	r15		
    4f70:	0e 12       	push	r14		
    4f72:	0d 12       	push	r13		
    4f74:	0c 12       	push	r12		
    4f76:	b0 12 0e 76 	call	#0x760e	
    4f7a:	1f 42 2e 01 	mov	&0x012e,r15	
    4f7e:	2f 93       	cmp	#2,	r15	;r3 As==10
    4f80:	5d 20       	jnz	$+188    	;abs 0x503c
    4f82:	b2 b0 20 00 	bit	#32,	&0x0160	;#0x0020
    4f86:	60 01 
    4f88:	0b 24       	jz	$+24     	;abs 0x4fa0
    4f8a:	1e 42 74 01 	mov	&0x0174,r14	
    4f8e:	1f 42 70 01 	mov	&0x0170,r15	
    4f92:	1d 42 70 01 	mov	&0x0170,r13	
    4f96:	0f 9d       	cmp	r13,	r15	
    4f98:	fa 23       	jnz	$-10     	;abs 0x4f8e
    4f9a:	0e 8f       	sub	r15,	r14	
    4f9c:	1e 93       	cmp	#1,	r14	;r3 As==01
--
0000508c <clock_delay>:
    508c:	02 3c       	jmp	$+6      	;abs 0x5092
    508e:	03 43       	nop			
    5090:	3f 53       	add	#-1,	r15	;r3 As==11
    5092:	0f 93       	tst	r15		
    5094:	fc 23       	jnz	$-6      	;abs 0x508e
    5096:	30 41       	ret			

00005098 <schedule_transmission>:
    5098:	0b 12       	push	r11		
    509a:	0a 12       	push	r10		
    509c:	09 12       	push	r9		
    509e:	09 4f       	mov	r15,	r9	
    50a0:	5e 4f 1f 00 	mov.b	31(r15),r14	;0x001f(r15)
    50a4:	2e 93       	cmp	#2,	r14	;r3 As==10
    50a6:	03 34       	jge	$+8      	;abs 0x50ae
    50a8:	3e 50 03 00 	add	#3,	r14	;#0x0003
    50ac:	02 3c       	jmp	$+6      	;abs 0x50b2
    50ae:	3e 40 05 00 	mov	#5,	r14	;#0x0005
--
00005598 <process_thread_ctimer_process>:
    5598:	0b 12       	push	r11		
    559a:	0a 12       	push	r10		
    559c:	09 12       	push	r9		
    559e:	0a 4f       	mov	r15,	r10	
    55a0:	2f 4f       	mov	@r15,	r15	
    55a2:	0f 93       	tst	r15		
    55a4:	04 24       	jz	$+10     	;abs 0x55ae
    55a6:	3f 90 45 00 	cmp	#69,	r15	;#0x0045
    55aa:	34 20       	jnz	$+106    	;abs 0x5614
    55ac:	3a 3c       	jmp	$+118    	;abs 0x5622
    55ae:	1b 42 16 13 	mov	&0x1316,r11	
    55b2:	09 3c       	jmp	$+20     	;abs 0x55c6
    55b4:	1d 4b 06 00 	mov	6(r11),	r13	;0x0006(r11)
    55b8:	1e 4b 08 00 	mov	8(r11),	r14	;0x0008(r11)
    55bc:	0f 4b       	mov	r11,	r15	
    55be:	2f 53       	incd	r15		
    55c0:	b0 12 86 5a 	call	#0x5a86	
    55c4:	2b 4b       	mov	@r11,	r11	
--
00005632 <ctimer_init>:
    5632:	c2 43 14 13 	mov.b	#0,	&0x1314	;r3 As==00
    5636:	82 43 16 13 	mov	#0,	&0x1316	;r3 As==00
    563a:	0e 43       	clr	r14		
    563c:	3f 40 24 11 	mov	#4388,	r15	;#0x1124
    5640:	b0 12 f4 6e 	call	#0x6ef4	
    5644:	30 41       	ret			

00005646 <ctimer_set_with_process>:

----------------------------------------
FILE: extra-firmwares/nullnet-unicast.sky
TYPE: extra-firmwares/nullnet-unicast.sky: ELF 32-bit LSB executable, TI msp430, version 1 (embedded), statically linked, with debug_info, not stripped

[Memory size / flash-RAM efficiency]
   text	   data	    bss	    dec	    hex	filename
  29171	   4426	   3086	  36683	   8f4b	extra-firmwares/nullnet-unicast.sky

[Power / performance related symbols]
00004000 W __watchdog_support
000058f6 t add_timer
00002c0e b bufmem_memb_mem
00002c06 b bufmem_memb_used
000026b6 b buframmem_memb_mem
000026ae b buframmem_memb_used
000047c6 t cc2420_cca
00004a94 T cc2420_get_txpower
00002dde B cc2420_last_rssi
00004ab2 T cc2420_rssi
00004c1c T cc2420_set_cca_threshold
00004a68 T cc2420_set_txpower
000042ec T cc2420_timerb1_interrupt
00004f8a T clock_delay
00004f62 T clock_init
00004f48 T clock_time
00005566 T ctimer_init
0000232a b ctimer_list_list
00001128 D ctimer_process
000055dc T ctimer_reset
000055cc T ctimer_set
0000557e T ctimer_set_with_process
0000560c T ctimer_stop
0000224a b debouncetimer
000057a6 T energest_flush
000057a4 T energest_init
0000595a T etimer_expired
00005974 T etimer_next_expiration_time
00005968 T etimer_pending
00001132 D etimer_process
00005820 T etimer_request_poll
00005948 T etimer_reset
00005936 T etimer_set
0000598a T etimer_stop
00007cf0 t handle_rxdma_timer
00006488 T memb_alloc
000064c6 T memb_free
00006452 T memb_init
000064f8 T memb_inmemb
00001120 d metadata_memb
000022f8 b metadata_memb_memb_mem
000022f0 b metadata_memb_memb_used
000025de b mgt_timer
000065a4 T msp430_add_lpm_req
000065b0 T msp430_cpu_init
00001110 d neighbor_memb
00002270 b neighbor_memb_memb_mem
0000226e b neighbor_memb_memb_used
00002c1e b next_rtimer
0000ab8e r output_power
00001118 d packet_memb
000022c0 b packet_memb_memb_mem
000022b8 b packet_memb_memb_used
00007334 T packetbuf_addr
00002e22 B packetbuf_addrs
0000255e b packetbuf_aligned
00007312 T packetbuf_attr
00007258 T packetbuf_attr_clear
000072e2 T packetbuf_attr_copyfrom
000072c0 T packetbuf_attr_copyto
00002e32 B packetbuf_attrs
00007280 T packetbuf_clear
00007292 T packetbuf_copyfrom
000071ca T packetbuf_copyto
000071ae T packetbuf_datalen
000071be T packetbuf_dataptr
0000721c T packetbuf_hdralloc
000071b4 T packetbuf_hdrlen
000071a8 T packetbuf_hdrptr
00007188 T packetbuf_hdrreduce
00007346 T packetbuf_holds_broadcast
0000731c T packetbuf_set_addr
00007306 T packetbuf_set_attr
000071a2 T packetbuf_set_datalen
00007210 T packetbuf_totlen
00002548 b periodic_timer.3213
00007454 T platform_idle
000054be t process_thread_ctimer_process
0000582a t process_thread_etimer_process
00007792 T queuebuf_free
0000771c T queuebuf_init
0000772e T queuebuf_new_from_packetbuf
000077bc T queuebuf_to_packetbuf
00007780 T queuebuf_update_attr_from_packetbuf
00002454 B rssiList
000078a6 T rtimer_arch_init
000078b4 T rtimer_arch_now
000078c2 T rtimer_arch_schedule
000078c8 T rtimer_init
000078ce T rtimer_run_next
00002d40 b rxdma_timer
0000110a d send_on_cca
00007c9a T timer_expired
00007cc4 T timer_reset
00007c7e T timer_set
00007878 T timera0
00004e6c T timera1
0000232c b timerlist
00004530 t wait_for_status
0000450e t wait_for_transmission
00007eb0 T watchdog_init
00007e6e T watchdog_interrupt
00007e88 T watchdog_periodic
00007e74 T watchdog_start
00007e9a T watchdog_stop

[CPU-intensive / large functions]
00004e6c 000000dc T timera1
000059ce 000000e0 T frame802154_has_panid
0000234a 000000e0 b received_seqnos
00005c4a 000000e4 T frame802154_create
000099ba 000000e6 T __floatunsisf
00004d82 000000ea T cc2420_init
00007b94 000000ea t process_thread_stack_check_process
00002454 000000f2 B rssiList
00007d7a 000000f4 T uart1_init
0000a7b2 000000fa T memcpy
0000b0cc 00000100 R __clz_tab
00004afe 0000011e t get_value
00005684 00000120 T ds2411_init
00008e76 00000124 T __fixunssfdi
00009cec 0000013c T __unpack_f
00008f9a 0000013e T __floatundisf
00009606 00000148 T __divsf3
00004c32 00000150 t set_value
0000526c 00000158 T csma_output_packet
00005dea 00000168 T frame802154_parse
00008cc2 00000172 T __ieee754_sqrtf
00008b4e 00000174 T scalbnf
00009f54 00000194 t print_field
000050ac 000001c0 t transmit_from_queue
0000403e 000001c4 T main
00009b12 000001da T __pack_f
00006672 000001e4 t process_thread_nullnet_example_process
000093f6 00000210 T __mulsf3
000090d8 00000282 t _fpadd_parts
000019e4 000003e8 D node_positions
00001520 000004c4 D anchor_nodes
000026b6 00000550 b buframmem_memb_mem
0000a0e8 0000063e T vuprintf
00006856 00000864 T input_callback
00007efe 00000c4a T __ieee754_powf

[Power / performance related strings]
CLOCK_SECOND %lu
 RSSI is : %d
zx:%llu zy:%llu zdis:%llu rssi:%d rssiList[count-1]:%d 
Ctimer process
Event timer

[Busy-wait / delay / loop related disassembly samples]
00004000 <__watchdog_support>:
    4000:	55 42 20 01 	mov.b	&0x0120,r5	
    4004:	35 d0 08 5a 	bis	#23048,	r5	;#0x5a08
    4008:	82 45 56 2e 	mov	r5,	&0x2e56	

0000400c <__init_stack>:
    400c:	31 40 00 39 	mov	#14592,	r1	;#0x3900

00004010 <__do_copy_data>:
    4010:	3f 40 4a 11 	mov	#4426,	r15	;#0x114a
    4014:	0f 93       	tst	r15		
    4016:	08 24       	jz	$+18     	;abs 0x4028
    4018:	92 42 56 2e 	mov	&0x2e56,&0x0120	
    401c:	20 01 
    401e:	2f 83       	decd	r15		
    4020:	9f 4f d4 b1 	mov	-20012(r15),4352(r15);0xb1d4(r15), 0x1100(r15)
    4024:	00 11 
    4026:	f8 23       	jnz	$-14     	;abs 0x4018

--
000042ec <cc2420_timerb1_interrupt>:
    42ec:	0f 12       	push	r15		
    42ee:	1f 42 1e 01 	mov	&0x011e,r15	
    42f2:	e2 b3 1c 00 	bit.b	#2,	&0x001c	;r3 As==10
    42f6:	06 24       	jz	$+14     	;abs 0x4304
    42f8:	d2 53 e6 2d 	inc.b	&0x2de6	
    42fc:	92 42 94 01 	mov	&0x0194,&0x2de0	
    4300:	e0 2d 
    4302:	05 3c       	jmp	$+12     	;abs 0x430e
    4304:	c2 43 e6 2d 	mov.b	#0,	&0x2de6	;r3 As==00
    4308:	92 42 94 01 	mov	&0x0194,&0x2de8	
    430c:	e8 2d 
    430e:	3f 41       	pop	r15		
    4310:	00 13       	reti			

00004312 <cc2420_port1_interrupt>:
    4312:	0f 12       	push	r15		
    4314:	0e 12       	push	r14		
    4316:	0d 12       	push	r13		
--
0000450e <wait_for_transmission>:
    450e:	0b 12       	push	r11		
    4510:	b0 12 b4 78 	call	#0x78b4	
    4514:	3b 40 34 f3 	mov	#-3276,	r11	;#0xf334
    4518:	0b 8f       	sub	r15,	r11	
    451a:	b0 12 c0 44 	call	#0x44c0	
    451e:	7f f2       	and.b	#8,	r15	;r2 As==11
    4520:	05 24       	jz	$+12     	;abs 0x452c
    4522:	b0 12 b4 78 	call	#0x78b4	
    4526:	0f 5b       	add	r11,	r15	
    4528:	0f 93       	tst	r15		
    452a:	f7 3b       	jl	$-16     	;abs 0x451a
    452c:	3b 41       	pop	r11		
    452e:	30 41       	ret			

00004530 <wait_for_status>:
    4530:	0b 12       	push	r11		
    4532:	0a 12       	push	r10		
    4534:	4a 4f       	mov.b	r15,	r10	
    4536:	b0 12 b4 78 	call	#0x78b4	
    453a:	3b 40 34 f3 	mov	#-3276,	r11	;#0xf334
    453e:	0b 8f       	sub	r15,	r11	
    4540:	b0 12 c0 44 	call	#0x44c0	
    4544:	4f ba       	bit.b	r10,	r15	
    4546:	05 20       	jnz	$+12     	;abs 0x4552
    4548:	b0 12 b4 78 	call	#0x78b4	
    454c:	0f 5b       	add	r11,	r15	
    454e:	0f 93       	tst	r15		
    4550:	f7 3b       	jl	$-16     	;abs 0x4540
    4552:	3a 41       	pop	r10		
    4554:	3b 41       	pop	r11		
    4556:	30 41       	ret			

00004558 <getrxdata>:
--
00004a68 <cc2420_set_txpower>:
    4a68:	0b 12       	push	r11		
    4a6a:	4b 4f       	mov.b	r15,	r11	
    4a6c:	d2 53 56 22 	inc.b	&0x2256	
    4a70:	3f 40 15 00 	mov	#21,	r15	;#0x0015
    4a74:	b0 12 70 43 	call	#0x4370	
    4a78:	3f f0 e0 ff 	and	#-32,	r15	;#0xffe0
    4a7c:	0e 4b       	mov	r11,	r14	
    4a7e:	3e f0 1f 00 	and	#31,	r14	;#0x001f
    4a82:	0e df       	bis	r15,	r14	
    4a84:	3f 40 15 00 	mov	#21,	r15	;#0x0015
    4a88:	b0 12 bc 43 	call	#0x43bc	
    4a8c:	b0 12 ea 45 	call	#0x45ea	
    4a90:	3b 41       	pop	r11		
    4a92:	30 41       	ret			

00004a94 <cc2420_get_txpower>:
    4a94:	0b 12       	push	r11		
    4a96:	d2 53 56 22 	inc.b	&0x2256	
    4a9a:	3f 40 15 00 	mov	#21,	r15	;#0x0015
    4a9e:	b0 12 70 43 	call	#0x4370	
    4aa2:	0b 4f       	mov	r15,	r11	
    4aa4:	b0 12 ea 45 	call	#0x45ea	
    4aa8:	0f 4b       	mov	r11,	r15	
    4aaa:	3f f0 1f 00 	and	#31,	r15	;#0x001f
    4aae:	3b 41       	pop	r11		
    4ab0:	30 41       	ret			

00004ab2 <cc2420_rssi>:
    4ab2:	0b 12       	push	r11		
    4ab4:	0a 12       	push	r10		
    4ab6:	c2 93 56 22 	tst.b	&0x2256	
    4aba:	1c 20       	jnz	$+58     	;abs 0x4af4
    4abc:	d2 43 56 22 	mov.b	#1,	&0x2256	;r3 As==01
    4ac0:	c2 93 59 22 	tst.b	&0x2259	
--
00004e6c <timera1>:
    4e6c:	0f 12       	push	r15		
    4e6e:	0e 12       	push	r14		
    4e70:	0d 12       	push	r13		
    4e72:	0c 12       	push	r12		
    4e74:	b0 12 74 7e 	call	#0x7e74	
    4e78:	1f 42 2e 01 	mov	&0x012e,r15	
    4e7c:	2f 93       	cmp	#2,	r15	;r3 As==10
    4e7e:	5d 20       	jnz	$+188    	;abs 0x4f3a
    4e80:	b2 b0 20 00 	bit	#32,	&0x0160	;#0x0020
    4e84:	60 01 
    4e86:	0b 24       	jz	$+24     	;abs 0x4e9e
    4e88:	1e 42 74 01 	mov	&0x0174,r14	
    4e8c:	1f 42 70 01 	mov	&0x0170,r15	
    4e90:	1d 42 70 01 	mov	&0x0170,r13	
    4e94:	0f 9d       	cmp	r13,	r15	
    4e96:	fa 23       	jnz	$-10     	;abs 0x4e8c
    4e98:	0e 8f       	sub	r15,	r14	
    4e9a:	1e 93       	cmp	#1,	r14	;r3 As==01
--
00004f8a <clock_delay>:
    4f8a:	02 3c       	jmp	$+6      	;abs 0x4f90
    4f8c:	03 43       	nop			
    4f8e:	3f 53       	add	#-1,	r15	;r3 As==11
    4f90:	0f 93       	tst	r15		
    4f92:	fc 23       	jnz	$-6      	;abs 0x4f8c
    4f94:	30 41       	ret			

00004f96 <init_platform>:
    4f96:	0e 43       	clr	r14		
    4f98:	3f 40 28 22 	mov	#8744,	r15	;#0x2228
    4f9c:	b0 12 ce 76 	call	#0x76ce	
    4fa0:	30 41       	ret			

00004fa2 <schedule_transmission>:
    4fa2:	0b 12       	push	r11		
    4fa4:	0a 12       	push	r10		
    4fa6:	09 12       	push	r9		
    4fa8:	09 4f       	mov	r15,	r9	
--
000054be <process_thread_ctimer_process>:
    54be:	0b 12       	push	r11		
    54c0:	0a 12       	push	r10		
    54c2:	09 12       	push	r9		
    54c4:	0a 4f       	mov	r15,	r10	
    54c6:	09 4d       	mov	r13,	r9	
    54c8:	2f 4f       	mov	@r15,	r15	
    54ca:	0f 93       	tst	r15		
    54cc:	04 24       	jz	$+10     	;abs 0x54d6
    54ce:	3f 90 4a 00 	cmp	#74,	r15	;#0x004a
    54d2:	3a 20       	jnz	$+118    	;abs 0x5548
    54d4:	40 3c       	jmp	$+130    	;abs 0x5556
    54d6:	3f 40 2a 23 	mov	#9002,	r15	;#0x232a
    54da:	b0 12 34 62 	call	#0x6234	
    54de:	0b 4f       	mov	r15,	r11	
    54e0:	09 3c       	jmp	$+20     	;abs 0x54f4
    54e2:	1d 4b 06 00 	mov	6(r11),	r13	;0x0006(r11)
    54e6:	1e 4b 08 00 	mov	8(r11),	r14	;0x0008(r11)
    54ea:	0f 4b       	mov	r11,	r15	
--
00005566 <ctimer_init>:
    5566:	c2 43 28 23 	mov.b	#0,	&0x2328	;r3 As==00
    556a:	3f 40 2a 23 	mov	#9002,	r15	;#0x232a
    556e:	b0 12 2e 62 	call	#0x622e	
    5572:	0e 43       	clr	r14		
    5574:	3f 40 28 11 	mov	#4392,	r15	;#0x1128
    5578:	b0 12 ce 76 	call	#0x76ce	
    557c:	30 41       	ret			


----------------------------------------
FILE: extra-firmwares/nullnet-unicast.z1
TYPE: extra-firmwares/nullnet-unicast.z1: ELF 32-bit LSB executable, TI msp430, version 1 (embedded), statically linked, with debug_info, not stripped

[Memory size / flash-RAM efficiency]
   text	   data	    bss	    dec	    hex	filename
  28097	   2488	   2632	  33217	   81c1	extra-firmwares/nullnet-unicast.z1

[Power / performance related symbols]
00003100 W __watchdog_support
00004c04 t add_timer
000023a4 b bufmem_memb_mem
000023fd b bufmem_memb_used
00001e54 b buframmem_memb_mem
000023f5 b buframmem_memb_used
00003e32 t cc2420_cca
0000405e T cc2420_get_txpower
00002410 B cc2420_last_rssi
0000407c T cc2420_rssi
000041e2 T cc2420_set_cca_threshold
00004032 T cc2420_set_txpower
0000350a T cc2420_timerb1_interrupt
0000446e T clock_delay
00004446 T clock_init
0000442c T clock_time
0000447a T clock_wait
00004a28 T ctimer_init
00001ba4 b ctimer_list_list
00001130 D ctimer_process
00004a8a T ctimer_set
00004a40 T ctimer_set_with_process
00004a9a T ctimer_stop
00001acc b debouncetimer
00004ac4 T energest_flush
00004ac2 T energest_init
00004c68 T etimer_expired
00004c82 T etimer_next_expiration_time
00004c76 T etimer_pending
0000113c D etimer_process
00004b36 T etimer_request_poll
00004c56 T etimer_reset
00004c44 T etimer_set
00004c98 T etimer_stop
00005488 T i2c_busy
000057ca T memb_alloc
00005808 T memb_free
00005794 T memb_init
0000583a T memb_inmemb
00001128 d metadata_memb
00001b64 b metadata_memb_memb_mem
000023e3 b metadata_memb_memb_used
00001e18 b mgt_timer
00005904 T msp430_cpu_init
00001118 d neighbor_memb
00001ae8 b neighbor_memb_memb_mem
000023d9 b neighbor_memb_memb_used
000023b4 b next_rtimer
00009948 r output_power
00001120 d packet_memb
00001b34 b packet_memb_memb_mem
000023db b packet_memb_memb_used
00006380 T packetbuf_addr
000024c8 B packetbuf_addrs
00001d98 b packetbuf_aligned
00006362 T packetbuf_attr
000062ac T packetbuf_attr_clear
00006332 T packetbuf_attr_copyfrom
00006310 T packetbuf_attr_copyto
000024d8 B packetbuf_attrs
000062d4 T packetbuf_clear
000062e6 T packetbuf_copyfrom
0000622a T packetbuf_copyto
0000620e T packetbuf_datalen
0000621e T packetbuf_dataptr
00006270 T packetbuf_hdralloc
00006214 T packetbuf_hdrlen
00006208 T packetbuf_hdrptr
000061e8 T packetbuf_hdrreduce
0000638e T packetbuf_holds_broadcast
0000636c T packetbuf_set_addr
00006356 T packetbuf_set_attr
00006202 T packetbuf_set_datalen
00006264 T packetbuf_totlen
00001d82 b periodic_timer.3282
000064f6 T platform_idle
00004988 t process_thread_ctimer_process
00004b40 t process_thread_etimer_process
00006822 T queuebuf_free
000067b0 T queuebuf_init
000067c2 T queuebuf_new_from_packetbuf
0000684c T queuebuf_to_packetbuf
00006810 T queuebuf_update_attr_from_packetbuf
00001c8e B rssiList
0000688a T rtimer_arch_init
00006898 T rtimer_arch_now
000068a6 T rtimer_arch_schedule
000068ac T rtimer_init
000068b2 T rtimer_run_next
00001a52 d send_on_cca
00003cca t set_auto_ack
00001abc b suppressTimer1
00001ac4 b suppressTimer2
00006b66 T timer_expired
00006b90 T timer_reset
00006b4a T timer_set
00003698 T timera0
00003530 T timera1
00001ba6 b timerlist
00003bc0 t wait_for_status
00003b9e t wait_for_transmission
00006d9e t wait_ready
00006d8c T watchdog_init
000036e4 T watchdog_interrupt
00006d64 T watchdog_periodic
00006d50 T watchdog_start
00006d76 T watchdog_stop

[CPU-intensive / large functions]
00004b40 000000c4 t process_thread_etimer_process
00003530 000000d0 T timera1
00006a78 000000d2 t process_thread_stack_check_process
00004f2c 000000d4 T frame802154_create
000063ae 000000d6 T platform_init_stage_two
00004cdc 000000e0 T frame802154_has_panid
00001bac 000000e0 b received_seqnos
00008790 000000e4 T __floatunsisf
0000972a 000000e8 T memcpy
00004342 000000ea T cc2420_init
00001c8e 000000f2 B rssiList
00009d7c 00000100 R __clz_tab
00008ade 0000010c T __unpack_f
000040c4 0000011e t get_value
00007d78 00000120 T __fixunssfdi
00007e98 00000124 T __floatundisf
000084c0 00000142 T __divsf3
00004746 00000148 T csma_output_packet
000041f8 0000014a t set_value
00007c22 00000156 T __ieee754_sqrtf
0000508c 0000015c T frame802154_parse
00007aba 00000168 T scalbnf
00008dea 00000176 t print_field
000059a0 00000194 t process_thread_nullnet_example_process
00004596 000001b0 t transmit_from_queue
0000891a 000001c4 T __pack_f
0000313e 000001c4 T main
000082c2 000001fe T __mulsf3
00007fbc 0000026a t _fpadd_parts
00001620 000003e8 D node_positions
0000115c 000004c4 D anchor_nodes
00001e54 00000550 b buframmem_memb_mem
00005b34 000005f0 T input_callback
00008f60 00000742 T vuprintf
00006e8a 00000c2a T __ieee754_powf

[Power / performance related strings]
Ctimer process
Event timer
 RSSI is : %d

[Busy-wait / delay / loop related disassembly samples]
00003100 <__watchdog_support>:
    3100:	55 42 20 01 	mov.b	&0x0120,r5	
    3104:	35 d0 08 5a 	bis	#23048,	r5	;#0x5a08
    3108:	82 45 fe 24 	mov	r5,	&0x24fe	

0000310c <__init_stack>:
    310c:	31 40 00 31 	mov	#12544,	r1	;#0x3100

00003110 <__do_copy_data>:
    3110:	3f 40 b8 09 	mov	#2488,	r15	;#0x09b8
    3114:	0f 93       	tst	r15		
    3116:	08 24       	jz	$+18     	;abs 0x3128
    3118:	92 42 fe 24 	mov	&0x24fe,&0x0120	
    311c:	20 01 
    311e:	2f 83       	decd	r15		
    3120:	9f 4f 84 9e 	mov	-24956(r15),4352(r15);0x9e84(r15), 0x1100(r15)
    3124:	00 11 
    3126:	f8 23       	jnz	$-14     	;abs 0x3118

--
0000350a <cc2420_timerb1_interrupt>:
    350a:	0f 14       	pushm.a	#1,	r15	
    350c:	1f 42 1e 01 	mov	&0x011e,r15	
    3510:	e2 b3 1c 00 	bit.b	#2,	&0x001c	;r3 As==10
    3514:	06 24       	jz	$+14     	;abs 0x3522
    3516:	d2 53 18 24 	inc.b	&0x2418	
    351a:	92 42 94 01 	mov	&0x0194,&0x2412	
    351e:	12 24 
    3520:	05 3c       	jmp	$+12     	;abs 0x352c
    3522:	c2 43 18 24 	mov.b	#0,	&0x2418	;r3 As==00
    3526:	92 42 94 01 	mov	&0x0194,&0x241a	
    352a:	1a 24 
    352c:	0f 16       	popm.a	#1,	r15	
    352e:	00 13       	reti			

00003530 <timera1>:
    3530:	3f 14       	pushm.a	#4,	r15	
    3532:	b0 13 50 6d 	calla	#0x06d50	
    3536:	1f 42 2e 01 	mov	&0x012e,r15	
    353a:	2f 93       	cmp	#2,	r15	;r3 As==10
    353c:	5d 20       	jnz	$+188    	;abs 0x35f8
    353e:	b2 b0 20 00 	bit	#32,	&0x0160	;#0x0020
    3542:	60 01 
    3544:	0b 24       	jz	$+24     	;abs 0x355c
    3546:	1e 42 74 01 	mov	&0x0174,r14	
    354a:	1f 42 70 01 	mov	&0x0170,r15	
    354e:	1d 42 70 01 	mov	&0x0170,r13	
    3552:	0f 9d       	cmp	r13,	r15	
    3554:	fa 23       	jnz	$-10     	;abs 0x354a
    3556:	0e 8f       	sub	r15,	r14	
    3558:	1e 93       	cmp	#1,	r14	;r3 As==01
    355a:	f1 27       	jz	$-28     	;abs 0x353e
    355c:	1f 42 70 01 	mov	&0x0170,r15	
    3560:	1e 42 70 01 	mov	&0x0170,r14	
--
00003698 <timera0>:
    3698:	3f 14       	pushm.a	#4,	r15	
    369a:	b0 13 50 6d 	calla	#0x06d50	
    369e:	b0 13 b2 68 	calla	#0x068b2	
    36a2:	b0 13 f8 66 	calla	#0x066f8	
    36a6:	0f 93       	tst	r15		
    36a8:	04 24       	jz	$+10     	;abs 0x36b2
    36aa:	03 38       	jl	$+8      	;abs 0x36b2
    36ac:	b1 c0 f0 00 	bic	#240,	16(r1)	;#0x00f0, 0x0010(r1)
    36b0:	10 00 
    36b2:	b0 13 76 6d 	calla	#0x06d76	
    36b6:	3c 16       	popm.a	#4,	r15	
    36b8:	00 13       	reti			

000036ba <uart0_rx_interrupt>:
    36ba:	3f 14       	pushm.a	#4,	r15	
    36bc:	e2 b2 65 00 	bit.b	#4,	&0x0065	;r2 As==10
    36c0:	03 24       	jz	$+8      	;abs 0x36c8
    36c2:	5f 42 66 00 	mov.b	&0x0066,r15	
--
000036e4 <watchdog_interrupt>:
    36e4:	82 43 20 01 	mov	#0,	&0x0120	;r3 As==00
    36e8:	00 13       	reti			

000036ea <status>:
    36ea:	3f 50 7f ff 	add	#-129,	r15	;#0xff7f
    36ee:	2f 93       	cmp	#2,	r15	;r3 As==10
    36f0:	03 2c       	jc	$+8      	;abs 0x36f8
    36f2:	5f 42 d2 23 	mov.b	&0x23d2,r15	
    36f6:	10 01       	reta			
    36f8:	0f 43       	clr	r15		
    36fa:	10 01       	reta			

000036fc <accm_write_reg>:
    36fc:	21 83       	decd	r1		
    36fe:	c1 4f 00 00 	mov.b	r15,	0(r1)	;0x0000(r1)
    3702:	c1 4e 01 00 	mov.b	r14,	1(r1)	;0x0001(r1)
    3706:	7f 40 53 00 	mov.b	#83,	r15	;#0x0053
    370a:	b0 13 1a 54 	calla	#0x0541a	
--
00003b9e <wait_for_transmission>:
    3b9e:	0b 14       	pushm.a	#1,	r11	
    3ba0:	b0 13 98 68 	calla	#0x06898	
    3ba4:	3b 40 34 f3 	mov	#-3276,	r11	;#0xf334
    3ba8:	0b 8f       	sub	r15,	r11	
    3baa:	b0 13 52 3b 	calla	#0x03b52	
    3bae:	7f f2       	and.b	#8,	r15	;r2 As==11
    3bb0:	05 24       	jz	$+12     	;abs 0x3bbc
    3bb2:	b0 13 98 68 	calla	#0x06898	
    3bb6:	0f 5b       	add	r11,	r15	
    3bb8:	0f 93       	tst	r15		
    3bba:	f7 3b       	jl	$-16     	;abs 0x3baa
    3bbc:	0b 16       	popm.a	#1,	r11	
    3bbe:	10 01       	reta			

00003bc0 <wait_for_status>:
    3bc0:	1b 14       	pushm.a	#2,	r11	
    3bc2:	4a 4f       	mov.b	r15,	r10	
    3bc4:	b0 13 98 68 	calla	#0x06898	
    3bc8:	3b 40 34 f3 	mov	#-3276,	r11	;#0xf334
    3bcc:	0b 8f       	sub	r15,	r11	
    3bce:	b0 13 52 3b 	calla	#0x03b52	
    3bd2:	4f ba       	bit.b	r10,	r15	
    3bd4:	05 20       	jnz	$+12     	;abs 0x3be0
    3bd6:	b0 13 98 68 	calla	#0x06898	
    3bda:	0f 5b       	add	r11,	r15	
    3bdc:	0f 93       	tst	r15		
    3bde:	f7 3b       	jl	$-16     	;abs 0x3bce
    3be0:	1a 16       	popm.a	#2,	r11	
    3be2:	10 01       	reta			

00003be4 <getrxdata>:
    3be4:	0b 14       	pushm.a	#1,	r11	
    3be6:	d2 c3 19 00 	bic.b	#1,	&0x0019	;r3 As==01
--
00004032 <cc2420_set_txpower>:
    4032:	0b 14       	pushm.a	#1,	r11	
    4034:	4b 4f       	mov.b	r15,	r11	
    4036:	d2 53 d4 23 	inc.b	&0x23d4	
    403a:	3f 40 15 00 	mov	#21,	r15	;#0x0015
    403e:	b0 13 1e 3a 	calla	#0x03a1e	
    4042:	3f f0 e0 ff 	and	#-32,	r15	;#0xffe0
    4046:	0e 4b       	mov	r11,	r14	
    4048:	3e f0 1f 00 	and	#31,	r14	;#0x001f
    404c:	0e df       	bis	r15,	r14	
    404e:	3f 40 15 00 	mov	#21,	r15	;#0x0015
    4052:	b0 13 64 3a 	calla	#0x03a64	
    4056:	b0 13 72 3c 	calla	#0x03c72	
    405a:	0b 16       	popm.a	#1,	r11	
    405c:	10 01       	reta			

0000405e <cc2420_get_txpower>:
    405e:	0b 14       	pushm.a	#1,	r11	
    4060:	d2 53 d4 23 	inc.b	&0x23d4	
    4064:	3f 40 15 00 	mov	#21,	r15	;#0x0015
    4068:	b0 13 1e 3a 	calla	#0x03a1e	
    406c:	0b 4f       	mov	r15,	r11	
    406e:	b0 13 72 3c 	calla	#0x03c72	
    4072:	0f 4b       	mov	r11,	r15	
    4074:	3f f0 1f 00 	and	#31,	r15	;#0x001f
    4078:	0b 16       	popm.a	#1,	r11	
    407a:	10 01       	reta			

0000407c <cc2420_rssi>:
    407c:	1b 14       	pushm.a	#2,	r11	
    407e:	c2 93 d4 23 	tst.b	&0x23d4	
    4082:	1c 20       	jnz	$+58     	;abs 0x40bc
    4084:	d2 43 d4 23 	mov.b	#1,	&0x23d4	;r3 As==01
    4088:	c2 93 d7 23 	tst.b	&0x23d7	
    408c:	04 20       	jnz	$+10     	;abs 0x4096
--
0000446e <clock_delay>:
    446e:	02 3c       	jmp	$+6      	;abs 0x4474
    4470:	03 43       	nop			
    4472:	3f 53       	add	#-1,	r15	;r3 As==11
    4474:	0f 93       	tst	r15		
    4476:	fc 23       	jnz	$-6      	;abs 0x4470
    4478:	10 01       	reta			

0000447a <clock_wait>:
    447a:	3b 14       	pushm.a	#4,	r11	
    447c:	08 4e       	mov	r14,	r8	
    447e:	09 4f       	mov	r15,	r9	
    4480:	b0 13 2c 44 	calla	#0x0442c	
    4484:	0a 4e       	mov	r14,	r10	

----------------------------------------
FILE: extra-firmwares/nullnet-unicast_eleco.sky
TYPE: extra-firmwares/nullnet-unicast_eleco.sky: ELF 32-bit LSB executable, TI msp430, version 1 (embedded), statically linked, with debug_info, not stripped

[Memory size / flash-RAM efficiency]
   text	   data	    bss	    dec	    hex	filename
  17883	   4626	   2998	  25507	   63a3	extra-firmwares/nullnet-unicast_eleco.sky

[Power / performance related symbols]
00004000 W __watchdog_support
000058f6 t add_timer
00002cac b bufmem_memb_mem
00002ca4 b bufmem_memb_used
00002754 b buframmem_memb_mem
0000274c b buframmem_memb_used
000047c6 t cc2420_cca
00004a94 T cc2420_get_txpower
00002e78 B cc2420_last_rssi
00004ab2 T cc2420_rssi
00004c1c T cc2420_set_cca_threshold
00004a68 T cc2420_set_txpower
000042ec T cc2420_timerb1_interrupt
00004f8a T clock_delay
00004f62 T clock_init
00004f48 T clock_time
00005566 T ctimer_init
000023f2 b ctimer_list_list
00001128 D ctimer_process
000055dc T ctimer_reset
000055cc T ctimer_set
0000557e T ctimer_set_with_process
0000560c T ctimer_stop
00002312 b debouncetimer
000057a6 T energest_flush
000057a4 T energest_init
0000595a T etimer_expired
00005974 T etimer_next_expiration_time
00005968 T etimer_pending
00001132 D etimer_process
00005820 T etimer_request_poll
00005948 T etimer_reset
00005936 T etimer_set
0000598a T etimer_stop
00007462 t handle_rxdma_timer
00006488 T memb_alloc
000064c6 T memb_free
00006452 T memb_init
000064f8 T memb_inmemb
00001120 d metadata_memb
000023c0 b metadata_memb_memb_mem
000023b8 b metadata_memb_memb_used
0000267c b mgt_timer
000065a4 T msp430_add_lpm_req
000065b0 T msp430_cpu_init
00001110 d neighbor_memb
00002338 b neighbor_memb_memb_mem
00002336 b neighbor_memb_memb_used
00002cbc b next_rtimer
00008246 r output_power
00001118 d packet_memb
00002388 b packet_memb_memb_mem
00002380 b packet_memb_memb_used
00006aa6 T packetbuf_addr
00002e92 B packetbuf_addrs
000025fc b packetbuf_aligned
00006a84 T packetbuf_attr
000069ca T packetbuf_attr_clear
00006a54 T packetbuf_attr_copyfrom
00006a32 T packetbuf_attr_copyto
00002ea2 B packetbuf_attrs
000069f2 T packetbuf_clear
00006a04 T packetbuf_copyfrom
0000693c T packetbuf_copyto
00006920 T packetbuf_datalen
00006930 T packetbuf_dataptr
0000698e T packetbuf_hdralloc
00006926 T packetbuf_hdrlen
0000691a T packetbuf_hdrptr
000068fa T packetbuf_hdrreduce
00006ab8 T packetbuf_holds_broadcast
00006a8e T packetbuf_set_addr
00006a78 T packetbuf_set_attr
00006914 T packetbuf_set_datalen
00006982 T packetbuf_totlen
000025e8 b periodic_timer.3210
00006bc6 T platform_idle
000054be t process_thread_ctimer_process
0000582a t process_thread_etimer_process
00006f04 T queuebuf_free
00006e8e T queuebuf_init
00006ea0 T queuebuf_new_from_packetbuf
00006f2e T queuebuf_to_packetbuf
00006ef2 T queuebuf_update_attr_from_packetbuf
000024f4 B rssiList
00007018 T rtimer_arch_init
00007026 T rtimer_arch_now
00007034 T rtimer_arch_schedule
0000703a T rtimer_init
00007040 T rtimer_run_next
00002dde b rxdma_timer
0000110a d send_on_cca
0000740c T timer_expired
00007436 T timer_reset
000073f0 T timer_set
00006fea T timera0
00004e6c T timera1
000023f4 b timerlist
00004530 t wait_for_status
0000450e t wait_for_transmission
00007622 T watchdog_init
000075e0 T watchdog_interrupt
000075fa T watchdog_periodic
000075e6 T watchdog_start
0000760c T watchdog_stop

[CPU-intensive / large functions]
00005012 0000009a t tx_done
000060ac 000000a2 t create_frame
00005f52 000000a2 t parse
00007152 000000a4 t process_thread_serial_line_process
000054be 000000a8 t process_thread_ctimer_process
00005aae 000000ac t field_len
00005ff4 000000b8 T framer_802154_setup_params
00005d2e 000000bc T frame802154_parse_fcf
0000482e 000000be t cc2420_read
0000268c 000000c0 b events
00007066 000000c2 t process_thread_sensors_process
00001e30 000000c8 D AnchorIndexes
0000582a 000000cc t process_thread_etimer_process
00004e6c 000000dc T timera1
000059ce 000000e0 T frame802154_has_panid
00002412 000000e0 b received_seqnos
00005c4a 000000e4 T frame802154_create
00004d82 000000ea T cc2420_init
00007306 000000ea t process_thread_stack_check_process
000024f4 000000f2 B rssiList
000074ec 000000f4 T uart1_init
00007ede 000000fa T memcpy
00004afe 0000011e t get_value
00005684 00000120 T ds2411_init
00006672 00000126 t process_thread_nullnet_example_process
00004c32 00000150 t set_value
0000526c 00000158 T csma_output_packet
00005dea 00000168 T frame802154_parse
00007680 00000194 t print_field
000050ac 000001c0 t transmit_from_queue
0000403e 000001c4 T main
00001a48 000003e8 D node_positions
00001584 000004c4 D anchor_nodes
00002754 00000550 b buframmem_memb_mem
00007814 0000063e T vuprintf

[Power / performance related strings]
Ctimer process
Event timer

[Busy-wait / delay / loop related disassembly samples]
00004000 <__watchdog_support>:
    4000:	55 42 20 01 	mov.b	&0x0120,r5	
    4004:	35 d0 08 5a 	bis	#23048,	r5	;#0x5a08
    4008:	82 45 c6 2e 	mov	r5,	&0x2ec6	

0000400c <__init_stack>:
    400c:	31 40 00 39 	mov	#14592,	r1	;#0x3900

00004010 <__do_copy_data>:
    4010:	3f 40 12 12 	mov	#4626,	r15	;#0x1212
    4014:	0f 93       	tst	r15		
    4016:	08 24       	jz	$+18     	;abs 0x4028
    4018:	92 42 c6 2e 	mov	&0x2ec6,&0x0120	
    401c:	20 01 
    401e:	2f 83       	decd	r15		
    4020:	9f 4f be 85 	mov	-31298(r15),4352(r15);0x85be(r15), 0x1100(r15)
    4024:	00 11 
    4026:	f8 23       	jnz	$-14     	;abs 0x4018

--
000042ec <cc2420_timerb1_interrupt>:
    42ec:	0f 12       	push	r15		
    42ee:	1f 42 1e 01 	mov	&0x011e,r15	
    42f2:	e2 b3 1c 00 	bit.b	#2,	&0x001c	;r3 As==10
    42f6:	06 24       	jz	$+14     	;abs 0x4304
    42f8:	d2 53 80 2e 	inc.b	&0x2e80	
    42fc:	92 42 94 01 	mov	&0x0194,&0x2e7a	
    4300:	7a 2e 
    4302:	05 3c       	jmp	$+12     	;abs 0x430e
    4304:	c2 43 80 2e 	mov.b	#0,	&0x2e80	;r3 As==00
    4308:	92 42 94 01 	mov	&0x0194,&0x2e82	
    430c:	82 2e 
    430e:	3f 41       	pop	r15		
    4310:	00 13       	reti			

00004312 <cc2420_port1_interrupt>:
    4312:	0f 12       	push	r15		
    4314:	0e 12       	push	r14		
    4316:	0d 12       	push	r13		
--
0000450e <wait_for_transmission>:
    450e:	0b 12       	push	r11		
    4510:	b0 12 26 70 	call	#0x7026	
    4514:	3b 40 34 f3 	mov	#-3276,	r11	;#0xf334
    4518:	0b 8f       	sub	r15,	r11	
    451a:	b0 12 c0 44 	call	#0x44c0	
    451e:	7f f2       	and.b	#8,	r15	;r2 As==11
    4520:	05 24       	jz	$+12     	;abs 0x452c
    4522:	b0 12 26 70 	call	#0x7026	
    4526:	0f 5b       	add	r11,	r15	
    4528:	0f 93       	tst	r15		
    452a:	f7 3b       	jl	$-16     	;abs 0x451a
    452c:	3b 41       	pop	r11		
    452e:	30 41       	ret			

00004530 <wait_for_status>:
    4530:	0b 12       	push	r11		
    4532:	0a 12       	push	r10		
    4534:	4a 4f       	mov.b	r15,	r10	
    4536:	b0 12 26 70 	call	#0x7026	
    453a:	3b 40 34 f3 	mov	#-3276,	r11	;#0xf334
    453e:	0b 8f       	sub	r15,	r11	
    4540:	b0 12 c0 44 	call	#0x44c0	
    4544:	4f ba       	bit.b	r10,	r15	
    4546:	05 20       	jnz	$+12     	;abs 0x4552
    4548:	b0 12 26 70 	call	#0x7026	
    454c:	0f 5b       	add	r11,	r15	
    454e:	0f 93       	tst	r15		
    4550:	f7 3b       	jl	$-16     	;abs 0x4540
    4552:	3a 41       	pop	r10		
    4554:	3b 41       	pop	r11		
    4556:	30 41       	ret			

00004558 <getrxdata>:
--
00004a68 <cc2420_set_txpower>:
    4a68:	0b 12       	push	r11		
    4a6a:	4b 4f       	mov.b	r15,	r11	
    4a6c:	d2 53 1e 23 	inc.b	&0x231e	
    4a70:	3f 40 15 00 	mov	#21,	r15	;#0x0015
    4a74:	b0 12 70 43 	call	#0x4370	
    4a78:	3f f0 e0 ff 	and	#-32,	r15	;#0xffe0
    4a7c:	0e 4b       	mov	r11,	r14	
    4a7e:	3e f0 1f 00 	and	#31,	r14	;#0x001f
    4a82:	0e df       	bis	r15,	r14	
    4a84:	3f 40 15 00 	mov	#21,	r15	;#0x0015
    4a88:	b0 12 bc 43 	call	#0x43bc	
    4a8c:	b0 12 ea 45 	call	#0x45ea	
    4a90:	3b 41       	pop	r11		
    4a92:	30 41       	ret			

00004a94 <cc2420_get_txpower>:
    4a94:	0b 12       	push	r11		
    4a96:	d2 53 1e 23 	inc.b	&0x231e	
    4a9a:	3f 40 15 00 	mov	#21,	r15	;#0x0015
    4a9e:	b0 12 70 43 	call	#0x4370	
    4aa2:	0b 4f       	mov	r15,	r11	
    4aa4:	b0 12 ea 45 	call	#0x45ea	
    4aa8:	0f 4b       	mov	r11,	r15	
    4aaa:	3f f0 1f 00 	and	#31,	r15	;#0x001f
    4aae:	3b 41       	pop	r11		
    4ab0:	30 41       	ret			

00004ab2 <cc2420_rssi>:
    4ab2:	0b 12       	push	r11		
    4ab4:	0a 12       	push	r10		
    4ab6:	c2 93 1e 23 	tst.b	&0x231e	
    4aba:	1c 20       	jnz	$+58     	;abs 0x4af4
    4abc:	d2 43 1e 23 	mov.b	#1,	&0x231e	;r3 As==01
    4ac0:	c2 93 21 23 	tst.b	&0x2321	
--
00004e6c <timera1>:
    4e6c:	0f 12       	push	r15		
    4e6e:	0e 12       	push	r14		
    4e70:	0d 12       	push	r13		
    4e72:	0c 12       	push	r12		
    4e74:	b0 12 e6 75 	call	#0x75e6	
    4e78:	1f 42 2e 01 	mov	&0x012e,r15	
    4e7c:	2f 93       	cmp	#2,	r15	;r3 As==10
    4e7e:	5d 20       	jnz	$+188    	;abs 0x4f3a
    4e80:	b2 b0 20 00 	bit	#32,	&0x0160	;#0x0020
    4e84:	60 01 
    4e86:	0b 24       	jz	$+24     	;abs 0x4e9e
    4e88:	1e 42 74 01 	mov	&0x0174,r14	
    4e8c:	1f 42 70 01 	mov	&0x0170,r15	
    4e90:	1d 42 70 01 	mov	&0x0170,r13	
    4e94:	0f 9d       	cmp	r13,	r15	
    4e96:	fa 23       	jnz	$-10     	;abs 0x4e8c
    4e98:	0e 8f       	sub	r15,	r14	
    4e9a:	1e 93       	cmp	#1,	r14	;r3 As==01
--
00004f8a <clock_delay>:
    4f8a:	02 3c       	jmp	$+6      	;abs 0x4f90
    4f8c:	03 43       	nop			
    4f8e:	3f 53       	add	#-1,	r15	;r3 As==11
    4f90:	0f 93       	tst	r15		
    4f92:	fc 23       	jnz	$-6      	;abs 0x4f8c
    4f94:	30 41       	ret			

00004f96 <init_platform>:
    4f96:	0e 43       	clr	r14		
    4f98:	3f 40 f0 22 	mov	#8944,	r15	;#0x22f0
    4f9c:	b0 12 40 6e 	call	#0x6e40	
    4fa0:	30 41       	ret			

00004fa2 <schedule_transmission>:
    4fa2:	0b 12       	push	r11		
    4fa4:	0a 12       	push	r10		
    4fa6:	09 12       	push	r9		
    4fa8:	09 4f       	mov	r15,	r9	
--
000054be <process_thread_ctimer_process>:
    54be:	0b 12       	push	r11		
    54c0:	0a 12       	push	r10		
    54c2:	09 12       	push	r9		
    54c4:	0a 4f       	mov	r15,	r10	
    54c6:	09 4d       	mov	r13,	r9	
    54c8:	2f 4f       	mov	@r15,	r15	
    54ca:	0f 93       	tst	r15		
    54cc:	04 24       	jz	$+10     	;abs 0x54d6
    54ce:	3f 90 4a 00 	cmp	#74,	r15	;#0x004a
    54d2:	3a 20       	jnz	$+118    	;abs 0x5548
    54d4:	40 3c       	jmp	$+130    	;abs 0x5556
    54d6:	3f 40 f2 23 	mov	#9202,	r15	;#0x23f2
    54da:	b0 12 34 62 	call	#0x6234	
    54de:	0b 4f       	mov	r15,	r11	
    54e0:	09 3c       	jmp	$+20     	;abs 0x54f4
    54e2:	1d 4b 06 00 	mov	6(r11),	r13	;0x0006(r11)
    54e6:	1e 4b 08 00 	mov	8(r11),	r14	;0x0008(r11)
    54ea:	0f 4b       	mov	r11,	r15	
--
00005566 <ctimer_init>:
    5566:	c2 43 f0 23 	mov.b	#0,	&0x23f0	;r3 As==00
    556a:	3f 40 f2 23 	mov	#9202,	r15	;#0x23f2
    556e:	b0 12 2e 62 	call	#0x622e	
    5572:	0e 43       	clr	r14		
    5574:	3f 40 28 11 	mov	#4392,	r15	;#0x1128
    5578:	b0 12 40 6e 	call	#0x6e40	
    557c:	30 41       	ret			


----------------------------------------
FILE: extra-firmwares/udp-client.sky
TYPE: extra-firmwares/udp-client.sky: ELF 32-bit LSB executable, TI msp430, version 1 (embedded), statically linked, with debug_info, not stripped

[Memory size / flash-RAM efficiency]
   text	   data	    bss	    dec	    hex	filename
  43386	    330	   7024	  50740	   c634	extra-firmwares/udp-client.sky

[Power / performance related symbols]
00004000 W __watchdog_support
00005956 t add_timer
00001c66 b bufmem_memb_mem
00001c5e b bufmem_memb_used
0000170e b buframmem_memb_mem
00001706 b buframmem_memb_used
00004834 t cc2420_cca
00004b02 T cc2420_get_txpower
00002900 B cc2420_last_rssi
00004b20 T cc2420_rssi
00004c8a T cc2420_set_cca_threshold
00004ad6 T cc2420_set_txpower
0000435a T cc2420_timerb1_interrupt
00004ff4 T clock_delay
00004fcc T clock_init
00005000 T clock_seconds
00004fb2 T clock_time
0000566e T ctimer_expired
000055b4 T ctimer_init
0000132a b ctimer_list_list
00001124 D ctimer_process
00005616 T ctimer_reset
0000904c t ctimer_set.constprop.3
000055c8 T ctimer_set_with_process
00005646 T ctimer_stop
0000124a b debouncetimer
00001224 d defaultroutermemb
00002630 b defaultroutermemb_memb_mem
0000262e b defaultroutermemb_memb_used
00001d08 b dis_timer
000059c6 T etimer_next_expiration_time
000059ba T etimer_pending
0000112e D etimer_process
00005880 T etimer_request_poll
000059a8 T etimer_reset
00005996 T etimer_set
000059dc T etimer_stop
00009392 T get_probing_delay
0000903a t handle_dao_ack_timer
000090e0 t handle_dio_timer
0000923c t handle_dis_timer
0000901c t handle_leaving_timer
00009202 t handle_periodic_timer
000094b8 t handle_probing_timer
00009028 t handle_unicast_dio_timer
00006788 T memb_alloc
000067c6 T memb_free
00006752 T memb_init
000067f8 T memb_inmemb
00006822 T memb_numfree
0000111c d metadata_memb
000012f8 b metadata_memb_memb_mem
000012f0 b metadata_memb_memb_used
0000163a b mgt_timer
000068ca T msp430_add_lpm_req
000068d6 T msp430_cpu_init
00001510 b neighbor_addr_mem_memb_mem
00001500 b neighbor_addr_mem_memb_used
0000110c d neighbor_memb
00001270 b neighbor_memb_memb_mem
0000126e b neighbor_memb_memb_used
00001d30 b next_rtimer
0000123e d nodememb
000026c0 b nodememb_memb_mem
000026b0 b nodememb_memb_used
0000e4b6 r output_power
00001114 d packet_memb
000012c0 b packet_memb_memb_mem
000012b8 b packet_memb_memb_used
00006fd6 T packetbuf_addr
0000292a B packetbuf_addrs
000015ba b packetbuf_aligned
00006fb6 T packetbuf_attr
00006efe T packetbuf_attr_clear
00006f88 T packetbuf_attr_copyfrom
00006f66 T packetbuf_attr_copyto
0000293a B packetbuf_attrs
00006f26 T packetbuf_clear
00006f38 T packetbuf_copyfrom
00006e70 T packetbuf_copyto
00006e54 T packetbuf_datalen
00006e64 T packetbuf_dataptr
00001d45 b packetbuf_hdr_len
00006ec2 T packetbuf_hdralloc
00006e5a T packetbuf_hdrlen
00006e4e T packetbuf_hdrptr
00006e2e T packetbuf_hdrreduce
00006fe8 T packetbuf_holds_broadcast
00001d50 b packetbuf_payload_len
00001d46 b packetbuf_ptr
00006fc0 T packetbuf_set_addr
00006fac T packetbuf_set_attr
00006e48 T packetbuf_set_datalen
00006eb6 T packetbuf_totlen
00001d1c b periodic_timer
0000290c B periodic_timer
000024d4 b periodic_timer.2980
000070f0 T platform_idle
0000551a t process_thread_ctimer_process
0000588a t process_thread_etimer_process
0000742a T queuebuf_free
000073aa T queuebuf_init
000073c6 T queuebuf_new_from_packetbuf
000073bc T queuebuf_numfree
00007454 T queuebuf_to_packetbuf
00007418 T queuebuf_update_attr_from_packetbuf
00009262 T rpl_timers_dio_reset
00009544 T rpl_timers_init
00009314 T rpl_timers_notify_dao_ack
000092ac T rpl_timers_schedule_dao
000092e4 T rpl_timers_schedule_dao_ack
0000951e T rpl_timers_schedule_leaving
000091c6 T rpl_timers_schedule_periodic_dis
000095a8 T rpl_timers_schedule_state_update
00009290 T rpl_timers_schedule_unicast_dio
0000955c T rpl_timers_stop_dag_timers
00009502 T rpl_timers_unschedule_leaving
00009896 T rtimer_arch_init
000098a4 T rtimer_arch_now
000098b2 T rtimer_run_next
00002420 b rxdma_timer
0000110a d send_on_cca
0000b402 T stimer_expired
0000b6ae T timer_expired
0000b6d8 T timer_reset
0000b692 T timer_set
0000986a T timera0
00004eda T timera1
0000132c b timerlist
00002bca B uip_ds6_timer_periodic
00002a64 B uip_ds6_timer_ra
0000cb10 T uip_sr_free_all
0000459e t wait_for_status
0000457c t wait_for_transmission
0000d69c T watchdog_init
0000d65a T watchdog_interrupt
0000d674 T watchdog_periodic
0000d660 T watchdog_start
0000d686 T watchdog_stop

[CPU-intensive / large functions]
0000e0c8 000000fa T memmove
00002956 000000fe B curr_instance
0000639c 00000106 T link_stats_input_callback
00002a6c 00000108 B uip_ds6_if
0000b48c 00000114 T tcpip_ipv6_output
00007e02 00000118 T rpl_ext_header_srh_update
00004b6c 0000011e t get_value
0000250c 00000120 b _ds6_neighbors_mem
000056e8 00000120 T ds2411_init
000026c0 00000120 b nodememb_memb_mem
0000d52e 0000012c T uiplib_ipaddr_snprint
00007856 00000144 T rpl_dag_update_state
000052e2 00000146 T csma_output_packet
0000c428 00000146 T uip_icmp6_error_output
00004ca0 00000150 t set_value
00001d52 00000158 b frag_info
0000c1a0 00000164 T uip_ds6_init
00005e28 00000168 T frame802154_parse
000083ea 0000016c t dao_input
0000d770 00000194 t print_field
0000b86e 00000194 t process_thread_udp_client_process
0000799a 000001b6 T rpl_process_dio
00005126 000001bc t transmit_from_queue
00009cce 000001fc t add_fragment
00008898 00000230 T rpl_icmp6_dio_output
0000403e 00000238 T main
0000c60e 00000298 t ns_input
00008082 000002aa T rpl_ext_header_update
00008556 000002ba t dio_input
0000ce9a 000004c2 T uip_process
0000170e 00000550 b buframmem_memb_mem
00001eac 00000558 b frag_buf
0000d904 0000063e T vuprintf
00009f98 0000079e t output
0000a736 00000a1a t input

[Power / performance related strings]
Ctimer process
Event timer

[Busy-wait / delay / loop related disassembly samples]
00004000 <__watchdog_support>:
    4000:	55 42 20 01 	mov.b	&0x0120,r5	
    4004:	35 d0 08 5a 	bis	#23048,	r5	;#0x5a08
    4008:	82 45 b8 2d 	mov	r5,	&0x2db8	

0000400c <__init_stack>:
    400c:	31 40 00 39 	mov	#14592,	r1	;#0x3900

00004010 <__do_copy_data>:
    4010:	3f 40 4a 01 	mov	#330,	r15	;#0x014a
    4014:	0f 93       	tst	r15		
    4016:	08 24       	jz	$+18     	;abs 0x4028
    4018:	92 42 b8 2d 	mov	&0x2db8,&0x0120	
    401c:	20 01 
    401e:	2f 83       	decd	r15		
    4020:	9f 4f 5c e9 	mov	-5796(r15),4352(r15);0xe95c(r15), 0x1100(r15)
    4024:	00 11 
    4026:	f8 23       	jnz	$-14     	;abs 0x4018

--
0000435a <cc2420_timerb1_interrupt>:
    435a:	0f 12       	push	r15		
    435c:	1f 42 1e 01 	mov	&0x011e,r15	
    4360:	e2 b3 1c 00 	bit.b	#2,	&0x001c	;r3 As==10
    4364:	06 24       	jz	$+14     	;abs 0x4372
    4366:	d2 53 08 29 	inc.b	&0x2908	
    436a:	92 42 94 01 	mov	&0x0194,&0x2902	
    436e:	02 29 
    4370:	05 3c       	jmp	$+12     	;abs 0x437c
    4372:	c2 43 08 29 	mov.b	#0,	&0x2908	;r3 As==00
    4376:	92 42 94 01 	mov	&0x0194,&0x290a	
    437a:	0a 29 
    437c:	3f 41       	pop	r15		
    437e:	00 13       	reti			

00004380 <cc2420_port1_interrupt>:
    4380:	0f 12       	push	r15		
    4382:	0e 12       	push	r14		
    4384:	0d 12       	push	r13		
--
0000457c <wait_for_transmission>:
    457c:	0b 12       	push	r11		
    457e:	b0 12 a4 98 	call	#0x98a4	
    4582:	3b 40 34 f3 	mov	#-3276,	r11	;#0xf334
    4586:	0b 8f       	sub	r15,	r11	
    4588:	b0 12 2e 45 	call	#0x452e	
    458c:	7f f2       	and.b	#8,	r15	;r2 As==11
    458e:	05 24       	jz	$+12     	;abs 0x459a
    4590:	b0 12 a4 98 	call	#0x98a4	
    4594:	0f 5b       	add	r11,	r15	
    4596:	0f 93       	tst	r15		
    4598:	f7 3b       	jl	$-16     	;abs 0x4588
    459a:	3b 41       	pop	r11		
    459c:	30 41       	ret			

0000459e <wait_for_status>:
    459e:	0b 12       	push	r11		
    45a0:	0a 12       	push	r10		
    45a2:	4a 4f       	mov.b	r15,	r10	
    45a4:	b0 12 a4 98 	call	#0x98a4	
    45a8:	3b 40 34 f3 	mov	#-3276,	r11	;#0xf334
    45ac:	0b 8f       	sub	r15,	r11	
    45ae:	b0 12 2e 45 	call	#0x452e	
    45b2:	4f ba       	bit.b	r10,	r15	
    45b4:	05 20       	jnz	$+12     	;abs 0x45c0
    45b6:	b0 12 a4 98 	call	#0x98a4	
    45ba:	0f 5b       	add	r11,	r15	
    45bc:	0f 93       	tst	r15		
    45be:	f7 3b       	jl	$-16     	;abs 0x45ae
    45c0:	3a 41       	pop	r10		
    45c2:	3b 41       	pop	r11		
    45c4:	30 41       	ret			

000045c6 <getrxdata>:
--
00004ad6 <cc2420_set_txpower>:
    4ad6:	0b 12       	push	r11		
    4ad8:	4b 4f       	mov.b	r15,	r11	
    4ada:	d2 53 56 12 	inc.b	&0x1256	
    4ade:	3f 40 15 00 	mov	#21,	r15	;#0x0015
    4ae2:	b0 12 de 43 	call	#0x43de	
    4ae6:	3f f0 e0 ff 	and	#-32,	r15	;#0xffe0
    4aea:	0e 4b       	mov	r11,	r14	
    4aec:	3e f0 1f 00 	and	#31,	r14	;#0x001f
    4af0:	0e df       	bis	r15,	r14	
    4af2:	3f 40 15 00 	mov	#21,	r15	;#0x0015
    4af6:	b0 12 2a 44 	call	#0x442a	
    4afa:	b0 12 58 46 	call	#0x4658	
    4afe:	3b 41       	pop	r11		
    4b00:	30 41       	ret			

00004b02 <cc2420_get_txpower>:
    4b02:	0b 12       	push	r11		
    4b04:	d2 53 56 12 	inc.b	&0x1256	
    4b08:	3f 40 15 00 	mov	#21,	r15	;#0x0015
    4b0c:	b0 12 de 43 	call	#0x43de	
    4b10:	0b 4f       	mov	r15,	r11	
    4b12:	b0 12 58 46 	call	#0x4658	
    4b16:	0f 4b       	mov	r11,	r15	
    4b18:	3f f0 1f 00 	and	#31,	r15	;#0x001f
    4b1c:	3b 41       	pop	r11		
    4b1e:	30 41       	ret			

00004b20 <cc2420_rssi>:
    4b20:	0b 12       	push	r11		
    4b22:	0a 12       	push	r10		
    4b24:	c2 93 56 12 	tst.b	&0x1256	
    4b28:	1c 20       	jnz	$+58     	;abs 0x4b62
    4b2a:	d2 43 56 12 	mov.b	#1,	&0x1256	;r3 As==01
    4b2e:	c2 93 59 12 	tst.b	&0x1259	
--
00004eda <timera1>:
    4eda:	0f 12       	push	r15		
    4edc:	0e 12       	push	r14		
    4ede:	0d 12       	push	r13		
    4ee0:	0c 12       	push	r12		
    4ee2:	b0 12 60 d6 	call	#0xd660	
    4ee6:	1f 42 2e 01 	mov	&0x012e,r15	
    4eea:	2f 93       	cmp	#2,	r15	;r3 As==10
    4eec:	5b 20       	jnz	$+184    	;abs 0x4fa4
    4eee:	b2 b0 20 00 	bit	#32,	&0x0160	;#0x0020
    4ef2:	60 01 
    4ef4:	0b 24       	jz	$+24     	;abs 0x4f0c
    4ef6:	1e 42 74 01 	mov	&0x0174,r14	
    4efa:	1f 42 70 01 	mov	&0x0170,r15	
    4efe:	1d 42 70 01 	mov	&0x0170,r13	
    4f02:	0f 9d       	cmp	r13,	r15	
    4f04:	fa 23       	jnz	$-10     	;abs 0x4efa
    4f06:	0e 8f       	sub	r15,	r14	
    4f08:	1e 93       	cmp	#1,	r14	;r3 As==01
--
00004ff4 <clock_delay>:
    4ff4:	02 3c       	jmp	$+6      	;abs 0x4ffa
    4ff6:	03 43       	nop			
    4ff8:	3f 53       	add	#-1,	r15	;r3 As==11
    4ffa:	0f 93       	tst	r15		
    4ffc:	fc 23       	jnz	$-6      	;abs 0x4ff6
    4ffe:	30 41       	ret			

00005000 <clock_seconds>:
    5000:	1e 42 68 12 	mov	&0x1268,r14	
    5004:	1f 42 6a 12 	mov	&0x126a,r15	
    5008:	1c 42 68 12 	mov	&0x1268,r12	
    500c:	1d 42 6a 12 	mov	&0x126a,r13	
    5010:	0e 9c       	cmp	r12,	r14	
    5012:	f6 23       	jnz	$-18     	;abs 0x5000
    5014:	0f 9d       	cmp	r13,	r15	
    5016:	f4 23       	jnz	$-22     	;abs 0x5000
    5018:	30 41       	ret			

--
0000551a <process_thread_ctimer_process>:
    551a:	0b 12       	push	r11		
    551c:	0a 12       	push	r10		
    551e:	09 12       	push	r9		
    5520:	0a 4f       	mov	r15,	r10	
    5522:	2f 4f       	mov	@r15,	r15	
    5524:	0f 93       	tst	r15		
    5526:	04 24       	jz	$+10     	;abs 0x5530
    5528:	3f 90 45 00 	cmp	#69,	r15	;#0x0045
    552c:	34 20       	jnz	$+106    	;abs 0x5596
    552e:	3a 3c       	jmp	$+118    	;abs 0x55a4
    5530:	1b 42 2a 13 	mov	&0x132a,r11	
    5534:	09 3c       	jmp	$+20     	;abs 0x5548
    5536:	1d 4b 06 00 	mov	6(r11),	r13	;0x0006(r11)
    553a:	1e 4b 08 00 	mov	8(r11),	r14	;0x0008(r11)
    553e:	0f 4b       	mov	r11,	r15	
    5540:	2f 53       	incd	r15		
    5542:	b0 12 96 59 	call	#0x5996	
    5546:	2b 4b       	mov	@r11,	r11	
--
000055b4 <ctimer_init>:
    55b4:	c2 43 28 13 	mov.b	#0,	&0x1328	;r3 As==00
    55b8:	82 43 2a 13 	mov	#0,	&0x132a	;r3 As==00
    55bc:	0e 43       	clr	r14		
    55be:	3f 40 24 11 	mov	#4388,	r15	;#0x1124
    55c2:	b0 12 5c 73 	call	#0x735c	
    55c6:	30 41       	ret			

000055c8 <ctimer_set_with_process>:

----------------------------------------
FILE: extra-firmwares/udp-client.z1
TYPE: extra-firmwares/udp-client.z1: ELF 32-bit LSB executable, TI msp430, version 1 (embedded), statically linked, with debug_info, not stripped

[Memory size / flash-RAM efficiency]
   text	   data	    bss	    dec	    hex	filename
  42542	    336	   5888	  48766	   be7e	extra-firmwares/udp-client.z1

[Power / performance related symbols]
00003100 W __watchdog_support
00004d14 t add_timer
00001ae8 b bufmem_memb_mem
000024a3 b bufmem_memb_used
00001598 b buframmem_memb_mem
0000249b b buframmem_memb_used
00003f20 t cc2420_cca
0000414c T cc2420_get_txpower
00002574 B cc2420_last_rssi
0000416a T cc2420_rssi
000042d0 T cc2420_set_cca_threshold
00004120 T cc2420_set_txpower
00003604 T cc2420_timerb1_interrupt
0000455c T clock_delay
00004534 T clock_init
0000458c T clock_seconds
0000451a T clock_time
00004568 T clock_wait
00004bac T ctimer_expired
00004afa T ctimer_init
0000133c b ctimer_list_list
00001130 D ctimer_process
00004b58 T ctimer_reset
000081f6 t ctimer_set.constprop.3
00004b0e T ctimer_set_with_process
00004b84 T ctimer_stop
00001264 b debouncetimer
00001204 d defaultroutermemb
00002328 b defaultroutermemb_memb_mem
00002560 b defaultroutermemb_memb_used
00001b48 b dis_timer
00004d84 T etimer_next_expiration_time
00004d78 T etimer_pending
0000113c D etimer_process
00004c46 T etimer_request_poll
00004d66 T etimer_reset
00004d54 T etimer_set
00004d9a T etimer_stop
00008528 T get_probing_delay
000081e4 t handle_dao_ack_timer
00008286 t handle_dio_timer
000083da t handle_dis_timer
000081c6 t handle_leaving_timer
000083a0 t handle_periodic_timer
0000863a t handle_probing_timer
000081d2 t handle_unicast_dio_timer
00005570 T i2c_busy
00005b54 T memb_alloc
00005b92 T memb_free
00005b1e T memb_init
00005bc4 T memb_inmemb
00005bee T memb_numfree
00001128 d metadata_memb
000012fc b metadata_memb_memb_mem
00002471 b metadata_memb_memb_used
00001560 b mgt_timer
00005cb4 T msp430_cpu_init
00001488 b neighbor_addr_mem_memb_mem
0000248e b neighbor_addr_mem_memb_used
00001118 d neighbor_memb
00001280 b neighbor_memb_memb_mem
00002467 b neighbor_memb_memb_used
00001b74 b next_rtimer
00001224 d nodememb
000023a6 b nodememb_memb_mem
00002562 b nodememb_memb_used
0000d290 r output_power
00001120 d packet_memb
000012cc b packet_memb_memb_mem
00002469 b packet_memb_memb_used
00006316 T packetbuf_addr
000025ae B packetbuf_addrs
000014e0 b packetbuf_aligned
000062fa T packetbuf_attr
00006246 T packetbuf_attr_clear
000062cc T packetbuf_attr_copyfrom
000062aa T packetbuf_attr_copyto
000025be B packetbuf_attrs
0000626e T packetbuf_clear
00006280 T packetbuf_copyfrom
000061c4 T packetbuf_copyto
000061a8 T packetbuf_datalen
000061b8 T packetbuf_dataptr
000024af b packetbuf_hdr_len
0000620a T packetbuf_hdralloc
000061ae T packetbuf_hdrlen
000061a2 T packetbuf_hdrptr
00006182 T packetbuf_hdrreduce
00006324 T packetbuf_holds_broadcast
00001b90 b packetbuf_payload_len
00001b86 b packetbuf_ptr
00006304 T packetbuf_set_addr
000062f0 T packetbuf_set_attr
0000619c T packetbuf_set_datalen
000061fe T packetbuf_totlen
00001b5e b periodic_timer
0000258e B periodic_timer
0000227e b periodic_timer.3040
0000647a T platform_idle
00004a68 t process_thread_ctimer_process
00004c50 t process_thread_etimer_process
000067a2 T queuebuf_free
00006726 T queuebuf_init
00006742 T queuebuf_new_from_packetbuf
00006738 T queuebuf_numfree
000067cc T queuebuf_to_packetbuf
00006790 T queuebuf_update_attr_from_packetbuf
00008400 T rpl_timers_dio_reset
000086c2 T rpl_timers_init
000084ae T rpl_timers_notify_dao_ack
0000844a T rpl_timers_schedule_dao
0000847e T rpl_timers_schedule_dao_ack
0000869c T rpl_timers_schedule_leaving
00008368 T rpl_timers_schedule_periodic_dis
00008726 T rpl_timers_schedule_state_update
0000842e T rpl_timers_schedule_unicast_dio
000086da T rpl_timers_stop_dag_timers
00008680 T rpl_timers_unschedule_leaving
00008998 T rtimer_arch_init
000089a6 T rtimer_arch_now
000089b4 T rtimer_run_next
0000124e d send_on_cca
0000a36e T stimer_expired
00001254 b suppressTimer1
0000125c b suppressTimer2
0000a60c T timer_expired
0000a636 T timer_reset
0000a5f0 T timer_set
0000378e T timera0
0000362a T timera1
0000133e b timerlist
0000285e B uip_ds6_timer_periodic
000026f8 B uip_ds6_timer_ra
0000b9e6 T uip_sr_free_all
00003cae t wait_for_status
00003c8c t wait_for_transmission
0000c4d8 t wait_ready
0000c4c6 T watchdog_init
000037d8 T watchdog_interrupt
0000c49e T watchdog_periodic
0000c48a T watchdog_start
0000c4b0 T watchdog_stop

[CPU-intensive / large functions]
000056c2 000000e2 T link_stats_packet_sent
0000cf88 000000e8 T memcpy
0000d070 000000e8 T memmove
00007106 000000e8 T rpl_ext_header_srh_update
00004430 000000ea T cc2420_init
000057a4 000000f6 T link_stats_input_callback
00002700 00000108 B uip_ds6_if
000025dc 0000010c B curr_instance
0000a3f8 0000010c T tcpip_ipv6_output
0000c376 00000114 T uiplib_ipaddr_snprint
000041b2 0000011e t get_value
00004840 00000136 T csma_output_packet
0000b356 00000136 T uip_icmp6_error_output
00006ba4 0000013c T rpl_dag_update_state
000042e6 0000014a t set_value
00007652 00000158 t dao_input
00001b92 00000158 b frag_info
00005176 0000015c T frame802154_parse
0000b0d6 00000164 T uip_ds6_init
0000c648 00000176 t print_field
0000a83c 00000192 t process_thread_udp_client_process
00006ce0 0000019e T rpl_process_dio
00004694 000001ac t transmit_from_queue
00008d6a 000001e8 t add_fragment
00007abc 0000020a T rpl_icmp6_dio_output
0000313e 00000238 T main
00007336 00000266 T rpl_ext_header_update
0000b520 00000290 t ns_input
000077aa 00000292 t dio_input
0000bd06 000004ba T uip_process
00001598 00000550 b buframmem_memb_mem
00001cea 00000558 b frag_buf
0000c7be 00000742 T vuprintf
00009002 00000746 t output
00009748 0000099c t input

[Power / performance related strings]
Ctimer process
Event timer

[Busy-wait / delay / loop related disassembly samples]
00003100 <__watchdog_support>:
    3100:	55 42 20 01 	mov.b	&0x0120,r5	
    3104:	35 d0 08 5a 	bis	#23048,	r5	;#0x5a08
    3108:	82 45 4e 29 	mov	r5,	&0x294e	

0000310c <__init_stack>:
    310c:	31 40 00 31 	mov	#12544,	r1	;#0x3100

00003110 <__do_copy_data>:
    3110:	3f 40 50 01 	mov	#336,	r15	;#0x0150
    3114:	0f 93       	tst	r15		
    3116:	08 24       	jz	$+18     	;abs 0x3128
    3118:	92 42 4e 29 	mov	&0x294e,&0x0120	
    311c:	20 01 
    311e:	2f 83       	decd	r15		
    3120:	9f 4f ee d6 	mov	-10514(r15),4352(r15);0xd6ee(r15), 0x1100(r15)
    3124:	00 11 
    3126:	f8 23       	jnz	$-14     	;abs 0x3118

--
00003604 <cc2420_timerb1_interrupt>:
    3604:	0f 14       	pushm.a	#1,	r15	
    3606:	1f 42 1e 01 	mov	&0x011e,r15	
    360a:	e2 b3 1c 00 	bit.b	#2,	&0x001c	;r3 As==10
    360e:	06 24       	jz	$+14     	;abs 0x361c
    3610:	d2 53 7c 25 	inc.b	&0x257c	
    3614:	92 42 94 01 	mov	&0x0194,&0x2576	
    3618:	76 25 
    361a:	05 3c       	jmp	$+12     	;abs 0x3626
    361c:	c2 43 7c 25 	mov.b	#0,	&0x257c	;r3 As==00
    3620:	92 42 94 01 	mov	&0x0194,&0x257e	
    3624:	7e 25 
    3626:	0f 16       	popm.a	#1,	r15	
    3628:	00 13       	reti			

0000362a <timera1>:
    362a:	3f 14       	pushm.a	#4,	r15	
    362c:	b0 13 8a c4 	calla	#0x0c48a	
    3630:	1f 42 2e 01 	mov	&0x012e,r15	
    3634:	2f 93       	cmp	#2,	r15	;r3 As==10
    3636:	5b 20       	jnz	$+184    	;abs 0x36ee
    3638:	b2 b0 20 00 	bit	#32,	&0x0160	;#0x0020
    363c:	60 01 
    363e:	0b 24       	jz	$+24     	;abs 0x3656
    3640:	1e 42 74 01 	mov	&0x0174,r14	
    3644:	1f 42 70 01 	mov	&0x0170,r15	
    3648:	1d 42 70 01 	mov	&0x0170,r13	
    364c:	0f 9d       	cmp	r13,	r15	
    364e:	fa 23       	jnz	$-10     	;abs 0x3644
    3650:	0e 8f       	sub	r15,	r14	
    3652:	1e 93       	cmp	#1,	r14	;r3 As==01
    3654:	f1 27       	jz	$-28     	;abs 0x3638
    3656:	1f 42 70 01 	mov	&0x0170,r15	
    365a:	1e 42 70 01 	mov	&0x0170,r14	
--
0000378e <timera0>:
    378e:	3f 14       	pushm.a	#4,	r15	
    3790:	b0 13 8a c4 	calla	#0x0c48a	
    3794:	b0 13 b4 89 	calla	#0x089b4	
    3798:	b0 13 72 66 	calla	#0x06672	
    379c:	4f 93       	tst.b	r15		
    379e:	03 24       	jz	$+8      	;abs 0x37a6
    37a0:	b1 c0 f0 00 	bic	#240,	16(r1)	;#0x00f0, 0x0010(r1)
    37a4:	10 00 
    37a6:	b0 13 b0 c4 	calla	#0x0c4b0	
    37aa:	3c 16       	popm.a	#4,	r15	
    37ac:	00 13       	reti			

000037ae <uart0_rx_interrupt>:
    37ae:	3f 14       	pushm.a	#4,	r15	
    37b0:	e2 b2 65 00 	bit.b	#4,	&0x0065	;r2 As==10
    37b4:	03 24       	jz	$+8      	;abs 0x37bc
    37b6:	5f 42 66 00 	mov.b	&0x0066,r15	
    37ba:	0c 3c       	jmp	$+26     	;abs 0x37d4
--
000037d8 <watchdog_interrupt>:
    37d8:	82 43 20 01 	mov	#0,	&0x0120	;r3 As==00
    37dc:	00 13       	reti			

000037de <status>:
    37de:	3f 50 7f ff 	add	#-129,	r15	;#0xff7f
    37e2:	2f 93       	cmp	#2,	r15	;r3 As==10
    37e4:	03 2c       	jc	$+8      	;abs 0x37ec
    37e6:	5f 42 60 24 	mov.b	&0x2460,r15	
    37ea:	10 01       	reta			
    37ec:	0f 43       	clr	r15		
    37ee:	10 01       	reta			

000037f0 <accm_write_reg>:
    37f0:	21 83       	decd	r1		
    37f2:	c1 4f 00 00 	mov.b	r15,	0(r1)	;0x0000(r1)
    37f6:	c1 4e 01 00 	mov.b	r14,	1(r1)	;0x0001(r1)
    37fa:	7f 40 53 00 	mov.b	#83,	r15	;#0x0053
    37fe:	b0 13 02 55 	calla	#0x05502	
--
00003c8c <wait_for_transmission>:
    3c8c:	0b 14       	pushm.a	#1,	r11	
    3c8e:	b0 13 a6 89 	calla	#0x089a6	
    3c92:	3b 40 34 f3 	mov	#-3276,	r11	;#0xf334
    3c96:	0b 8f       	sub	r15,	r11	
    3c98:	b0 13 40 3c 	calla	#0x03c40	
    3c9c:	7f f2       	and.b	#8,	r15	;r2 As==11
    3c9e:	05 24       	jz	$+12     	;abs 0x3caa
    3ca0:	b0 13 a6 89 	calla	#0x089a6	
    3ca4:	0f 5b       	add	r11,	r15	
    3ca6:	0f 93       	tst	r15		
    3ca8:	f7 3b       	jl	$-16     	;abs 0x3c98
    3caa:	0b 16       	popm.a	#1,	r11	
    3cac:	10 01       	reta			

00003cae <wait_for_status>:
    3cae:	1b 14       	pushm.a	#2,	r11	
    3cb0:	4a 4f       	mov.b	r15,	r10	
    3cb2:	b0 13 a6 89 	calla	#0x089a6	
    3cb6:	3b 40 34 f3 	mov	#-3276,	r11	;#0xf334
    3cba:	0b 8f       	sub	r15,	r11	
    3cbc:	b0 13 40 3c 	calla	#0x03c40	
    3cc0:	4f ba       	bit.b	r10,	r15	
    3cc2:	05 20       	jnz	$+12     	;abs 0x3cce
    3cc4:	b0 13 a6 89 	calla	#0x089a6	
    3cc8:	0f 5b       	add	r11,	r15	
    3cca:	0f 93       	tst	r15		
    3ccc:	f7 3b       	jl	$-16     	;abs 0x3cbc
    3cce:	1a 16       	popm.a	#2,	r11	
    3cd0:	10 01       	reta			

00003cd2 <getrxdata>:
    3cd2:	0b 14       	pushm.a	#1,	r11	
    3cd4:	d2 c3 19 00 	bic.b	#1,	&0x0019	;r3 As==01
--
00004120 <cc2420_set_txpower>:
    4120:	0b 14       	pushm.a	#1,	r11	
    4122:	4b 4f       	mov.b	r15,	r11	
    4124:	d2 53 62 24 	inc.b	&0x2462	
    4128:	3f 40 15 00 	mov	#21,	r15	;#0x0015
    412c:	b0 13 0c 3b 	calla	#0x03b0c	
    4130:	3f f0 e0 ff 	and	#-32,	r15	;#0xffe0
    4134:	0e 4b       	mov	r11,	r14	
    4136:	3e f0 1f 00 	and	#31,	r14	;#0x001f
    413a:	0e df       	bis	r15,	r14	
    413c:	3f 40 15 00 	mov	#21,	r15	;#0x0015
    4140:	b0 13 52 3b 	calla	#0x03b52	
    4144:	b0 13 60 3d 	calla	#0x03d60	
    4148:	0b 16       	popm.a	#1,	r11	
    414a:	10 01       	reta			

0000414c <cc2420_get_txpower>:
    414c:	0b 14       	pushm.a	#1,	r11	
    414e:	d2 53 62 24 	inc.b	&0x2462	
    4152:	3f 40 15 00 	mov	#21,	r15	;#0x0015
    4156:	b0 13 0c 3b 	calla	#0x03b0c	
    415a:	0b 4f       	mov	r15,	r11	
    415c:	b0 13 60 3d 	calla	#0x03d60	
    4160:	0f 4b       	mov	r11,	r15	
    4162:	3f f0 1f 00 	and	#31,	r15	;#0x001f
    4166:	0b 16       	popm.a	#1,	r11	
    4168:	10 01       	reta			

0000416a <cc2420_rssi>:
    416a:	1b 14       	pushm.a	#2,	r11	
    416c:	c2 93 62 24 	tst.b	&0x2462	
    4170:	1c 20       	jnz	$+58     	;abs 0x41aa
    4172:	d2 43 62 24 	mov.b	#1,	&0x2462	;r3 As==01
    4176:	c2 93 65 24 	tst.b	&0x2465	
    417a:	04 20       	jnz	$+10     	;abs 0x4184
--
0000455c <clock_delay>:
    455c:	02 3c       	jmp	$+6      	;abs 0x4562
    455e:	03 43       	nop			
    4560:	3f 53       	add	#-1,	r15	;r3 As==11
    4562:	0f 93       	tst	r15		
    4564:	fc 23       	jnz	$-6      	;abs 0x455e
    4566:	10 01       	reta			

00004568 <clock_wait>:
    4568:	3b 14       	pushm.a	#4,	r11	
    456a:	08 4e       	mov	r14,	r8	
    456c:	09 4f       	mov	r15,	r9	
    456e:	b0 13 1a 45 	calla	#0x0451a	
    4572:	0a 4e       	mov	r14,	r10	

----------------------------------------
FILE: extra-firmwares/udp-server.sky
TYPE: extra-firmwares/udp-server.sky: ELF 32-bit LSB executable, TI msp430, version 1 (embedded), statically linked, with debug_info, not stripped

[Memory size / flash-RAM efficiency]
   text	   data	    bss	    dec	    hex	filename
  43000	    330	   6968	  50298	   c47a	extra-firmwares/udp-server.sky

[Power / performance related symbols]
00004000 W __watchdog_support
00005956 t add_timer
00001c66 b bufmem_memb_mem
00001c5e b bufmem_memb_used
0000170e b buframmem_memb_mem
00001706 b buframmem_memb_used
00004834 t cc2420_cca
00004b02 T cc2420_get_txpower
000028c8 B cc2420_last_rssi
00004b20 T cc2420_rssi
00004c8a T cc2420_set_cca_threshold
00004ad6 T cc2420_set_txpower
0000435a T cc2420_timerb1_interrupt
00004ff4 T clock_delay
00004fcc T clock_init
00005000 T clock_seconds
00004fb2 T clock_time
0000566e T ctimer_expired
000055b4 T ctimer_init
0000132a b ctimer_list_list
00001124 D ctimer_process
00005616 T ctimer_reset
0000904c t ctimer_set.constprop.3
000055c8 T ctimer_set_with_process
00005646 T ctimer_stop
0000124a b debouncetimer
00001224 d defaultroutermemb
000025f8 b defaultroutermemb_memb_mem
000025f6 b defaultroutermemb_memb_used
00001d08 b dis_timer
000059c6 T etimer_next_expiration_time
000059ba T etimer_pending
0000112e D etimer_process
00005880 T etimer_request_poll
000059a8 T etimer_reset
00005996 T etimer_set
000059dc T etimer_stop
00009392 T get_probing_delay
0000903a t handle_dao_ack_timer
000090e0 t handle_dio_timer
0000923c t handle_dis_timer
0000901c t handle_leaving_timer
00009202 t handle_periodic_timer
000094b8 t handle_probing_timer
00009028 t handle_unicast_dio_timer
00006788 T memb_alloc
000067c6 T memb_free
00006752 T memb_init
000067f8 T memb_inmemb
00006822 T memb_numfree
0000111c d metadata_memb
000012f8 b metadata_memb_memb_mem
000012f0 b metadata_memb_memb_used
0000163a b mgt_timer
000068ca T msp430_add_lpm_req
000068d6 T msp430_cpu_init
00001510 b neighbor_addr_mem_memb_mem
00001500 b neighbor_addr_mem_memb_used
0000110c d neighbor_memb
00001270 b neighbor_memb_memb_mem
0000126e b neighbor_memb_memb_used
00001d30 b next_rtimer
0000123e d nodememb
00002688 b nodememb_memb_mem
00002678 b nodememb_memb_used
0000e37a r output_power
00001114 d packet_memb
000012c0 b packet_memb_memb_mem
000012b8 b packet_memb_memb_used
00006fd6 T packetbuf_addr
000028f2 B packetbuf_addrs
000015ba b packetbuf_aligned
00006fb6 T packetbuf_attr
00006efe T packetbuf_attr_clear
00006f88 T packetbuf_attr_copyfrom
00006f66 T packetbuf_attr_copyto
00002902 B packetbuf_attrs
00006f26 T packetbuf_clear
00006f38 T packetbuf_copyfrom
00006e70 T packetbuf_copyto
00006e54 T packetbuf_datalen
00006e64 T packetbuf_dataptr
00001d45 b packetbuf_hdr_len
00006ec2 T packetbuf_hdralloc
00006e5a T packetbuf_hdrlen
00006e4e T packetbuf_hdrptr
00006e2e T packetbuf_hdrreduce
00006fe8 T packetbuf_holds_broadcast
00001d50 b packetbuf_payload_len
00001d46 b packetbuf_ptr
00006fc0 T packetbuf_set_addr
00006fac T packetbuf_set_attr
00006e48 T packetbuf_set_datalen
00006eb6 T packetbuf_totlen
00001d1c b periodic_timer
000028d4 B periodic_timer
000070f0 T platform_idle
0000551a t process_thread_ctimer_process
0000588a t process_thread_etimer_process
0000742a T queuebuf_free
000073aa T queuebuf_init
000073c6 T queuebuf_new_from_packetbuf
000073bc T queuebuf_numfree
00007454 T queuebuf_to_packetbuf
00007418 T queuebuf_update_attr_from_packetbuf
00009262 T rpl_timers_dio_reset
00009544 T rpl_timers_init
00009314 T rpl_timers_notify_dao_ack
000092ac T rpl_timers_schedule_dao
000092e4 T rpl_timers_schedule_dao_ack
0000951e T rpl_timers_schedule_leaving
000091c6 T rpl_timers_schedule_periodic_dis
000095a8 T rpl_timers_schedule_state_update
00009290 T rpl_timers_schedule_unicast_dio
0000955c T rpl_timers_stop_dag_timers
00009502 T rpl_timers_unschedule_leaving
00009896 T rtimer_arch_init
000098a4 T rtimer_arch_now
000098b2 T rtimer_run_next
00002420 b rxdma_timer
0000110a d send_on_cca
0000b402 T stimer_expired
0000b6ae T timer_expired
0000b6d8 T timer_reset
0000b692 T timer_set
0000986a T timera0
00004eda T timera1
0000132c b timerlist
00002b92 B uip_ds6_timer_periodic
00002a2c B uip_ds6_timer_ra
0000c9d4 T uip_sr_free_all
0000459e t wait_for_status
0000457c t wait_for_transmission
0000d560 T watchdog_init
0000d51e T watchdog_interrupt
0000d538 T watchdog_periodic
0000d524 T watchdog_start
0000d54a T watchdog_stop

[CPU-intensive / large functions]
0000de92 000000fa T memcpy
0000df8c 000000fa T memmove
0000291e 000000fe B curr_instance
0000639c 00000106 T link_stats_input_callback
00002a34 00000108 B uip_ds6_if
0000b48c 00000114 T tcpip_ipv6_output
00007e02 00000118 T rpl_ext_header_srh_update
00004b6c 0000011e t get_value
000024d4 00000120 b _ds6_neighbors_mem
000056e8 00000120 T ds2411_init
00002688 00000120 b nodememb_memb_mem
0000d3f2 0000012c T uiplib_ipaddr_snprint
00007856 00000144 T rpl_dag_update_state
000052e2 00000146 T csma_output_packet
0000c2ec 00000146 T uip_icmp6_error_output
00004ca0 00000150 t set_value
00001d52 00000158 b frag_info
0000c064 00000164 T uip_ds6_init
00005e28 00000168 T frame802154_parse
000083ea 0000016c t dao_input
0000d634 00000194 t print_field
0000799a 000001b6 T rpl_process_dio
00005126 000001bc t transmit_from_queue
00009cce 000001fc t add_fragment
00008898 00000230 T rpl_icmp6_dio_output
0000403e 00000238 T main
0000c4d2 00000298 t ns_input
00008082 000002aa T rpl_ext_header_update
00008556 000002ba t dio_input
0000cd5e 000004c2 T uip_process
0000170e 00000550 b buframmem_memb_mem
00001eac 00000558 b frag_buf
0000d7c8 0000063e T vuprintf
00009f98 0000079e t output
0000a736 00000a1a t input

[Power / performance related strings]
Ctimer process
Event timer

[Busy-wait / delay / loop related disassembly samples]
00004000 <__watchdog_support>:
    4000:	55 42 20 01 	mov.b	&0x0120,r5	
    4004:	35 d0 08 5a 	bis	#23048,	r5	;#0x5a08
    4008:	82 45 80 2d 	mov	r5,	&0x2d80	

0000400c <__init_stack>:
    400c:	31 40 00 39 	mov	#14592,	r1	;#0x3900

00004010 <__do_copy_data>:
    4010:	3f 40 4a 01 	mov	#330,	r15	;#0x014a
    4014:	0f 93       	tst	r15		
    4016:	08 24       	jz	$+18     	;abs 0x4028
    4018:	92 42 80 2d 	mov	&0x2d80,&0x0120	
    401c:	20 01 
    401e:	2f 83       	decd	r15		
    4020:	9f 4f da e7 	mov	-6182(r15),4352(r15);0xe7da(r15), 0x1100(r15)
    4024:	00 11 
    4026:	f8 23       	jnz	$-14     	;abs 0x4018

--
0000435a <cc2420_timerb1_interrupt>:
    435a:	0f 12       	push	r15		
    435c:	1f 42 1e 01 	mov	&0x011e,r15	
    4360:	e2 b3 1c 00 	bit.b	#2,	&0x001c	;r3 As==10
    4364:	06 24       	jz	$+14     	;abs 0x4372
    4366:	d2 53 d0 28 	inc.b	&0x28d0	
    436a:	92 42 94 01 	mov	&0x0194,&0x28ca	
    436e:	ca 28 
    4370:	05 3c       	jmp	$+12     	;abs 0x437c
    4372:	c2 43 d0 28 	mov.b	#0,	&0x28d0	;r3 As==00
    4376:	92 42 94 01 	mov	&0x0194,&0x28d2	
    437a:	d2 28 
    437c:	3f 41       	pop	r15		
    437e:	00 13       	reti			

00004380 <cc2420_port1_interrupt>:
    4380:	0f 12       	push	r15		
    4382:	0e 12       	push	r14		
    4384:	0d 12       	push	r13		
--
0000457c <wait_for_transmission>:
    457c:	0b 12       	push	r11		
    457e:	b0 12 a4 98 	call	#0x98a4	
    4582:	3b 40 34 f3 	mov	#-3276,	r11	;#0xf334
    4586:	0b 8f       	sub	r15,	r11	
    4588:	b0 12 2e 45 	call	#0x452e	
    458c:	7f f2       	and.b	#8,	r15	;r2 As==11
    458e:	05 24       	jz	$+12     	;abs 0x459a
    4590:	b0 12 a4 98 	call	#0x98a4	
    4594:	0f 5b       	add	r11,	r15	
    4596:	0f 93       	tst	r15		
    4598:	f7 3b       	jl	$-16     	;abs 0x4588
    459a:	3b 41       	pop	r11		
    459c:	30 41       	ret			

0000459e <wait_for_status>:
    459e:	0b 12       	push	r11		
    45a0:	0a 12       	push	r10		
    45a2:	4a 4f       	mov.b	r15,	r10	
    45a4:	b0 12 a4 98 	call	#0x98a4	
    45a8:	3b 40 34 f3 	mov	#-3276,	r11	;#0xf334
    45ac:	0b 8f       	sub	r15,	r11	
    45ae:	b0 12 2e 45 	call	#0x452e	
    45b2:	4f ba       	bit.b	r10,	r15	
    45b4:	05 20       	jnz	$+12     	;abs 0x45c0
    45b6:	b0 12 a4 98 	call	#0x98a4	
    45ba:	0f 5b       	add	r11,	r15	
    45bc:	0f 93       	tst	r15		
    45be:	f7 3b       	jl	$-16     	;abs 0x45ae
    45c0:	3a 41       	pop	r10		
    45c2:	3b 41       	pop	r11		
    45c4:	30 41       	ret			

000045c6 <getrxdata>:
--
00004ad6 <cc2420_set_txpower>:
    4ad6:	0b 12       	push	r11		
    4ad8:	4b 4f       	mov.b	r15,	r11	
    4ada:	d2 53 56 12 	inc.b	&0x1256	
    4ade:	3f 40 15 00 	mov	#21,	r15	;#0x0015
    4ae2:	b0 12 de 43 	call	#0x43de	
    4ae6:	3f f0 e0 ff 	and	#-32,	r15	;#0xffe0
    4aea:	0e 4b       	mov	r11,	r14	
    4aec:	3e f0 1f 00 	and	#31,	r14	;#0x001f
    4af0:	0e df       	bis	r15,	r14	
    4af2:	3f 40 15 00 	mov	#21,	r15	;#0x0015
    4af6:	b0 12 2a 44 	call	#0x442a	
    4afa:	b0 12 58 46 	call	#0x4658	
    4afe:	3b 41       	pop	r11		
    4b00:	30 41       	ret			

00004b02 <cc2420_get_txpower>:
    4b02:	0b 12       	push	r11		
    4b04:	d2 53 56 12 	inc.b	&0x1256	
    4b08:	3f 40 15 00 	mov	#21,	r15	;#0x0015
    4b0c:	b0 12 de 43 	call	#0x43de	
    4b10:	0b 4f       	mov	r15,	r11	
    4b12:	b0 12 58 46 	call	#0x4658	
    4b16:	0f 4b       	mov	r11,	r15	
    4b18:	3f f0 1f 00 	and	#31,	r15	;#0x001f
    4b1c:	3b 41       	pop	r11		
    4b1e:	30 41       	ret			

00004b20 <cc2420_rssi>:
    4b20:	0b 12       	push	r11		
    4b22:	0a 12       	push	r10		
    4b24:	c2 93 56 12 	tst.b	&0x1256	
    4b28:	1c 20       	jnz	$+58     	;abs 0x4b62
    4b2a:	d2 43 56 12 	mov.b	#1,	&0x1256	;r3 As==01
    4b2e:	c2 93 59 12 	tst.b	&0x1259	
--
00004eda <timera1>:
    4eda:	0f 12       	push	r15		
    4edc:	0e 12       	push	r14		
    4ede:	0d 12       	push	r13		
    4ee0:	0c 12       	push	r12		
    4ee2:	b0 12 24 d5 	call	#0xd524	
    4ee6:	1f 42 2e 01 	mov	&0x012e,r15	
    4eea:	2f 93       	cmp	#2,	r15	;r3 As==10
    4eec:	5b 20       	jnz	$+184    	;abs 0x4fa4
    4eee:	b2 b0 20 00 	bit	#32,	&0x0160	;#0x0020
    4ef2:	60 01 
    4ef4:	0b 24       	jz	$+24     	;abs 0x4f0c
    4ef6:	1e 42 74 01 	mov	&0x0174,r14	
    4efa:	1f 42 70 01 	mov	&0x0170,r15	
    4efe:	1d 42 70 01 	mov	&0x0170,r13	
    4f02:	0f 9d       	cmp	r13,	r15	
    4f04:	fa 23       	jnz	$-10     	;abs 0x4efa
    4f06:	0e 8f       	sub	r15,	r14	
    4f08:	1e 93       	cmp	#1,	r14	;r3 As==01
--
00004ff4 <clock_delay>:
    4ff4:	02 3c       	jmp	$+6      	;abs 0x4ffa
    4ff6:	03 43       	nop			
    4ff8:	3f 53       	add	#-1,	r15	;r3 As==11
    4ffa:	0f 93       	tst	r15		
    4ffc:	fc 23       	jnz	$-6      	;abs 0x4ff6
    4ffe:	30 41       	ret			

00005000 <clock_seconds>:
    5000:	1e 42 68 12 	mov	&0x1268,r14	
    5004:	1f 42 6a 12 	mov	&0x126a,r15	
    5008:	1c 42 68 12 	mov	&0x1268,r12	
    500c:	1d 42 6a 12 	mov	&0x126a,r13	
    5010:	0e 9c       	cmp	r12,	r14	
    5012:	f6 23       	jnz	$-18     	;abs 0x5000
    5014:	0f 9d       	cmp	r13,	r15	
    5016:	f4 23       	jnz	$-22     	;abs 0x5000
    5018:	30 41       	ret			

--
0000551a <process_thread_ctimer_process>:
    551a:	0b 12       	push	r11		
    551c:	0a 12       	push	r10		
    551e:	09 12       	push	r9		
    5520:	0a 4f       	mov	r15,	r10	
    5522:	2f 4f       	mov	@r15,	r15	
    5524:	0f 93       	tst	r15		
    5526:	04 24       	jz	$+10     	;abs 0x5530
    5528:	3f 90 45 00 	cmp	#69,	r15	;#0x0045
    552c:	34 20       	jnz	$+106    	;abs 0x5596
    552e:	3a 3c       	jmp	$+118    	;abs 0x55a4
    5530:	1b 42 2a 13 	mov	&0x132a,r11	
    5534:	09 3c       	jmp	$+20     	;abs 0x5548
    5536:	1d 4b 06 00 	mov	6(r11),	r13	;0x0006(r11)
    553a:	1e 4b 08 00 	mov	8(r11),	r14	;0x0008(r11)
    553e:	0f 4b       	mov	r11,	r15	
    5540:	2f 53       	incd	r15		
    5542:	b0 12 96 59 	call	#0x5996	
    5546:	2b 4b       	mov	@r11,	r11	
--
000055b4 <ctimer_init>:
    55b4:	c2 43 28 13 	mov.b	#0,	&0x1328	;r3 As==00
    55b8:	82 43 2a 13 	mov	#0,	&0x132a	;r3 As==00
    55bc:	0e 43       	clr	r14		
    55be:	3f 40 24 11 	mov	#4388,	r15	;#0x1124
    55c2:	b0 12 5c 73 	call	#0x735c	
    55c6:	30 41       	ret			

000055c8 <ctimer_set_with_process>:
