=== 20. CONTIKI-NG SPECIFIC ANALYSIS ===
udp-client.c:22:static struct simple_udp_connection udp_conn;
udp-client.c:33:PROCESS(udp_client_process, "UDP client");
udp-client.c:34:AUTOSTART_PROCESSES(&udp_client_process);
udp-client.c:37:udp_rx_callback(struct simple_udp_connection *c,
udp-client.c:38:         const uip_ipaddr_t *sender_addr,
udp-client.c:40:         const uip_ipaddr_t *receiver_addr,
udp-client.c:56:  LOG_INFO_(" LLSEC LV:%d", uipbuf_get_attr(UIPBUF_ATTR_LLSEC_LEVEL));
udp-client.c:74:PROCESS_THREAD(udp_client_process, ev, data)
udp-client.c:76:  static struct etimer periodic_timer;
udp-client.c:78:  uip_ipaddr_t dest_ipaddr;
udp-client.c:82:  PROCESS_BEGIN();
udp-client.c:85:  simple_udp_register(&udp_conn, UDP_CLIENT_PORT, NULL,
udp-client.c:88:  etimer_set(&periodic_timer, random_rand() % SEND_INTERVAL);
udp-client.c:90:    PROCESS_WAIT_EVENT_UNTIL(etimer_expired(&periodic_timer));
udp-client.c:92:    if(NETSTACK_ROUTING.node_is_reachable() &&
udp-client.c:93:        NETSTACK_ROUTING.get_root_ipaddr(&dest_ipaddr)) {
udp-client.c:105:        simple_udp_sendto(&udp_conn, str, strlen(str), &dest_ipaddr);
udp-client.c:118:    etimer_set(&periodic_timer, SEND_INTERVAL
udp-client.c:122:  PROCESS_END();
udp-server.c:43:static struct simple_udp_connection udp_conn;
udp-server.c:45:PROCESS(udp_server_process, "UDP server");
udp-server.c:46:AUTOSTART_PROCESSES(&udp_server_process);
udp-server.c:49:udp_rx_callback(struct simple_udp_connection *c,
udp-server.c:50:         const uip_ipaddr_t *sender_addr,
udp-server.c:52:         const uip_ipaddr_t *receiver_addr,
udp-server.c:63:  simple_udp_sendto(&udp_conn, data, datalen, sender_addr);
udp-server.c:67:PROCESS_THREAD(udp_server_process, ev, data)
udp-server.c:69:  PROCESS_BEGIN();
udp-server.c:72:  NETSTACK_ROUTING.root_start();
udp-server.c:75:  simple_udp_register(&udp_conn, UDP_SERVER_PORT, NULL,
udp-server.c:78:  PROCESS_END();
336:# 1 "../../os/sys/etimer.h" 1
337:# 69 "../../os/sys/etimer.h"
345:# 70 "../../os/sys/etimer.h" 2
346:# 79 "../../os/sys/etimer.h"
347:struct etimer {
349:  struct etimer *next;
352:# 101 "../../os/sys/etimer.h"
353:void etimer_set(struct etimer *et, clock_time_t interval);
354:# 119 "../../os/sys/etimer.h"
355:void etimer_reset(struct etimer *et);
356:# 132 "../../os/sys/etimer.h"
357:void etimer_reset_with_new_interval(struct etimer *et, clock_time_t interval);
358:# 149 "../../os/sys/etimer.h"
359:void etimer_restart(struct etimer *et);
360:# 171 "../../os/sys/etimer.h"
361:void etimer_adjust(struct etimer *et, int td);
362:# 180 "../../os/sys/etimer.h"
363:clock_time_t etimer_expiration_time(struct etimer *et);
364:# 190 "../../os/sys/etimer.h"
365:clock_time_t etimer_start_time(struct etimer *et);
366:# 200 "../../os/sys/etimer.h"
368:etimer_expired(struct etimer *et)
372:# 216 "../../os/sys/etimer.h"
373:void etimer_stop(struct etimer *et);
374:# 233 "../../os/sys/etimer.h"
375:void etimer_request_poll(void);
376:# 243 "../../os/sys/etimer.h"
377:int etimer_pending(void);
378:# 254 "../../os/sys/etimer.h"
379:clock_time_t etimer_next_expiration_time(void);
384:extern struct process etimer_process;
391:  struct etimer etimer;
417:  return etimer_expiration_time(&c->etimer);
423:  return etimer_start_time(&c->etimer);
436:# 1 "../../os/sys/etimer.h" 1
755:# 1 "../../os/net/ipv6/tcpip.h" 1
756:# 72 "../../os/net/ipv6/tcpip.h"
759:struct tcpip_uipstate {
768:typedef struct tcpip_uipstate uip_udp_appstate_t;
769:typedef struct tcpip_uipstate uip_tcp_appstate_t;
770:typedef struct tcpip_uipstate uip_icmp6_appstate_t;
772:# 87 "../../os/net/ipv6/tcpip.h" 2
773:void tcpip_uipcall(void);
774:# 109 "../../os/net/ipv6/tcpip.h"
776:# 126 "../../os/net/ipv6/tcpip.h"
778:# 140 "../../os/net/ipv6/tcpip.h"
780:# 165 "../../os/net/ipv6/tcpip.h"
783:# 179 "../../os/net/ipv6/tcpip.h"
784:void tcpip_poll_tcp(struct uip_conn *conn);
785:# 188 "../../os/net/ipv6/tcpip.h"
787:# 204 "../../os/net/ipv6/tcpip.h"
790:# 226 "../../os/net/ipv6/tcpip.h"
793:# 241 "../../os/net/ipv6/tcpip.h"
795:# 272 "../../os/net/ipv6/tcpip.h"
796:void tcpip_poll_udp(struct uip_udp_conn *conn);
797:# 318 "../../os/net/ipv6/tcpip.h"
798:extern process_event_t tcpip_event;
799:# 335 "../../os/net/ipv6/tcpip.h"
800:void tcpip_input(void);
806:uint8_t tcpip_output(const uip_lladdr_t *);
811:void tcpip_ipv6_output(void);
816:extern unsigned char tcpip_do_forwarding;
821:extern unsigned char tcpip_is_forwarding;
828:extern struct process tcpip_process;

----------------------------------------
FILE: ./new-firmware.z1
./new-firmware.z1: ELF 32-bit LSB executable, TI msp430, version 1 (embedded), statically linked, with debug_info, not stripped

[Contiki process / protothread symbols]
00001100 D accmeter_process
0000c97e R autostart_processes
00003a3a T autostart_start
00006c76 t call_process
0000110c D cc2420_process
00001130 D ctimer_process
0000504c T ctimer_set_with_process
0000113c D etimer_process
00006cb6 t exit_process
00012e5a t ext_hdr_options_process
         U gpio_hal_arch_port_interrupt_enable
0000114a D hello_world_process
000014e4 b ip_processor_list_list
00002386 b nd6_opt_llao
00002388 b nd6_opt_offset
0000687c T netstack_process_ip_callback
00006d6e T process_alloc_event
00001574 B process_current
0000735c t process_dio_init_dag
00006d7c T process_init
00001576 B process_list
00002890 B process_maxevents
00006e24 T process_nevents
00006ec4 T process_poll
00006e32 T process_post
00006e7c T process_post_synch
00006d98 T process_run
00006e8e T process_start
0000389c t process_thread_accmeter_process
00004034 t process_thread_cc2420_process
00004f94 t process_thread_ctimer_process
000051a8 t process_thread_etimer_process
00005ba6 t process_thread_hello_world_process
0000ab06 t process_thread_sensors_process
0000c074 t process_thread_stack_check_process
0000c5f4 t process_thread_tcpip_process
00007d32 T rpl_process_dao
00007dbc T rpl_process_dao_ack
000079a0 T rpl_process_dio
00007ce4 T rpl_process_dis
00007e3c T rpl_process_hbh
000011d6 D sensors_process
000011e2 D stack_check_process
000011ee D tcpip_process
000130f2 T uip_process

[Timer symbols]
00004592 T clock_seconds
00004520 T clock_time
000050fa T ctimer_expired
00005034 T ctimer_init
0000133c b ctimer_list_list
00001130 D ctimer_process
000050a6 T ctimer_reset
00005096 T ctimer_set
0000504c T ctimer_set_with_process
000050d2 T ctimer_stop
00001264 b debouncetimer
000052d0 T etimer_expired
000052ea T etimer_next_expiration_time
000052de T etimer_pending
0000113c D etimer_process
0000519e T etimer_request_poll
000052be T etimer_reset
000052ac T etimer_set
00005300 T etimer_stop
00001b84 b next_rtimer
00004f94 t process_thread_ctimer_process
000051a8 t process_thread_etimer_process
0000aab8 T rtimer_arch_init
0000aac6 T rtimer_arch_now
0000aad4 T rtimer_arch_schedule
0000aada T rtimer_init
0000aae0 T rtimer_run_next
0000c162 T stimer_expired
0000c146 T stimer_set
00001254 b suppressTimer1
0000125c b suppressTimer2
0000c6fc T timer_expired
0000c726 T timer_reset
0000c6e0 T timer_set

[NETSTACK / packetbuf / uIP callback symbols]
00001350 b _link_stats_mem
00001b18 b _rpl_neighbors_mem
00001b8a b callback
00004cc8 T csma_output_init
00004a58 T csma_output_packet
0000116c D curr_log_level_rpl
0000116a D curr_log_level_tcpip
00008a26 t dao_ack_input
00008aea t dao_input
00008d32 t dio_input
00009186 t dis_input
00002384 b echo_reply_callback_list_list
00011fa4 t echo_reply_input
0001206c t echo_request_input
         U gpio_hal_arch_port_pin_set_input
00010000 t input
00002372 b input_handler_list_list
00004d66 t input_packet
00005dba T link_stats_from_lladdr
00005ff8 T link_stats_init
00005ed8 T link_stats_input_callback
00005dc6 T link_stats_is_fresh
00005df6 T link_stats_packet_sent
00005fce T link_stats_reset
00001156 d link_stats_struct
00006022 T linkaddr_cmp
0000601a T linkaddr_copy
000024e4 B linkaddr_node_addr
0000c982 R linkaddr_null
00006034 T linkaddr_set_node_addr
00006270 T mac_call_sent_callback
000068c2 T netstack_init
0000687c T netstack_process_ip_callback
000124de t ns_input
0000121c d ns_input_handler
0000b1cc t output
0000c948 r output_power
0000c5b8 t packet_input.part.2
00006ac8 T packetbuf_addr
000024ee B packetbuf_addrs
000014ec b packetbuf_aligned
00006aaa T packetbuf_attr
000069f4 T packetbuf_attr_clear
00006a7a T packetbuf_attr_copyfrom
00006a58 T packetbuf_attr_copyto
000024fe B packetbuf_attrs
00006a1c T packetbuf_clear
00006a2e T packetbuf_copyfrom
00006972 T packetbuf_copyto
00006956 T packetbuf_datalen
00006966 T packetbuf_dataptr
0000249b b packetbuf_hdr_len
000069b8 T packetbuf_hdralloc
0000695c T packetbuf_hdrlen
00006950 T packetbuf_hdrptr
00006930 T packetbuf_hdrreduce
00006ad6 T packetbuf_holds_broadcast
00001b9e b packetbuf_payload_len
00001b96 b packetbuf_ptr
00006ab4 T packetbuf_set_addr
00006a9e T packetbuf_set_attr
0000694a T packetbuf_set_datalen
000069ac T packetbuf_totlen
0000c5f4 t process_thread_tcpip_process
00006fb4 T queuebuf_attr
00006f58 T queuebuf_free
00006edc T queuebuf_init
00006ef8 T queuebuf_new_from_packetbuf
00006eee T queuebuf_numfree
00006f82 T queuebuf_to_packetbuf
00006f46 T queuebuf_update_attr_from_packetbuf
00007512 T rpl_dag_get_root_ipaddr
00007f60 T rpl_dag_init
00007e62 T rpl_dag_init_root
00007530 T rpl_dag_leave
000075d4 T rpl_dag_periodic
000075c8 T rpl_dag_poison_and_leave
0000777a T rpl_dag_ready_to_advertise
00007190 T rpl_dag_root_is_root
000071a4 T rpl_dag_root_print_links
00006fce T rpl_dag_root_set_prefix
000070c4 T rpl_dag_root_start
00007500 T rpl_dag_state_to_str
0000779c T rpl_dag_update_state
000082f8 T rpl_ext_header_hbh_update
000084a8 T rpl_ext_header_remove
00008008 T rpl_ext_header_srh_get_next_hop
00008106 T rpl_ext_header_srh_update
00008568 T rpl_ext_header_update
0000a8d4 T rpl_get_global_address
0000a750 T rpl_get_leaf_only
00007706 T rpl_global_repair
0000a728 T rpl_has_joined
000097b0 T rpl_icmp6_dao_ack_output
000095be T rpl_icmp6_dao_output
0000931c T rpl_icmp6_dio_output
000092a6 T rpl_icmp6_dis_output
00009850 T rpl_icmp6_init
0000920e T rpl_icmp6_update_nbr_table
0000768a T rpl_is_addr_in_our_dag
0000a73a T rpl_is_reachable
00002498 b rpl_leaf_only
0000a81c T rpl_link_callback
0000c992 R rpl_lite_driver
000076b0 T rpl_local_repair
0000a898 T rpl_lollipop_greater_than
000011a8 D rpl_mrhof
00002622 B rpl_multicast_addr
00009a36 T rpl_nbr_gc_get_worst
00009aa0 T rpl_neighbor_count
00009fd0 T rpl_neighbor_get_from_ipaddr
00009acc T rpl_neighbor_get_from_lladdr
00009b2c T rpl_neighbor_get_ipaddr
00009af0 T rpl_neighbor_get_link_metric
00009b36 T rpl_neighbor_get_link_stats
00009b20 T rpl_neighbor_get_lladdr
0000a080 T rpl_neighbor_init
00009ad8 T rpl_neighbor_is_acceptable_parent
00009b40 T rpl_neighbor_is_fresh
00009da2 T rpl_neighbor_print_list
00009b08 T rpl_neighbor_rank_via_nbr
00009f7c T rpl_neighbor_remove_all
00009fe4 T rpl_neighbor_select_best
00009ec4 T rpl_neighbor_set_preferred_parent
00009bc8 T rpl_neighbor_snprint
000011ca D rpl_neighbors
000011cc d rpl_neighbors_struct
00007d32 T rpl_process_dao
00007dbc T rpl_process_dao_ack
000079a0 T rpl_process_dio
00007ce4 T rpl_process_dis
00007e3c T rpl_process_hbh
0000a960 T rpl_reset_prefix
0000a544 T rpl_schedule_probing
0000a62a T rpl_schedule_probing_now
0000a9d0 T rpl_set_prefix_from_addr
0000a2e8 T rpl_timers_dio_reset
0000a694 T rpl_timers_init
0000a3d0 T rpl_timers_notify_dao_ack
0000a364 T rpl_timers_schedule_dao
0000a39c T rpl_timers_schedule_dao_ack
0000a66a T rpl_timers_schedule_leaving
0000a234 T rpl_timers_schedule_periodic_dis
0000a70c T rpl_timers_schedule_state_update
0000a344 T rpl_timers_schedule_unicast_dio
0000a6b0 T rpl_timers_stop_dag_timers
0000a64e T rpl_timers_unschedule_leaving
0000a6fc T rpl_timers_unschedule_state_update
0000c9e4 R sicslowpan_driver
0000ac40 T sicslowpan_init
00002892 B tcpip_event
0000c1b4 T tcpip_input
0000c1d2 T tcpip_ipv6_output
0000c192 T tcpip_output
000011ee D tcpip_process
0000c6b6 T tcpip_uipcall
0000227e b uart0_input_handler
000027be B uip_aligned_buf
0000284e B uip_appdata
00012fc8 t uip_check_mtu
00002850 B uip_conn
00011a6c T uip_ds6_addr_add
000119bc T uip_ds6_addr_lookup
00011b54 T uip_ds6_addr_rm
0000274b B uip_ds6_addr_size
00011cec T uip_ds6_compute_reachable_time
00011806 T uip_ds6_default_prefix
00011594 T uip_ds6_defrt_add
000116a4 T uip_ds6_defrt_choose
00011558 T uip_ds6_defrt_lookup
000117aa T uip_ds6_defrt_periodic
00011500 T uip_ds6_defrt_rm
000119e6 T uip_ds6_get_link_local
0000263a B uip_ds6_if
00011d22 T uip_ds6_init
0001197a T uip_ds6_is_addr_onlink
000114e2 T uip_ds6_link_callback
0001180c T uip_ds6_list_loop
00011a24 T uip_ds6_maddr_add
00011b2a T uip_ds6_maddr_lookup

[Contiki behavior strings]
Accelerometer process
Starting Contiki-NG-release/v4.8-625-g8518cbaff-dirty
packet sent to 
packet sent: no metadata
could not allocate queuebuf, dropping packet
could not allocate packet, dropping packet
could not allocate neighbor, dropping packet
received packet from 
Ctimer process
Event timer
Hello world process
just joined, no parent yet, setting timer for leaving
reset DIO timer (%s)
packet sent to 
RPL Lite
output: could not allocate queuebuf, dropping fragment
output: failed to calculate payload size - dropping packet
Not enough packetbuf space to compress header (%u bytes, %u left). Aborting.
output: fragmentation needed. fragments: %u, free queuebufs: %zu
output: dropping packet, not enough free bufs (needed: %zu, free: %zu)
output: uip_len is smaller than uncomp_hdr_len (%d < %d)
Not enough packetbuf space to decompress header (%u bytes, %u left). Aborting.
output: processing %u bytes packet from 
uip_ds6_nbr_update_ll
Extension header option too long: dropping packet
Processing PAD1 option
Processing PADN option
Processing RPL option
RPL Option Error: Dropping Packet
Removing IPv6 extension headers (extlen: %d, uiplen: %d)
uip_len too short compared to ext len
dropping packet with length %d > %d
Dropping packet, src is mcast
Dropping packet, not for me and link local or multicast
Processing hbh header
Processing desto header
Processing Routing header

[Disassembly samples around process/network functions]
000130f2 <uip_process>:
   130f2:	2b 14       	pushm.a	#3,	r11	
   130f4:	21 83       	decd	r1		
   130f6:	6f 92       	cmp.b	#4,	r15	;r2 As==10
   130f8:	02 20       	jnz	$+6      	;abs 0x130fe
   130fa:	80 01 b8 38 	bra	#0x138b8	
   130fe:	b2 40 fa 27 	mov	#10234,	&0x284e	;#0x27fa
   13102:	4e 28 
   13104:	b2 40 fa 27 	mov	#10234,	&0x27b4	;#0x27fa
   13108:	b4 27 
   1310a:	7f 90 05 00 	cmp.b	#5,	r15	;#0x0005
   1310e:	17 20       	jnz	$+48     	;abs 0x1313e
   13110:	1f 42 4c 28 	mov	&0x284c,r15	
   13114:	8f 93 10 00 	tst	16(r15)	;0x0010(r15)
   13118:	02 20       	jnz	$+6      	;abs 0x1311e
   1311a:	80 01 4c 3a 	bra	#0x13a4c	
   1311e:	82 43 50 28 	mov	#0,	&0x2850	;r3 As==00
   13122:	b2 40 ee 27 	mov	#10222,	&0x284e	;#0x27ee
   13126:	4e 28 
   13128:	b2 40 ee 27 	mov	#10222,	&0x27b4	;#0x27ee
   1312c:	b4 27 
--
0000389c <process_thread_accmeter_process>:
    389c:	0b 14       	pushm.a	#1,	r11	
    389e:	0b 4f       	mov	r15,	r11	
    38a0:	7e 90 82 ff 	cmp.b	#-126,	r14	;#0xff82
    38a4:	13 20       	jnz	$+40     	;abs 0x38cc
    38a6:	7f 40 30 00 	mov.b	#48,	r15	;#0x0030
    38aa:	b0 13 48 38 	calla	#0x03848	
    38ae:	4e 4f       	mov.b	r15,	r14	
    38b0:	1e b2 50 12 	bit	&0x1250,r14	
    38b4:	03 24       	jz	$+8      	;abs 0x38bc
    38b6:	2e 00 b0 24 	mova	&0x024b0,r14	
    38ba:	05 3c       	jmp	$+12     	;abs 0x38c6
    38bc:	1e b2 52 12 	bit	&0x1252,r14	
    38c0:	05 24       	jz	$+12     	;abs 0x38cc
    38c2:	2e 00 ac 24 	mova	&0x024ac,r14	
    38c6:	de 03       	tsta	r14		
    38c8:	01 24       	jz	$+4      	;abs 0x38cc
    38ca:	4e 13       	calla	r14		
    38cc:	2f 4b       	mov	@r11,	r15	
    38ce:	0f 93       	tst	r15		
    38d0:	04 24       	jz	$+10     	;abs 0x38da
--
00004034 <process_thread_cc2420_process>:
    4034:	0b 14       	pushm.a	#1,	r11	
    4036:	0b 4f       	mov	r15,	r11	
    4038:	2f 4f       	mov	@r15,	r15	
    403a:	0f 93       	tst	r15		
    403c:	04 24       	jz	$+10     	;abs 0x4046
    403e:	3f 90 81 03 	cmp	#897,	r15	;#0x0381
    4042:	15 20       	jnz	$+44     	;abs 0x406e
    4044:	1b 3c       	jmp	$+56     	;abs 0x407c
    4046:	bb 40 81 03 	mov	#897,	0(r11)	;#0x0381, 0x0000(r11)
    404a:	00 00 
    404c:	15 3c       	jmp	$+44     	;abs 0x4078
    404e:	7e 90 82 ff 	cmp.b	#-126,	r14	;#0xff82
    4052:	12 20       	jnz	$+38     	;abs 0x4078
    4054:	b0 13 1c 6a 	calla	#0x06a1c	
    4058:	b0 13 66 69 	calla	#0x06966	
    405c:	3e 40 80 00 	mov	#128,	r14	;#0x0080
    4060:	b0 13 7a 3f 	calla	#0x03f7a	
    4064:	b0 13 4a 69 	calla	#0x0694a	
    4068:	80 13 62 c9 	calla	&0x0c962	
    406c:	ec 3f       	jmp	$-38     	;abs 0x4046
--
00004f94 <process_thread_ctimer_process>:
    4f94:	2b 14       	pushm.a	#3,	r11	
    4f96:	0a 4f       	mov	r15,	r10	
    4f98:	09 4d       	mov	r13,	r9	
    4f9a:	2f 4f       	mov	@r15,	r15	
    4f9c:	0f 93       	tst	r15		
    4f9e:	04 24       	jz	$+10     	;abs 0x4fa8
    4fa0:	3f 90 4a 00 	cmp	#74,	r15	;#0x004a
    4fa4:	3a 20       	jnz	$+118    	;abs 0x501a
    4fa6:	40 3c       	jmp	$+130    	;abs 0x5028
    4fa8:	3f 40 3c 13 	mov	#4924,	r15	;#0x133c
    4fac:	b0 13 46 60 	calla	#0x06046	
    4fb0:	0b 4f       	mov	r15,	r11	
    4fb2:	09 3c       	jmp	$+20     	;abs 0x4fc6
    4fb4:	1d 4b 06 00 	mov	6(r11),	r13	;0x0006(r11)
    4fb8:	1e 4b 08 00 	mov	8(r11),	r14	;0x0008(r11)
    4fbc:	0f 4b       	mov	r11,	r15	
    4fbe:	2f 53       	incd	r15		
    4fc0:	b0 13 ac 52 	calla	#0x052ac	
    4fc4:	2b 4b       	mov	@r11,	r11	
    4fc6:	0b 93       	tst	r11		
--
00005034 <ctimer_init>:
    5034:	c2 43 65 24 	mov.b	#0,	&0x2465	;r3 As==00
    5038:	3f 40 3c 13 	mov	#4924,	r15	;#0x133c
    503c:	b0 13 40 60 	calla	#0x06040	
    5040:	0e 43       	clr	r14		
    5042:	3f 40 30 11 	mov	#4400,	r15	;#0x1130
    5046:	b0 13 8e 6e 	calla	#0x06e8e	
    504a:	10 01       	reta			

0000504c <ctimer_set_with_process>:
    504c:	2b 14       	pushm.a	#3,	r11	
    504e:	09 4f       	mov	r15,	r9	
    5050:	0a 4d       	mov	r13,	r10	
    5052:	0b 4e       	mov	r14,	r11	
    5054:	9f 41 12 00 	mov	18(r1),	14(r15)	;0x0012(r1), 0x000e(r15)
    5058:	0e 00 
    505a:	7f 0c 10 00 	mova	r12,	16(r15)	;0x0010(r15)
    505e:	9f 41 10 00 	mov	16(r1),	20(r15)	;0x0010(r1), 0x0014(r15)
    5062:	14 00 
    5064:	c2 93 65 24 	tst.b	&0x2465	
    5068:	0b 24       	jz	$+24     	;abs 0x5080
    506a:	1b 42 74 15 	mov	&0x1574,r11	
    506e:	b2 40 30 11 	mov	#4400,	&0x1574	;#0x1130
    5072:	74 15 
    5074:	2f 53       	incd	r15		
    5076:	b0 13 ac 52 	calla	#0x052ac	
    507a:	82 4b 74 15 	mov	r11,	&0x1574	
    507e:	04 3c       	jmp	$+10     	;abs 0x5088
    5080:	89 4d 06 00 	mov	r13,	6(r9)	;0x0006(r9)
    5084:	89 4e 08 00 	mov	r14,	8(r9)	;0x0008(r9)
--
00005096 <ctimer_set>:
    5096:	12 12 74 15 	push	&0x1574	
    509a:	11 12 08 00 	push	8(r1)		;0x0008(r1)
    509e:	b0 13 4c 50 	calla	#0x0504c	
    50a2:	21 52       	add	#4,	r1	;r2 As==10
    50a4:	10 01       	reta			

000050a6 <ctimer_reset>:
    50a6:	1b 14       	pushm.a	#2,	r11	
    50a8:	0b 4f       	mov	r15,	r11	
    50aa:	c2 93 65 24 	tst.b	&0x2465	
    50ae:	0a 24       	jz	$+22     	;abs 0x50c4
    50b0:	1a 42 74 15 	mov	&0x1574,r10	
    50b4:	b2 40 30 11 	mov	#4400,	&0x1574	;#0x1130
    50b8:	74 15 
    50ba:	2f 53       	incd	r15		
    50bc:	b0 13 be 52 	calla	#0x052be	
    50c0:	82 4a 74 15 	mov	r10,	&0x1574	
    50c4:	0e 4b       	mov	r11,	r14	
    50c6:	3f 40 3c 13 	mov	#4924,	r15	;#0x133c
    50ca:	b0 13 a6 60 	calla	#0x060a6	
    50ce:	1a 16       	popm.a	#2,	r11	
    50d0:	10 01       	reta			

000050d2 <ctimer_stop>:
    50d2:	0b 14       	pushm.a	#1,	r11	
    50d4:	0b 4f       	mov	r15,	r11	
    50d6:	c2 93 65 24 	tst.b	&0x2465	
    50da:	04 24       	jz	$+10     	;abs 0x50e4
    50dc:	2f 53       	incd	r15		
    50de:	b0 13 00 53 	calla	#0x05300	
    50e2:	04 3c       	jmp	$+10     	;abs 0x50ec
    50e4:	8f 43 0a 00 	mov	#0,	10(r15)	;r3 As==00, 0x000a(r15)
    50e8:	8f 43 0c 00 	mov	#0,	12(r15)	;r3 As==00, 0x000c(r15)
    50ec:	0e 4b       	mov	r11,	r14	
    50ee:	3f 40 3c 13 	mov	#4924,	r15	;#0x133c
    50f2:	b0 13 5c 60 	calla	#0x0605c	
    50f6:	0b 16       	popm.a	#1,	r11	
    50f8:	10 01       	reta			

000050fa <ctimer_expired>:
    50fa:	0b 14       	pushm.a	#1,	r11	
    50fc:	0b 4f       	mov	r15,	r11	
    50fe:	c2 93 65 24 	tst.b	&0x2465	
    5102:	04 24       	jz	$+10     	;abs 0x510c
    5104:	2f 53       	incd	r15		
    5106:	b0 13 d0 52 	calla	#0x052d0	
    510a:	0d 3c       	jmp	$+28     	;abs 0x5126
    510c:	3f 40 3c 13 	mov	#4924,	r15	;#0x133c
    5110:	b0 13 46 60 	calla	#0x06046	
    5114:	03 3c       	jmp	$+8      	;abs 0x511c
    5116:	0f 9b       	cmp	r11,	r15	
    5118:	05 24       	jz	$+12     	;abs 0x5124
    511a:	2f 4f       	mov	@r15,	r15	
    511c:	0f 93       	tst	r15		
    511e:	fb 23       	jnz	$-8      	;abs 0x5116
    5120:	1f 43       	mov	#1,	r15	;r3 As==01
    5122:	01 3c       	jmp	$+4      	;abs 0x5126
    5124:	0f 43       	clr	r15		
    5126:	0b 16       	popm.a	#1,	r11	
    5128:	10 01       	reta			
--
0000519e <etimer_request_poll>:
    519e:	3f 40 3c 11 	mov	#4412,	r15	;#0x113c
    51a2:	b0 13 c4 6e 	calla	#0x06ec4	
    51a6:	10 01       	reta			

000051a8 <process_thread_etimer_process>:
    51a8:	2b 14       	pushm.a	#3,	r11	
    51aa:	0a 4f       	mov	r15,	r10	
    51ac:	2f 4f       	mov	@r15,	r15	
    51ae:	0f 93       	tst	r15		
    51b0:	04 24       	jz	$+10     	;abs 0x51ba
    51b2:	3f 90 59 00 	cmp	#89,	r15	;#0x0059
    51b6:	4d 20       	jnz	$+156    	;abs 0x5252
    51b8:	51 3c       	jmp	$+164    	;abs 0x525c
    51ba:	82 43 3e 13 	mov	#0,	&0x133e	;r3 As==00
    51be:	ba 40 59 00 	mov	#89,	0(r10)	;#0x0059, 0x0000(r10)
    51c2:	00 00 
    51c4:	5f 43       	mov.b	#1,	r15	;r3 As==01
    51c6:	50 3c       	jmp	$+162    	;abs 0x5268
    51c8:	1e 4e 08 00 	mov	8(r14),	r14	;0x0008(r14)
    51cc:	0e 93       	tst	r14		
    51ce:	01 20       	jnz	$+4      	;abs 0x51d2
    51d0:	f4 3f       	jmp	$-22     	;abs 0x51ba
    51d2:	8e 9d 0a 00 	cmp	r13,	10(r14)	;0x000a(r14)
    51d6:	f8 27       	jz	$-14     	;abs 0x51c8
    51d8:	82 4e 3e 13 	mov	r14,	&0x133e	
--
000052ac <etimer_set>:
    52ac:	0b 14       	pushm.a	#1,	r11	
    52ae:	0b 4f       	mov	r15,	r11	
    52b0:	b0 13 e0 c6 	calla	#0x0c6e0	
    52b4:	0f 4b       	mov	r11,	r15	
    52b6:	b0 13 6c 52 	calla	#0x0526c	
    52ba:	0b 16       	popm.a	#1,	r11	
    52bc:	10 01       	reta			

000052be <etimer_reset>:
    52be:	0b 14       	pushm.a	#1,	r11	
    52c0:	0b 4f       	mov	r15,	r11	

----------------------------------------
FILE: ./udp-client.z1
./udp-client.z1: ELF 32-bit LSB executable, TI msp430, version 1 (embedded), statically linked, with debug_info, not stripped

[Contiki process / protothread symbols]
00001100 D accmeter_process
0000d43c R autostart_processes
00003a3a T autostart_start
000065c4 t call_process
0000110c D cc2420_process
00001130 D ctimer_process
00004b4e T ctimer_set_with_process
0000113c D etimer_process
00006604 t exit_process
0000bc20 t ext_hdr_options_process
         U gpio_hal_arch_port_interrupt_enable
000014d8 b ip_processor_list_list
000023b0 b nd6_opt_llao
000023b2 b nd6_opt_offset
000061ca T netstack_process_ip_callback
000066bc T process_alloc_event
00001568 B process_current
00006a7a t process_dio_init_dag
000066ca T process_init
0000156a B process_list
00002968 B process_maxevents
00006772 T process_nevents
00006812 T process_poll
00006780 T process_post
000067ca T process_post_synch
000066e6 T process_run
000067dc T process_start
0000389c t process_thread_accmeter_process
00004034 t process_thread_cc2420_process
00004a96 t process_thread_ctimer_process
00004caa t process_thread_etimer_process
00008b14 t process_thread_sensors_process
0000a11c t process_thread_simple_udp_process
0000a336 t process_thread_stack_check_process
0000a5cc t process_thread_tcpip_process
0000a904 t process_thread_udp_client_process
00006fa8 T rpl_process_dao
0000700e T rpl_process_dao_ack
00006de0 T rpl_process_dio
00006f7e T rpl_process_dis
0000705e T rpl_process_hbh
000011be D sensors_process
000011ca D simple_udp_process
000011d6 D stack_check_process
000011e2 D tcpip_process
000011ee D udp_client_process
0000be0e T uip_process

[Timer symbols]
00004592 T clock_seconds
00004520 T clock_time
00004bfc T ctimer_expired
00004b36 T ctimer_init
0000133c b ctimer_list_list
00001130 D ctimer_process
00004ba8 T ctimer_reset
00004b98 T ctimer_set
00004b4e T ctimer_set_with_process
00004bd4 T ctimer_stop
00001264 b debouncetimer
00004dd2 T etimer_expired
00004dec T etimer_next_expiration_time
00004de0 T etimer_pending
0000113c D etimer_process
00004ca0 T etimer_request_poll
00004dc0 T etimer_reset
00004dae T etimer_set
00004e02 T etimer_stop
00001b78 b next_rtimer
00004a96 t process_thread_ctimer_process
00004caa t process_thread_etimer_process
00008ac6 T rtimer_arch_init
00008ad4 T rtimer_arch_now
00008ae2 T rtimer_arch_schedule
00008ae8 T rtimer_init
00008aee T rtimer_run_next
0000a424 T stimer_expired
0000a408 T stimer_set
00001254 b suppressTimer1
0000125c b suppressTimer2
0000a6d4 T timer_expired
0000a6fe T timer_reset
0000a6b8 T timer_set

[NETSTACK / packetbuf / uIP callback symbols]
00001344 b _link_stats_mem
00001b0c b _rpl_neighbors_mem
00001b7e b callback
0000499c T csma_output_init
00004854 T csma_output_packet
0000775a t dao_ack_input
0000778a t dao_input
000078b2 t dio_input
00007b26 t dis_input
000023ae b echo_reply_callback_list_list
0000b2fa t echo_reply_input
0000b35a t echo_request_input
         U gpio_hal_arch_port_pin_set_input
00009804 t input
0000239c b input_handler_list_list
00004a16 t input_packet
00005708 T link_stats_from_lladdr
00005946 T link_stats_init
00005826 T link_stats_input_callback
00005714 T link_stats_is_fresh
00005744 T link_stats_packet_sent
0000591c T link_stats_reset
0000114a d link_stats_struct
00005970 T linkaddr_cmp
00005968 T linkaddr_copy
000025ba B linkaddr_node_addr
0000d3c6 R linkaddr_null
00005982 T linkaddr_set_node_addr
00005bbe T mac_call_sent_callback
00006210 T netstack_init
000061ca T netstack_process_ip_callback
0000b5fa t ns_input
0000121c d ns_input_handler
000090aa t output
0000d390 r output_power
0000a5ba t packet_input.part.3
00006416 T packetbuf_addr
000025c4 B packetbuf_addrs
000014e0 b packetbuf_aligned
000063f8 T packetbuf_attr
00006342 T packetbuf_attr_clear
000063c8 T packetbuf_attr_copyfrom
000063a6 T packetbuf_attr_copyto
000025d4 B packetbuf_attrs
0000636a T packetbuf_clear
0000637c T packetbuf_copyfrom
000062c0 T packetbuf_copyto
000062a4 T packetbuf_datalen
000062b4 T packetbuf_dataptr
000024c5 b packetbuf_hdr_len
00006306 T packetbuf_hdralloc
000062aa T packetbuf_hdrlen
0000629e T packetbuf_hdrptr
0000627e T packetbuf_hdrreduce
00006424 T packetbuf_holds_broadcast
00001b96 b packetbuf_payload_len
00001b8a b packetbuf_ptr
00006402 T packetbuf_set_addr
000063ec T packetbuf_set_attr
00006298 T packetbuf_set_datalen
000062fa T packetbuf_totlen
0000a11c t process_thread_simple_udp_process
0000a5cc t process_thread_tcpip_process
000068a6 T queuebuf_free
0000682a T queuebuf_init
00006846 T queuebuf_new_from_packetbuf
0000683c T queuebuf_numfree
000068d0 T queuebuf_to_packetbuf
00006894 T queuebuf_update_attr_from_packetbuf
00006b2a T rpl_dag_get_root_ipaddr
00007130 T rpl_dag_init
00007084 T rpl_dag_init_root
00006b48 T rpl_dag_leave
00006b9e T rpl_dag_periodic
00006b92 T rpl_dag_poison_and_leave
00006c86 T rpl_dag_ready_to_advertise
000069ee T rpl_dag_root_is_root
0000690e T rpl_dag_root_set_prefix
0000696c T rpl_dag_root_start
00006ca8 T rpl_dag_update_state
00007320 T rpl_ext_header_hbh_update
000073ae T rpl_ext_header_remove
0000718a T rpl_ext_header_srh_get_next_hop
00007238 T rpl_ext_header_srh_update
0000746e T rpl_ext_header_update
00008996 T rpl_get_global_address
00008894 T rpl_get_leaf_only
00006c58 T rpl_global_repair
0000886c T rpl_has_joined
00007e94 T rpl_icmp6_dao_ack_output
00007dbe T rpl_icmp6_dao_output
00007ba6 T rpl_icmp6_dio_output
00007b72 T rpl_icmp6_dis_output
00007eda T rpl_icmp6_init
00007b44 T rpl_icmp6_update_nbr_table
00006c08 T rpl_is_addr_in_our_dag
0000887e T rpl_is_reachable
000024c2 b rpl_leaf_only
0000893c T rpl_link_callback
0000d3ce R rpl_lite_driver
00006c2e T rpl_local_repair
0000895a T rpl_lollipop_greater_than
00001190 D rpl_mrhof
000026f8 B rpl_multicast_addr
0000809c T rpl_nbr_gc_get_worst
00008242 T rpl_neighbor_get_from_ipaddr
000080e0 T rpl_neighbor_get_from_lladdr
00008110 T rpl_neighbor_get_ipaddr
0000811a T rpl_neighbor_get_link_stats
00008104 T rpl_neighbor_get_lladdr
000082aa T rpl_neighbor_init
00008124 T rpl_neighbor_is_fresh
000080ec T rpl_neighbor_rank_via_nbr
00008212 T rpl_neighbor_remove_all
00008256 T rpl_neighbor_select_best
000081ca T rpl_neighbor_set_preferred_parent
000011b2 D rpl_neighbors
000011b4 d rpl_neighbors_struct
00006fa8 T rpl_process_dao
0000700e T rpl_process_dao_ack
00006de0 T rpl_process_dio
00006f7e T rpl_process_dis
0000705e T rpl_process_hbh
00008a22 T rpl_reset_prefix
00008728 T rpl_schedule_probing
0000876e T rpl_schedule_probing_now
00008a46 T rpl_set_prefix_from_addr
000084fa T rpl_timers_dio_reset
000087d8 T rpl_timers_init
000085b4 T rpl_timers_notify_dao_ack
00008548 T rpl_timers_schedule_dao
00008580 T rpl_timers_schedule_dao_ack
000087ae T rpl_timers_schedule_leaving
0000845e T rpl_timers_schedule_periodic_dis
00008850 T rpl_timers_schedule_state_update
00008528 T rpl_timers_schedule_unicast_dio
000087f4 T rpl_timers_stop_dag_timers
00008792 T rpl_timers_unschedule_leaving
00008840 T rpl_timers_unschedule_state_update
0000d420 R sicslowpan_driver
00008c4e T sicslowpan_init
000011ca D simple_udp_process
0000a1f6 T simple_udp_register
0000a1c4 T simple_udp_sendto
0000296a B tcpip_event
0000a490 T tcpip_input
0000a4ae T tcpip_ipv6_output
0000a454 T tcpip_output
000011e2 D tcpip_process
0000a68e T tcpip_uipcall
00002272 b uart0_input_handler
0000a8be t udp_rx_callback
00002894 B uip_aligned_buf
00002924 B uip_appdata
0000bcb2 t uip_check_mtu
00002926 B uip_conn
0000aee0 T uip_ds6_addr_add
0000ae30 T uip_ds6_addr_lookup
0000afc8 T uip_ds6_addr_rm
00002821 B uip_ds6_addr_size
0000b160 T uip_ds6_compute_reachable_time
0000ad06 T uip_ds6_default_prefix
0000ac32 T uip_ds6_defrt_add
0000ac98 T uip_ds6_defrt_choose
0000abf6 T uip_ds6_defrt_lookup
0000acce T uip_ds6_defrt_periodic
0000abbe T uip_ds6_defrt_rm
0000ae5a T uip_ds6_get_link_local
00002710 B uip_ds6_if
0000b196 T uip_ds6_init
0000adee T uip_ds6_is_addr_onlink
0000aba0 T uip_ds6_link_callback
0000ad0c T uip_ds6_list_loop
0000ae98 T uip_ds6_maddr_add
0000af9e T uip_ds6_maddr_lookup
0000af94 T uip_ds6_maddr_rm
0000aa80 T uip_ds6_nbr_add
0000aab6 T uip_ds6_nbr_get_ll
0000aac2 T uip_ds6_nbr_head
0000ab88 T uip_ds6_nbr_ipaddr_from_lladdr

[Contiki behavior strings]
Accelerometer process
Starting Contiki-NG-release/v4.8-625-g8518cbaff-dirty
Ctimer process
Event timer
RPL Lite
Simple UDP process
UDP client

[Disassembly samples around process/network functions]
0000389c <process_thread_accmeter_process>:
    389c:	0b 14       	pushm.a	#1,	r11	
    389e:	0b 4f       	mov	r15,	r11	
    38a0:	7e 90 82 ff 	cmp.b	#-126,	r14	;#0xff82
    38a4:	13 20       	jnz	$+40     	;abs 0x38cc
    38a6:	7f 40 30 00 	mov.b	#48,	r15	;#0x0030
    38aa:	b0 13 48 38 	calla	#0x03848	
    38ae:	4e 4f       	mov.b	r15,	r14	
    38b0:	1e b2 50 12 	bit	&0x1250,r14	
    38b4:	03 24       	jz	$+8      	;abs 0x38bc
    38b6:	2e 00 86 25 	mova	&0x02586,r14	
    38ba:	05 3c       	jmp	$+12     	;abs 0x38c6
    38bc:	1e b2 52 12 	bit	&0x1252,r14	
    38c0:	05 24       	jz	$+12     	;abs 0x38cc
    38c2:	2e 00 82 25 	mova	&0x02582,r14	
    38c6:	de 03       	tsta	r14		
    38c8:	01 24       	jz	$+4      	;abs 0x38cc
    38ca:	4e 13       	calla	r14		
    38cc:	2f 4b       	mov	@r11,	r15	
    38ce:	0f 93       	tst	r15		
    38d0:	04 24       	jz	$+10     	;abs 0x38da
--
00004034 <process_thread_cc2420_process>:
    4034:	0b 14       	pushm.a	#1,	r11	
    4036:	0b 4f       	mov	r15,	r11	
    4038:	2f 4f       	mov	@r15,	r15	
    403a:	0f 93       	tst	r15		
    403c:	04 24       	jz	$+10     	;abs 0x4046
    403e:	3f 90 81 03 	cmp	#897,	r15	;#0x0381
    4042:	15 20       	jnz	$+44     	;abs 0x406e
    4044:	1b 3c       	jmp	$+56     	;abs 0x407c
    4046:	bb 40 81 03 	mov	#897,	0(r11)	;#0x0381, 0x0000(r11)
    404a:	00 00 
    404c:	15 3c       	jmp	$+44     	;abs 0x4078
    404e:	7e 90 82 ff 	cmp.b	#-126,	r14	;#0xff82
    4052:	12 20       	jnz	$+38     	;abs 0x4078
    4054:	b0 13 6a 63 	calla	#0x0636a	
    4058:	b0 13 b4 62 	calla	#0x062b4	
    405c:	3e 40 80 00 	mov	#128,	r14	;#0x0080
    4060:	b0 13 7a 3f 	calla	#0x03f7a	
    4064:	b0 13 98 62 	calla	#0x06298	
    4068:	80 13 aa d3 	calla	&0x0d3aa	
    406c:	ec 3f       	jmp	$-38     	;abs 0x4046
--
00004a96 <process_thread_ctimer_process>:
    4a96:	2b 14       	pushm.a	#3,	r11	
    4a98:	0a 4f       	mov	r15,	r10	
    4a9a:	09 4d       	mov	r13,	r9	
    4a9c:	2f 4f       	mov	@r15,	r15	
    4a9e:	0f 93       	tst	r15		
    4aa0:	04 24       	jz	$+10     	;abs 0x4aaa
    4aa2:	3f 90 4a 00 	cmp	#74,	r15	;#0x004a
    4aa6:	3a 20       	jnz	$+118    	;abs 0x4b1c
    4aa8:	40 3c       	jmp	$+130    	;abs 0x4b2a
    4aaa:	3f 40 3c 13 	mov	#4924,	r15	;#0x133c
    4aae:	b0 13 94 59 	calla	#0x05994	
    4ab2:	0b 4f       	mov	r15,	r11	
    4ab4:	09 3c       	jmp	$+20     	;abs 0x4ac8
    4ab6:	1d 4b 06 00 	mov	6(r11),	r13	;0x0006(r11)
    4aba:	1e 4b 08 00 	mov	8(r11),	r14	;0x0008(r11)
    4abe:	0f 4b       	mov	r11,	r15	
    4ac0:	2f 53       	incd	r15		
    4ac2:	b0 13 ae 4d 	calla	#0x04dae	
    4ac6:	2b 4b       	mov	@r11,	r11	
    4ac8:	0b 93       	tst	r11		
--
00004b36 <ctimer_init>:
    4b36:	c2 43 8f 24 	mov.b	#0,	&0x248f	;r3 As==00
    4b3a:	3f 40 3c 13 	mov	#4924,	r15	;#0x133c
    4b3e:	b0 13 8e 59 	calla	#0x0598e	
    4b42:	0e 43       	clr	r14		
    4b44:	3f 40 30 11 	mov	#4400,	r15	;#0x1130
    4b48:	b0 13 dc 67 	calla	#0x067dc	
    4b4c:	10 01       	reta			

00004b4e <ctimer_set_with_process>:
    4b4e:	2b 14       	pushm.a	#3,	r11	
    4b50:	09 4f       	mov	r15,	r9	
    4b52:	0a 4d       	mov	r13,	r10	
    4b54:	0b 4e       	mov	r14,	r11	
    4b56:	9f 41 12 00 	mov	18(r1),	14(r15)	;0x0012(r1), 0x000e(r15)
    4b5a:	0e 00 
    4b5c:	7f 0c 10 00 	mova	r12,	16(r15)	;0x0010(r15)
    4b60:	9f 41 10 00 	mov	16(r1),	20(r15)	;0x0010(r1), 0x0014(r15)
    4b64:	14 00 
    4b66:	c2 93 8f 24 	tst.b	&0x248f	
    4b6a:	0b 24       	jz	$+24     	;abs 0x4b82
    4b6c:	1b 42 68 15 	mov	&0x1568,r11	
    4b70:	b2 40 30 11 	mov	#4400,	&0x1568	;#0x1130
    4b74:	68 15 
    4b76:	2f 53       	incd	r15		
    4b78:	b0 13 ae 4d 	calla	#0x04dae	
    4b7c:	82 4b 68 15 	mov	r11,	&0x1568	
    4b80:	04 3c       	jmp	$+10     	;abs 0x4b8a
    4b82:	89 4d 06 00 	mov	r13,	6(r9)	;0x0006(r9)
    4b86:	89 4e 08 00 	mov	r14,	8(r9)	;0x0008(r9)
--
00004b98 <ctimer_set>:
    4b98:	12 12 68 15 	push	&0x1568	
    4b9c:	11 12 08 00 	push	8(r1)		;0x0008(r1)
    4ba0:	b0 13 4e 4b 	calla	#0x04b4e	
    4ba4:	21 52       	add	#4,	r1	;r2 As==10
    4ba6:	10 01       	reta			

00004ba8 <ctimer_reset>:
    4ba8:	1b 14       	pushm.a	#2,	r11	
    4baa:	0b 4f       	mov	r15,	r11	
    4bac:	c2 93 8f 24 	tst.b	&0x248f	
    4bb0:	0a 24       	jz	$+22     	;abs 0x4bc6
    4bb2:	1a 42 68 15 	mov	&0x1568,r10	
    4bb6:	b2 40 30 11 	mov	#4400,	&0x1568	;#0x1130
    4bba:	68 15 
    4bbc:	2f 53       	incd	r15		
    4bbe:	b0 13 c0 4d 	calla	#0x04dc0	
    4bc2:	82 4a 68 15 	mov	r10,	&0x1568	
    4bc6:	0e 4b       	mov	r11,	r14	
    4bc8:	3f 40 3c 13 	mov	#4924,	r15	;#0x133c
    4bcc:	b0 13 f4 59 	calla	#0x059f4	
    4bd0:	1a 16       	popm.a	#2,	r11	
    4bd2:	10 01       	reta			

00004bd4 <ctimer_stop>:
    4bd4:	0b 14       	pushm.a	#1,	r11	
    4bd6:	0b 4f       	mov	r15,	r11	
    4bd8:	c2 93 8f 24 	tst.b	&0x248f	
    4bdc:	04 24       	jz	$+10     	;abs 0x4be6
    4bde:	2f 53       	incd	r15		
    4be0:	b0 13 02 4e 	calla	#0x04e02	
    4be4:	04 3c       	jmp	$+10     	;abs 0x4bee
    4be6:	8f 43 0a 00 	mov	#0,	10(r15)	;r3 As==00, 0x000a(r15)
    4bea:	8f 43 0c 00 	mov	#0,	12(r15)	;r3 As==00, 0x000c(r15)
    4bee:	0e 4b       	mov	r11,	r14	
    4bf0:	3f 40 3c 13 	mov	#4924,	r15	;#0x133c
    4bf4:	b0 13 aa 59 	calla	#0x059aa	
    4bf8:	0b 16       	popm.a	#1,	r11	
    4bfa:	10 01       	reta			

00004bfc <ctimer_expired>:
    4bfc:	0b 14       	pushm.a	#1,	r11	
    4bfe:	0b 4f       	mov	r15,	r11	
    4c00:	c2 93 8f 24 	tst.b	&0x248f	
    4c04:	04 24       	jz	$+10     	;abs 0x4c0e
    4c06:	2f 53       	incd	r15		
    4c08:	b0 13 d2 4d 	calla	#0x04dd2	
    4c0c:	0d 3c       	jmp	$+28     	;abs 0x4c28
    4c0e:	3f 40 3c 13 	mov	#4924,	r15	;#0x133c
    4c12:	b0 13 94 59 	calla	#0x05994	
    4c16:	03 3c       	jmp	$+8      	;abs 0x4c1e
    4c18:	0f 9b       	cmp	r11,	r15	
    4c1a:	05 24       	jz	$+12     	;abs 0x4c26
    4c1c:	2f 4f       	mov	@r15,	r15	
    4c1e:	0f 93       	tst	r15		
    4c20:	fb 23       	jnz	$-8      	;abs 0x4c18
    4c22:	1f 43       	mov	#1,	r15	;r3 As==01
    4c24:	01 3c       	jmp	$+4      	;abs 0x4c28
    4c26:	0f 43       	clr	r15		
    4c28:	0b 16       	popm.a	#1,	r11	
    4c2a:	10 01       	reta			
--
00004ca0 <etimer_request_poll>:
    4ca0:	3f 40 3c 11 	mov	#4412,	r15	;#0x113c
    4ca4:	b0 13 12 68 	calla	#0x06812	
    4ca8:	10 01       	reta			

00004caa <process_thread_etimer_process>:
    4caa:	2b 14       	pushm.a	#3,	r11	
    4cac:	0a 4f       	mov	r15,	r10	
    4cae:	2f 4f       	mov	@r15,	r15	
    4cb0:	0f 93       	tst	r15		
    4cb2:	04 24       	jz	$+10     	;abs 0x4cbc
    4cb4:	3f 90 59 00 	cmp	#89,	r15	;#0x0059
    4cb8:	4d 20       	jnz	$+156    	;abs 0x4d54
    4cba:	51 3c       	jmp	$+164    	;abs 0x4d5e
    4cbc:	82 43 3e 13 	mov	#0,	&0x133e	;r3 As==00
    4cc0:	ba 40 59 00 	mov	#89,	0(r10)	;#0x0059, 0x0000(r10)
    4cc4:	00 00 
    4cc6:	5f 43       	mov.b	#1,	r15	;r3 As==01
    4cc8:	50 3c       	jmp	$+162    	;abs 0x4d6a
    4cca:	1e 4e 08 00 	mov	8(r14),	r14	;0x0008(r14)
    4cce:	0e 93       	tst	r14		
    4cd0:	01 20       	jnz	$+4      	;abs 0x4cd4
    4cd2:	f4 3f       	jmp	$-22     	;abs 0x4cbc
    4cd4:	8e 9d 0a 00 	cmp	r13,	10(r14)	;0x000a(r14)
    4cd8:	f8 27       	jz	$-14     	;abs 0x4cca
    4cda:	82 4e 3e 13 	mov	r14,	&0x133e	
--
00004dae <etimer_set>:
    4dae:	0b 14       	pushm.a	#1,	r11	
    4db0:	0b 4f       	mov	r15,	r11	
    4db2:	b0 13 b8 a6 	calla	#0x0a6b8	
    4db6:	0f 4b       	mov	r11,	r15	
    4db8:	b0 13 6e 4d 	calla	#0x04d6e	
    4dbc:	0b 16       	popm.a	#1,	r11	
    4dbe:	10 01       	reta			

00004dc0 <etimer_reset>:
    4dc0:	0b 14       	pushm.a	#1,	r11	
    4dc2:	0b 4f       	mov	r15,	r11	
    4dc4:	b0 13 fe a6 	calla	#0x0a6fe	
    4dc8:	0f 4b       	mov	r11,	r15	
    4dca:	b0 13 6e 4d 	calla	#0x04d6e	
    4dce:	0b 16       	popm.a	#1,	r11	
    4dd0:	10 01       	reta			

00004dd2 <etimer_expired>:
    4dd2:	1e 43       	mov	#1,	r14	;r3 As==01
    4dd4:	8f 93 0a 00 	tst	10(r15)	;0x000a(r15)
    4dd8:	01 24       	jz	$+4      	;abs 0x4ddc
    4dda:	0e 43       	clr	r14		
    4ddc:	0f 4e       	mov	r14,	r15	
    4dde:	10 01       	reta			

00004de0 <etimer_pending>:
    4de0:	1f 43       	mov	#1,	r15	;r3 As==01
    4de2:	82 93 3e 13 	tst	&0x133e	
    4de6:	01 20       	jnz	$+4      	;abs 0x4dea
    4de8:	0f 43       	clr	r15		
    4dea:	10 01       	reta			

00004dec <etimer_next_expiration_time>:

----------------------------------------
FILE: ./udp-server.z1
./udp-server.z1: ELF 32-bit LSB executable, TI msp430, version 1 (embedded), statically linked, with debug_info, not stripped

[Contiki process / protothread symbols]
00001100 D accmeter_process
0000d34c R autostart_processes
00003a3a T autostart_start
000065c4 t call_process
0000110c D cc2420_process
00001130 D ctimer_process
00004b4e T ctimer_set_with_process
0000113c D etimer_process
00006604 t exit_process
0000bb2e t ext_hdr_options_process
         U gpio_hal_arch_port_interrupt_enable
000014d8 b ip_processor_list_list
00002398 b nd6_opt_llao
0000239a b nd6_opt_offset
000061ca T netstack_process_ip_callback
000066bc T process_alloc_event
00001568 B process_current
00006a7a t process_dio_init_dag
000066ca T process_init
0000156a B process_list
00002930 B process_maxevents
00006772 T process_nevents
00006812 T process_poll
00006780 T process_post
000067ca T process_post_synch
000066e6 T process_run
000067dc T process_start
0000389c t process_thread_accmeter_process
00004034 t process_thread_cc2420_process
00004a96 t process_thread_ctimer_process
00004caa t process_thread_etimer_process
00008b14 t process_thread_sensors_process
0000a11c t process_thread_simple_udp_process
0000a336 t process_thread_stack_check_process
0000a5cc t process_thread_tcpip_process
0000a8be t process_thread_udp_server_process
00006fa8 T rpl_process_dao
0000700e T rpl_process_dao_ack
00006de0 T rpl_process_dio
00006f7e T rpl_process_dis
0000705e T rpl_process_hbh
000011be D sensors_process
000011ca D simple_udp_process
000011d6 D stack_check_process
000011e2 D tcpip_process
000011ee D udp_server_process
0000bd1c T uip_process

[Timer symbols]
00004592 T clock_seconds
00004520 T clock_time
00004bfc T ctimer_expired
00004b36 T ctimer_init
0000133c b ctimer_list_list
00001130 D ctimer_process
00004ba8 T ctimer_reset
00004b98 T ctimer_set
00004b4e T ctimer_set_with_process
00004bd4 T ctimer_stop
00001264 b debouncetimer
00004dd2 T etimer_expired
00004dec T etimer_next_expiration_time
00004de0 T etimer_pending
0000113c D etimer_process
00004ca0 T etimer_request_poll
00004dc0 T etimer_reset
00004dae T etimer_set
00004e02 T etimer_stop
00001b78 b next_rtimer
00004a96 t process_thread_ctimer_process
00004caa t process_thread_etimer_process
00008ac6 T rtimer_arch_init
00008ad4 T rtimer_arch_now
00008ae2 T rtimer_arch_schedule
00008ae8 T rtimer_init
00008aee T rtimer_run_next
0000a424 T stimer_expired
0000a408 T stimer_set
00001254 b suppressTimer1
0000125c b suppressTimer2
0000a6d4 T timer_expired
0000a6fe T timer_reset
0000a6b8 T timer_set

[NETSTACK / packetbuf / uIP callback symbols]
00001344 b _link_stats_mem
00001b0c b _rpl_neighbors_mem
00001b7e b callback
0000499c T csma_output_init
00004854 T csma_output_packet
0000775a t dao_ack_input
0000778a t dao_input
000078b2 t dio_input
00007b26 t dis_input
00002396 b echo_reply_callback_list_list
0000b208 t echo_reply_input
0000b268 t echo_request_input
         U gpio_hal_arch_port_pin_set_input
00009804 t input
00002384 b input_handler_list_list
00004a16 t input_packet
00005708 T link_stats_from_lladdr
00005946 T link_stats_init
00005826 T link_stats_input_callback
00005714 T link_stats_is_fresh
00005744 T link_stats_packet_sent
0000591c T link_stats_reset
0000114a d link_stats_struct
00005970 T linkaddr_cmp
00005968 T linkaddr_copy
00002582 B linkaddr_node_addr
0000d2d6 R linkaddr_null
00005982 T linkaddr_set_node_addr
00005bbe T mac_call_sent_callback
00006210 T netstack_init
000061ca T netstack_process_ip_callback
0000b508 t ns_input
0000121c d ns_input_handler
000090aa t output
0000d2a0 r output_power
0000a5ba t packet_input.part.3
00006416 T packetbuf_addr
0000258c B packetbuf_addrs
000014e0 b packetbuf_aligned
000063f8 T packetbuf_attr
00006342 T packetbuf_attr_clear
000063c8 T packetbuf_attr_copyfrom
000063a6 T packetbuf_attr_copyto
0000259c B packetbuf_attrs
0000636a T packetbuf_clear
0000637c T packetbuf_copyfrom
000062c0 T packetbuf_copyto
000062a4 T packetbuf_datalen
000062b4 T packetbuf_dataptr
000024ad b packetbuf_hdr_len
00006306 T packetbuf_hdralloc
000062aa T packetbuf_hdrlen
0000629e T packetbuf_hdrptr
0000627e T packetbuf_hdrreduce
00006424 T packetbuf_holds_broadcast
00001b96 b packetbuf_payload_len
00001b8a b packetbuf_ptr
00006402 T packetbuf_set_addr
000063ec T packetbuf_set_attr
00006298 T packetbuf_set_datalen
000062fa T packetbuf_totlen
0000a11c t process_thread_simple_udp_process
0000a5cc t process_thread_tcpip_process
000068a6 T queuebuf_free
0000682a T queuebuf_init
00006846 T queuebuf_new_from_packetbuf
0000683c T queuebuf_numfree
000068d0 T queuebuf_to_packetbuf
00006894 T queuebuf_update_attr_from_packetbuf
00006b2a T rpl_dag_get_root_ipaddr
00007130 T rpl_dag_init
00007084 T rpl_dag_init_root
00006b48 T rpl_dag_leave
00006b9e T rpl_dag_periodic
00006b92 T rpl_dag_poison_and_leave
00006c86 T rpl_dag_ready_to_advertise
000069ee T rpl_dag_root_is_root
0000690e T rpl_dag_root_set_prefix
0000696c T rpl_dag_root_start
00006ca8 T rpl_dag_update_state
00007320 T rpl_ext_header_hbh_update
000073ae T rpl_ext_header_remove
0000718a T rpl_ext_header_srh_get_next_hop
00007238 T rpl_ext_header_srh_update
0000746e T rpl_ext_header_update
00008996 T rpl_get_global_address
00008894 T rpl_get_leaf_only
00006c58 T rpl_global_repair
0000886c T rpl_has_joined
00007e94 T rpl_icmp6_dao_ack_output
00007dbe T rpl_icmp6_dao_output
00007ba6 T rpl_icmp6_dio_output
00007b72 T rpl_icmp6_dis_output
00007eda T rpl_icmp6_init
00007b44 T rpl_icmp6_update_nbr_table
00006c08 T rpl_is_addr_in_our_dag
0000887e T rpl_is_reachable
000024aa b rpl_leaf_only
0000893c T rpl_link_callback
0000d2de R rpl_lite_driver
00006c2e T rpl_local_repair
0000895a T rpl_lollipop_greater_than
00001190 D rpl_mrhof
000026c0 B rpl_multicast_addr
0000809c T rpl_nbr_gc_get_worst
00008242 T rpl_neighbor_get_from_ipaddr
000080e0 T rpl_neighbor_get_from_lladdr
00008110 T rpl_neighbor_get_ipaddr
0000811a T rpl_neighbor_get_link_stats
00008104 T rpl_neighbor_get_lladdr
000082aa T rpl_neighbor_init
00008124 T rpl_neighbor_is_fresh
000080ec T rpl_neighbor_rank_via_nbr
00008212 T rpl_neighbor_remove_all
00008256 T rpl_neighbor_select_best
000081ca T rpl_neighbor_set_preferred_parent
000011b2 D rpl_neighbors
000011b4 d rpl_neighbors_struct
00006fa8 T rpl_process_dao
0000700e T rpl_process_dao_ack
00006de0 T rpl_process_dio
00006f7e T rpl_process_dis
0000705e T rpl_process_hbh
00008a22 T rpl_reset_prefix
00008728 T rpl_schedule_probing
0000876e T rpl_schedule_probing_now
00008a46 T rpl_set_prefix_from_addr
000084fa T rpl_timers_dio_reset
000087d8 T rpl_timers_init
000085b4 T rpl_timers_notify_dao_ack
00008548 T rpl_timers_schedule_dao
00008580 T rpl_timers_schedule_dao_ack
000087ae T rpl_timers_schedule_leaving
0000845e T rpl_timers_schedule_periodic_dis
00008850 T rpl_timers_schedule_state_update
00008528 T rpl_timers_schedule_unicast_dio
000087f4 T rpl_timers_stop_dag_timers
00008792 T rpl_timers_unschedule_leaving
00008840 T rpl_timers_unschedule_state_update
0000d330 R sicslowpan_driver
00008c4e T sicslowpan_init
000011ca D simple_udp_process
0000a1f6 T simple_udp_register
0000a1c4 T simple_udp_sendto
00002932 B tcpip_event
0000a490 T tcpip_input
0000a4ae T tcpip_ipv6_output
0000a454 T tcpip_output
000011e2 D tcpip_process
0000a68e T tcpip_uipcall
00002272 b uart0_input_handler
0000a8f2 t udp_rx_callback
0000285c B uip_aligned_buf
000028ec B uip_appdata
0000bbc0 t uip_check_mtu
000028ee B uip_conn
0000adee T uip_ds6_addr_add
0000ad3e T uip_ds6_addr_lookup
0000aed6 T uip_ds6_addr_rm
000027e9 B uip_ds6_addr_size
0000b06e T uip_ds6_compute_reachable_time
0000ac14 T uip_ds6_default_prefix
0000ab40 T uip_ds6_defrt_add
0000aba6 T uip_ds6_defrt_choose
0000ab04 T uip_ds6_defrt_lookup
0000abdc T uip_ds6_defrt_periodic
0000aacc T uip_ds6_defrt_rm
0000ad68 T uip_ds6_get_link_local
000026d8 B uip_ds6_if
0000b0a4 T uip_ds6_init
0000acfc T uip_ds6_is_addr_onlink
0000aaae T uip_ds6_link_callback
0000ac1a T uip_ds6_list_loop
0000ada6 T uip_ds6_maddr_add
0000aeac T uip_ds6_maddr_lookup
0000aea2 T uip_ds6_maddr_rm
0000a98e T uip_ds6_nbr_add
0000a9c4 T uip_ds6_nbr_get_ll
0000a9d0 T uip_ds6_nbr_head
0000aa96 T uip_ds6_nbr_ipaddr_from_lladdr

[Contiki behavior strings]
Accelerometer process
Starting Contiki-NG-release/v4.8-625-g8518cbaff-dirty
Ctimer process
Event timer
RPL Lite
Simple UDP process
UDP server

[Disassembly samples around process/network functions]
0000389c <process_thread_accmeter_process>:
    389c:	0b 14       	pushm.a	#1,	r11	
    389e:	0b 4f       	mov	r15,	r11	
    38a0:	7e 90 82 ff 	cmp.b	#-126,	r14	;#0xff82
    38a4:	13 20       	jnz	$+40     	;abs 0x38cc
    38a6:	7f 40 30 00 	mov.b	#48,	r15	;#0x0030
    38aa:	b0 13 48 38 	calla	#0x03848	
    38ae:	4e 4f       	mov.b	r15,	r14	
    38b0:	1e b2 50 12 	bit	&0x1250,r14	
    38b4:	03 24       	jz	$+8      	;abs 0x38bc
    38b6:	2e 00 4e 25 	mova	&0x0254e,r14	
    38ba:	05 3c       	jmp	$+12     	;abs 0x38c6
    38bc:	1e b2 52 12 	bit	&0x1252,r14	
    38c0:	05 24       	jz	$+12     	;abs 0x38cc
    38c2:	2e 00 4a 25 	mova	&0x0254a,r14	
    38c6:	de 03       	tsta	r14		
    38c8:	01 24       	jz	$+4      	;abs 0x38cc
    38ca:	4e 13       	calla	r14		
    38cc:	2f 4b       	mov	@r11,	r15	
    38ce:	0f 93       	tst	r15		
    38d0:	04 24       	jz	$+10     	;abs 0x38da
--
00004034 <process_thread_cc2420_process>:
    4034:	0b 14       	pushm.a	#1,	r11	
    4036:	0b 4f       	mov	r15,	r11	
    4038:	2f 4f       	mov	@r15,	r15	
    403a:	0f 93       	tst	r15		
    403c:	04 24       	jz	$+10     	;abs 0x4046
    403e:	3f 90 81 03 	cmp	#897,	r15	;#0x0381
    4042:	15 20       	jnz	$+44     	;abs 0x406e
    4044:	1b 3c       	jmp	$+56     	;abs 0x407c
    4046:	bb 40 81 03 	mov	#897,	0(r11)	;#0x0381, 0x0000(r11)
    404a:	00 00 
    404c:	15 3c       	jmp	$+44     	;abs 0x4078
    404e:	7e 90 82 ff 	cmp.b	#-126,	r14	;#0xff82
    4052:	12 20       	jnz	$+38     	;abs 0x4078
    4054:	b0 13 6a 63 	calla	#0x0636a	
    4058:	b0 13 b4 62 	calla	#0x062b4	
    405c:	3e 40 80 00 	mov	#128,	r14	;#0x0080
    4060:	b0 13 7a 3f 	calla	#0x03f7a	
    4064:	b0 13 98 62 	calla	#0x06298	
    4068:	80 13 ba d2 	calla	&0x0d2ba	
    406c:	ec 3f       	jmp	$-38     	;abs 0x4046
--
00004a96 <process_thread_ctimer_process>:
    4a96:	2b 14       	pushm.a	#3,	r11	
    4a98:	0a 4f       	mov	r15,	r10	
    4a9a:	09 4d       	mov	r13,	r9	
    4a9c:	2f 4f       	mov	@r15,	r15	
    4a9e:	0f 93       	tst	r15		
    4aa0:	04 24       	jz	$+10     	;abs 0x4aaa
    4aa2:	3f 90 4a 00 	cmp	#74,	r15	;#0x004a
    4aa6:	3a 20       	jnz	$+118    	;abs 0x4b1c
    4aa8:	40 3c       	jmp	$+130    	;abs 0x4b2a
    4aaa:	3f 40 3c 13 	mov	#4924,	r15	;#0x133c
    4aae:	b0 13 94 59 	calla	#0x05994	
    4ab2:	0b 4f       	mov	r15,	r11	
    4ab4:	09 3c       	jmp	$+20     	;abs 0x4ac8
    4ab6:	1d 4b 06 00 	mov	6(r11),	r13	;0x0006(r11)
    4aba:	1e 4b 08 00 	mov	8(r11),	r14	;0x0008(r11)
    4abe:	0f 4b       	mov	r11,	r15	
    4ac0:	2f 53       	incd	r15		
    4ac2:	b0 13 ae 4d 	calla	#0x04dae	
    4ac6:	2b 4b       	mov	@r11,	r11	
    4ac8:	0b 93       	tst	r11		
--
00004b36 <ctimer_init>:
    4b36:	c2 43 77 24 	mov.b	#0,	&0x2477	;r3 As==00
    4b3a:	3f 40 3c 13 	mov	#4924,	r15	;#0x133c
    4b3e:	b0 13 8e 59 	calla	#0x0598e	
    4b42:	0e 43       	clr	r14		
    4b44:	3f 40 30 11 	mov	#4400,	r15	;#0x1130
    4b48:	b0 13 dc 67 	calla	#0x067dc	
    4b4c:	10 01       	reta			

00004b4e <ctimer_set_with_process>:
    4b4e:	2b 14       	pushm.a	#3,	r11	
    4b50:	09 4f       	mov	r15,	r9	
    4b52:	0a 4d       	mov	r13,	r10	
    4b54:	0b 4e       	mov	r14,	r11	
    4b56:	9f 41 12 00 	mov	18(r1),	14(r15)	;0x0012(r1), 0x000e(r15)
    4b5a:	0e 00 
    4b5c:	7f 0c 10 00 	mova	r12,	16(r15)	;0x0010(r15)
    4b60:	9f 41 10 00 	mov	16(r1),	20(r15)	;0x0010(r1), 0x0014(r15)
    4b64:	14 00 
    4b66:	c2 93 77 24 	tst.b	&0x2477	
    4b6a:	0b 24       	jz	$+24     	;abs 0x4b82
    4b6c:	1b 42 68 15 	mov	&0x1568,r11	
    4b70:	b2 40 30 11 	mov	#4400,	&0x1568	;#0x1130
    4b74:	68 15 
    4b76:	2f 53       	incd	r15		
    4b78:	b0 13 ae 4d 	calla	#0x04dae	
    4b7c:	82 4b 68 15 	mov	r11,	&0x1568	
    4b80:	04 3c       	jmp	$+10     	;abs 0x4b8a
    4b82:	89 4d 06 00 	mov	r13,	6(r9)	;0x0006(r9)
    4b86:	89 4e 08 00 	mov	r14,	8(r9)	;0x0008(r9)
--
00004b98 <ctimer_set>:
    4b98:	12 12 68 15 	push	&0x1568	
    4b9c:	11 12 08 00 	push	8(r1)		;0x0008(r1)
    4ba0:	b0 13 4e 4b 	calla	#0x04b4e	
    4ba4:	21 52       	add	#4,	r1	;r2 As==10
    4ba6:	10 01       	reta			

00004ba8 <ctimer_reset>:
    4ba8:	1b 14       	pushm.a	#2,	r11	
    4baa:	0b 4f       	mov	r15,	r11	
    4bac:	c2 93 77 24 	tst.b	&0x2477	
    4bb0:	0a 24       	jz	$+22     	;abs 0x4bc6
    4bb2:	1a 42 68 15 	mov	&0x1568,r10	
    4bb6:	b2 40 30 11 	mov	#4400,	&0x1568	;#0x1130
    4bba:	68 15 
    4bbc:	2f 53       	incd	r15		
    4bbe:	b0 13 c0 4d 	calla	#0x04dc0	
    4bc2:	82 4a 68 15 	mov	r10,	&0x1568	
    4bc6:	0e 4b       	mov	r11,	r14	
    4bc8:	3f 40 3c 13 	mov	#4924,	r15	;#0x133c
    4bcc:	b0 13 f4 59 	calla	#0x059f4	
    4bd0:	1a 16       	popm.a	#2,	r11	
    4bd2:	10 01       	reta			

00004bd4 <ctimer_stop>:
    4bd4:	0b 14       	pushm.a	#1,	r11	
    4bd6:	0b 4f       	mov	r15,	r11	
    4bd8:	c2 93 77 24 	tst.b	&0x2477	
    4bdc:	04 24       	jz	$+10     	;abs 0x4be6
    4bde:	2f 53       	incd	r15		
    4be0:	b0 13 02 4e 	calla	#0x04e02	
    4be4:	04 3c       	jmp	$+10     	;abs 0x4bee
    4be6:	8f 43 0a 00 	mov	#0,	10(r15)	;r3 As==00, 0x000a(r15)
    4bea:	8f 43 0c 00 	mov	#0,	12(r15)	;r3 As==00, 0x000c(r15)
    4bee:	0e 4b       	mov	r11,	r14	
    4bf0:	3f 40 3c 13 	mov	#4924,	r15	;#0x133c
    4bf4:	b0 13 aa 59 	calla	#0x059aa	
    4bf8:	0b 16       	popm.a	#1,	r11	
    4bfa:	10 01       	reta			

00004bfc <ctimer_expired>:
    4bfc:	0b 14       	pushm.a	#1,	r11	
    4bfe:	0b 4f       	mov	r15,	r11	
    4c00:	c2 93 77 24 	tst.b	&0x2477	
    4c04:	04 24       	jz	$+10     	;abs 0x4c0e
    4c06:	2f 53       	incd	r15		
    4c08:	b0 13 d2 4d 	calla	#0x04dd2	
    4c0c:	0d 3c       	jmp	$+28     	;abs 0x4c28
    4c0e:	3f 40 3c 13 	mov	#4924,	r15	;#0x133c
    4c12:	b0 13 94 59 	calla	#0x05994	
    4c16:	03 3c       	jmp	$+8      	;abs 0x4c1e
    4c18:	0f 9b       	cmp	r11,	r15	
    4c1a:	05 24       	jz	$+12     	;abs 0x4c26
    4c1c:	2f 4f       	mov	@r15,	r15	
    4c1e:	0f 93       	tst	r15		
    4c20:	fb 23       	jnz	$-8      	;abs 0x4c18
    4c22:	1f 43       	mov	#1,	r15	;r3 As==01
    4c24:	01 3c       	jmp	$+4      	;abs 0x4c28
    4c26:	0f 43       	clr	r15		
    4c28:	0b 16       	popm.a	#1,	r11	
    4c2a:	10 01       	reta			
--
00004ca0 <etimer_request_poll>:
    4ca0:	3f 40 3c 11 	mov	#4412,	r15	;#0x113c
    4ca4:	b0 13 12 68 	calla	#0x06812	
    4ca8:	10 01       	reta			

00004caa <process_thread_etimer_process>:
    4caa:	2b 14       	pushm.a	#3,	r11	
    4cac:	0a 4f       	mov	r15,	r10	
    4cae:	2f 4f       	mov	@r15,	r15	
    4cb0:	0f 93       	tst	r15		
    4cb2:	04 24       	jz	$+10     	;abs 0x4cbc
    4cb4:	3f 90 59 00 	cmp	#89,	r15	;#0x0059
    4cb8:	4d 20       	jnz	$+156    	;abs 0x4d54
    4cba:	51 3c       	jmp	$+164    	;abs 0x4d5e
    4cbc:	82 43 3e 13 	mov	#0,	&0x133e	;r3 As==00
    4cc0:	ba 40 59 00 	mov	#89,	0(r10)	;#0x0059, 0x0000(r10)
    4cc4:	00 00 
    4cc6:	5f 43       	mov.b	#1,	r15	;r3 As==01
    4cc8:	50 3c       	jmp	$+162    	;abs 0x4d6a
    4cca:	1e 4e 08 00 	mov	8(r14),	r14	;0x0008(r14)
    4cce:	0e 93       	tst	r14		
    4cd0:	01 20       	jnz	$+4      	;abs 0x4cd4
    4cd2:	f4 3f       	jmp	$-22     	;abs 0x4cbc
    4cd4:	8e 9d 0a 00 	cmp	r13,	10(r14)	;0x000a(r14)
    4cd8:	f8 27       	jz	$-14     	;abs 0x4cca
    4cda:	82 4e 3e 13 	mov	r14,	&0x133e	
--
00004dae <etimer_set>:
    4dae:	0b 14       	pushm.a	#1,	r11	
    4db0:	0b 4f       	mov	r15,	r11	
    4db2:	b0 13 b8 a6 	calla	#0x0a6b8	
    4db6:	0f 4b       	mov	r11,	r15	
    4db8:	b0 13 6e 4d 	calla	#0x04d6e	
    4dbc:	0b 16       	popm.a	#1,	r11	
    4dbe:	10 01       	reta			

00004dc0 <etimer_reset>:
    4dc0:	0b 14       	pushm.a	#1,	r11	
    4dc2:	0b 4f       	mov	r15,	r11	
    4dc4:	b0 13 fe a6 	calla	#0x0a6fe	
    4dc8:	0f 4b       	mov	r11,	r15	
    4dca:	b0 13 6e 4d 	calla	#0x04d6e	
    4dce:	0b 16       	popm.a	#1,	r11	
    4dd0:	10 01       	reta			

00004dd2 <etimer_expired>:
    4dd2:	1e 43       	mov	#1,	r14	;r3 As==01
    4dd4:	8f 93 0a 00 	tst	10(r15)	;0x000a(r15)
    4dd8:	01 24       	jz	$+4      	;abs 0x4ddc
    4dda:	0e 43       	clr	r14		
    4ddc:	0f 4e       	mov	r14,	r15	
    4dde:	10 01       	reta			

00004de0 <etimer_pending>:
    4de0:	1f 43       	mov	#1,	r15	;r3 As==01
    4de2:	82 93 3e 13 	tst	&0x133e	
    4de6:	01 20       	jnz	$+4      	;abs 0x4dea
    4de8:	0f 43       	clr	r15		
    4dea:	10 01       	reta			

00004dec <etimer_next_expiration_time>:

----------------------------------------
FILE: extra-firmwares/base-demo.simplelink
extra-firmwares/base-demo.simplelink: ELF 32-bit LSB executable, ARM, EABI5 version 1 (SYSV), statically linked, with debug_info, not stripped

[Contiki process / protothread symbols]
00010e58 R autostart_processes
0000fec4 T autostart_start
20001b20 D base_demo_process
20001b30 D button_hal_process
000105da t call_process
00002364 t call_process.part.0
20001c08 D ctimer_process
00001168 T ctimer_set_with_process
20001c18 D etimer_process
0000239c t exit_process
000080cc t ext_hdr_options_process
000016f4 T gpio_hal_arch_no_port_interrupt_enable
20002ea8 b ip_processor_list_list
200037d0 b nd6_opt_llao
20004a3e b nd6_opt_offset
00001f60 T netstack_process_ip_callback
00002444 T process_alloc_event
200030ac B process_current
00002f2c t process_dio_init_dag
00002458 T process_init
200030b0 B process_list
0000256c T process_poll
000024ec T process_post
00002528 T process_post_synch
00002464 T process_run
0000253c T process_start
000005b8 t process_thread_base_demo_process
00000708 t process_thread_button_hal_process
000010dc t process_thread_ctimer_process
00001360 t process_thread_etimer_process
00005138 t process_thread_rf_sched_process
00005238 t process_thread_serial_line_process
000066d0 t process_thread_stack_check_process
000070fc t process_thread_tcpip_process
20001db4 D rf_sched_process
00003408 T rpl_process_dao
00003454 T rpl_process_dao_ack
0000326c T rpl_process_dio
000033dc T rpl_process_dis
00010646 T rpl_process_hbh
20001dc4 D serial_line_process
20001dd4 D stack_check_process
20001de4 D tcpip_process
00008214 T uip_process

[Timer symbols]
0000fefc t check_etimer.part.0
00000a18 T clock_seconds
0000098c T clock_time
00001210 T ctimer_expired
0000114c T ctimer_init
20002960 b ctimer_list_list
20001c08 D ctimer_process
000011ac T ctimer_reset
000044a4 t ctimer_set.constprop.0
00001168 T ctimer_set_with_process
000011e4 T ctimer_stop
0000145c T etimer_next_expiration_time
0000144c T etimer_pending
20001c18 D etimer_process
00001354 T etimer_request_poll
0000ff8c T etimer_reset
0000ff7a T etimer_set
00001470 T etimer_stop
20003414 b next_rtimer
000010dc t process_thread_ctimer_process
00001360 t process_thread_etimer_process
00004c00 T rtimer_arch_init
00004c88 T rtimer_arch_now
000107fe t rtimer_clock_stub
00004bb0 t rtimer_isr_hook
00004c94 T rtimer_run_next
000108a6 T stimer_expired
000108d2 T timer_expired
000108ee T timer_reset
000108c4 T timer_set
20003f84 b usecsPerTimerTick

[NETSTACK / packetbuf / uIP callback symbols]
0000be9c t I2CCC26XX_blockingCallback
0000c00c t I2CCC26XX_primeTransfer.isra.10
0000c824 T PIN_getInputValue
0000c838 T PIN_setOutputEnable
0000c880 T PIN_setOutputValue
0000a484 t RF_clkInactivityCallback
0000968c t RF_defaultCallback
20002be0 b _link_stats_mem
20003350 b _rpl_neighbors_mem
0000db0c t blockingTransferCallback
20003460 b callback
00000f88 T csma_output_init
00000e80 T csma_output_packet
0000dd2c t csnCallback
200035fc b curr_input_cb
00003a4c t dao_ack_input
00003a84 t dao_input
00003bb4 t dio_input
00003dfc t dis_input
000007a8 t duration_exceeded_callback
200037c0 b echo_reply_callback_list_list
000078c8 t echo_reply_input
00007928 t echo_request_input
00001698 T gpio_hal_arch_no_port_pin_set_input
000016c4 T gpio_hal_arch_no_port_pin_set_output
00005e70 t input
200037c4 b input_handler_list_list
00001024 t input_packet
00001958 T link_stats_from_lladdr
00001a9c T link_stats_init
000019ec T link_stats_input_callback
00010374 T link_stats_is_fresh
00001964 T link_stats_packet_sent
00001a74 T link_stats_reset
20001c2c d link_stats_struct
000103a2 T linkaddr_cmp
00010398 T linkaddr_copy
20004344 B linkaddr_node_addr
000111f8 R linkaddr_null
20003418 b netstack_cmd_start_rat
2000342c b netstack_cmd_stop_rat
00004e60 T netstack_open
00001f60 T netstack_process_ip_callback
00004ea8 T netstack_sched_fs
00004f60 T netstack_sched_prop_tx
00005034 T netstack_sched_rx
000050f8 T netstack_stop_rx
00007bf4 t ns_input
20001e28 d ns_input_handler
00005628 t output
000070dc t packet_input
000021a8 T packetbuf_addr
20004352 B packetbuf_addrs
20002eac b packetbuf_aligned
0000218c T packetbuf_attr
000020a0 T packetbuf_attr_clear
00002150 T packetbuf_attr_copyfrom
00002120 T packetbuf_attr_copyto
20004362 B packetbuf_attrs
000020d4 T packetbuf_clear
000020f4 T packetbuf_copyfrom
00002008 T packetbuf_copyto
00001fd4 T packetbuf_datalen
00001ff8 T packetbuf_dataptr
2000514a b packetbuf_hdr_len
0000205c T packetbuf_hdralloc
00001fe0 T packetbuf_hdrlen
00001fcc T packetbuf_hdrptr
00001f98 T packetbuf_hdrreduce
000021b8 T packetbuf_holds_broadcast
200035d0 b packetbuf_payload_len
200035d4 b packetbuf_ptr
00002198 T packetbuf_set_addr
00002180 T packetbuf_set_attr
00001fc0 T packetbuf_set_datalen
00002048 T packetbuf_totlen
000070fc t process_thread_tcpip_process
00002be8 T queuebuf_free
00002b7c T queuebuf_init
00002ba4 T queuebuf_new_from_packetbuf
00002b98 T queuebuf_numfree
00002c14 T queuebuf_to_packetbuf
0001061a T queuebuf_update_attr_from_packetbuf
0000ea0c t readSemCallback
00000488 T rfDriverCallback
200020d8 b rf_netstack
00002fb4 T rpl_dag_get_root_ipaddr
00003544 T rpl_dag_init
000034a4 T rpl_dag_init_root
00002fe4 T rpl_dag_leave
00003044 T rpl_dag_periodic
00003034 T rpl_dag_poison_and_leave
00003118 T rpl_dag_ready_to_advertise
00002e94 T rpl_dag_root_is_root
00002dc0 T rpl_dag_root_set_prefix
00002e2c T rpl_dag_root_start
0000313c T rpl_dag_update_state
000036e0 T rpl_ext_header_hbh_update
00003768 T rpl_ext_header_remove
000035a8 T rpl_ext_header_srh_get_next_hop
0000362c T rpl_ext_header_srh_update
00003818 T rpl_ext_header_update
00004ab0 T rpl_get_global_address
000049e4 T rpl_get_leaf_only
000030e0 T rpl_global_repair
000049b4 T rpl_has_joined
00004100 T rpl_icmp6_dao_ack_output
00004030 T rpl_icmp6_dao_output
00003e60 T rpl_icmp6_dio_output
00003e28 T rpl_icmp6_dis_output
00004140 T rpl_icmp6_init
000106a2 T rpl_icmp6_update_nbr_table
00003088 T rpl_is_addr_in_our_dag
000049cc T rpl_is_reachable
20004aee b rpl_leaf_only
00004a5c T rpl_link_callback
00010fd4 R rpl_lite_driver
000030ac T rpl_local_repair
000107ca T rpl_lollipop_greater_than
20001d7c D rpl_mrhof
200048da B rpl_multicast_addr
0001073c T rpl_nbr_gc_get_worst
000043e0 T rpl_neighbor_get_from_ipaddr
000042ac T rpl_neighbor_get_from_lladdr
0001075a T rpl_neighbor_get_ipaddr
00010768 T rpl_neighbor_get_link_stats
000042d4 T rpl_neighbor_get_lladdr
00004450 T rpl_neighbor_init
00010776 T rpl_neighbor_is_fresh
000042bc T rpl_neighbor_rank_via_nbr
000043b0 T rpl_neighbor_remove_all
000043fc T rpl_neighbor_select_best
00004368 T rpl_neighbor_set_preferred_parent
20001da0 D rpl_neighbors
20001da4 d rpl_neighbors_struct
00003408 T rpl_process_dao
00003454 T rpl_process_dao_ack
0000326c T rpl_process_dio
000033dc T rpl_process_dis
00010646 T rpl_process_hbh
00004b20 T rpl_reset_prefix
00004890 T rpl_schedule_probing
000048b8 T rpl_schedule_probing_now
00004b48 T rpl_set_prefix_from_addr
000046cc T rpl_timers_dio_reset
00004934 T rpl_timers_init
00004794 T rpl_timers_notify_dao_ack
00004720 T rpl_timers_schedule_dao
00004750 T rpl_timers_schedule_dao_ack
00004904 T rpl_timers_schedule_leaving
00004618 T rpl_timers_schedule_periodic_dis
00004998 T rpl_timers_schedule_state_update
00004700 T rpl_timers_schedule_unicast_dio
00004954 T rpl_timers_stop_dag_timers
000048e0 T rpl_timers_unschedule_leaving
00011028 R sicslowpan_driver
0000532c T sicslowpan_init
2000514c B tcpip_event
00006fcc T tcpip_input
00006ff0 T tcpip_ipv6_output
00006fa0 T tcpip_output
20001de4 D tcpip_process
000071a8 T tcpip_uipcall
2000395c B uip_aligned_buf
20003e5c B uip_appdata
20003e60 B uip_conn
00007594 T uip_ds6_addr_add
000074e8 T uip_ds6_addr_lookup
0000765c T uip_ds6_addr_rm
20005151 B uip_ds6_addr_size
0000777c T uip_ds6_compute_reachable_time
00007444 T uip_ds6_default_prefix
00007394 T uip_ds6_defrt_add
000073f4 T uip_ds6_defrt_choose
00007368 T uip_ds6_defrt_lookup
0000741c T uip_ds6_defrt_periodic
00007338 T uip_ds6_defrt_rm
00007514 T uip_ds6_get_link_local
20003654 B uip_ds6_if
000077a8 T uip_ds6_init

[Contiki behavior strings]
CC13xx/CC26xx base demo process
Button HAL process
Starting Contiki-NG-develop/v4.9-639-g6ac4608cd-dirty
Ctimer process
Event timer
RPL Lite
RF Scheduler Process
GCC: (GNU Tools for Arm Embedded Processors 7-2017-q4-major) 7.2.1 20170904 (release) [ARM/embedded-7-branch revision 255204]
GCC: (GNU Tools for ARM Embedded Processors) 4.9.3 20150529 (release) [ARM/embedded-4_9-branch revision 227977]
ClockPTimer_nortos.c
TimerP.h
TimerPCC26XX_nortos.c
TimerP.h
timerFreq
TimerP_getCurrentTick
TimerP_StartMode_USER
TimerP_getCount64
usecsPerTimerTick
TimerP_Params_init
timerParams
TimerP_construct
_TimerP_FreqHz
TimerP_getFreq
_TimerP_Struct
TimerP_StartMode_AUTO
TimerP_getMaxTicks
timer
TimerP_setNextTick
dpl/ClockPTimer_nortos.c
TimerP_StartMode
TimerP_Handle
timerStruct
TimerP_Fxn
_TimerP_Params
TimerP_initialized
TimerP_setPeriod
TimerP_defaultParams
TimerP_setThreshold
TimerP_initDevice
TimerP_create
TimerP_handle
_TimerP_Obj
TimerP_dynamicStub
TimerP_startup
dpl/TimerPCC26XX_nortos.c
TimerP_stop
TimerP_start
timerFxn
TimerP_hwiStruct
deltaTimeRatClockTicks
process_thread_base_demo_process
process_thread_button_hal_process
check_etimer.part.0
contiki-main.c
ctimer.c
process_thread_ctimer_process
ctimer_list_list
etimer.c
process_thread_etimer_process
add_timer
timerlist
netstack.c
ip_processor_list_list
packetbuf.c
packetbuf_aligned
process.c
call_process.part.0
exit_process
call_process
queuebuf.c
process_dio_init_dag
rpl-timers.c
handle_unicast_dio_timer
handle_dao_ack_timer
handle_leaving_timer
ctimer_set.constprop.0
handle_dio_timer
handle_dis_timer
handle_periodic_timer
handle_probing_timer
rtimer-arch.c
rtimer_clock_stub
rtimer_isr_hook
rtimer.c
next_rtimer
process_thread_rf_sched_process
netstack_cmd_start_rat
netstack_cmd_stop_rat
rf_netstack
rf_start_recalib_timer
synth_recal_timer
process_thread_serial_line_process
packetbuf_hdr_len
packetbuf_payload_len
packetbuf_ptr
process_thread_stack_check_process
tcpip.c
process_thread_tcpip_process
uip-ds6-nbr.c
uip-ds6-route.c

[Disassembly samples around process/network functions]
000005b8 <process_thread_base_demo_process>:
     5b8:	b538      	push	{r3, r4, r5, lr}
     5ba:	8803      	ldrh	r3, [r0, #0]
     5bc:	4605      	mov	r5, r0
     5be:	4614      	mov	r4, r2
     5c0:	b19b      	cbz	r3, 5ea <process_thread_base_demo_process+0x32>
     5c2:	f240 126f 	movw	r2, #367	@ 0x16f
     5c6:	4293      	cmp	r3, r2
     5c8:	d14d      	bne.n	666 <MIN_STACKSIZE+0x66>
     5ca:	2988      	cmp	r1, #136	@ 0x88
     5cc:	d121      	bne.n	612 <MIN_STACKSIZE+0x12>
     5ce:	4b28      	ldr	r3, [pc, #160]	@ (670 <MIN_STACKSIZE+0x70>)
     5d0:	429c      	cmp	r4, r3
     5d2:	d119      	bne.n	608 <MIN_STACKSIZE+0x8>
     5d4:	2000      	movs	r0, #0
     5d6:	f001 f983 	bl	18e0 <leds_toggle>
     5da:	f7ff ffcf 	bl	57c <get_sync_sensor_readings>
     5de:	f44f 6120 	mov.w	r1, #2560	@ 0xa00
     5e2:	4620      	mov	r0, r4
     5e4:	f00f fcc9 	bl	ff7a <etimer_set>
     5e8:	e00e      	b.n	608 <MIN_STACKSIZE+0x8>
     5ea:	4822      	ldr	r0, [pc, #136]	@ (674 <MIN_STACKSIZE+0x74>)
     5ec:	f010 f808 	bl	10600 <puts>
     5f0:	4b21      	ldr	r3, [pc, #132]	@ (678 <MIN_STACKSIZE+0x78>)
     5f2:	2101      	movs	r1, #1
     5f4:	689b      	ldr	r3, [r3, #8]
     5f6:	2081      	movs	r0, #129	@ 0x81
     5f8:	4798      	blx	r3
     5fa:	481d      	ldr	r0, [pc, #116]	@ (670 <MIN_STACKSIZE+0x70>)
     5fc:	f44f 6120 	mov.w	r1, #2560	@ 0xa00
     600:	f00f fcbb 	bl	ff7a <etimer_set>
     604:	f7ff ffba 	bl	57c <get_sync_sensor_readings>
     608:	f240 136f 	movw	r3, #367	@ 0x16f
     60c:	802b      	strh	r3, [r5, #0]
     60e:	2001      	movs	r0, #1
     610:	bd38      	pop	{r3, r4, r5, pc}
     612:	4b1a      	ldr	r3, [pc, #104]	@ (67c <MIN_STACKSIZE+0x7c>)
     614:	781b      	ldrb	r3, [r3, #0]
     616:	428b      	cmp	r3, r1
     618:	d106      	bne.n	628 <MIN_STACKSIZE+0x28>
     61a:	f894 204a 	ldrb.w	r2, [r4, #74]	@ 0x4a
     61e:	6c21      	ldr	r1, [r4, #64]	@ 0x40
     620:	4817      	ldr	r0, [pc, #92]	@ (680 <MIN_STACKSIZE+0x80>)
     622:	f001 fe8f 	bl	2344 <printf>
     626:	e7ef      	b.n	608 <MIN_STACKSIZE+0x8>
     628:	4b16      	ldr	r3, [pc, #88]	@ (684 <MIN_STACKSIZE+0x84>)
     62a:	781b      	ldrb	r3, [r3, #0]
     62c:	428b      	cmp	r3, r1
     62e:	d104      	bne.n	63a <MIN_STACKSIZE+0x3a>
     630:	6c21      	ldr	r1, [r4, #64]	@ 0x40
     632:	4815      	ldr	r0, [pc, #84]	@ (688 <MIN_STACKSIZE+0x88>)
--
00000708 <process_thread_button_hal_process>:
     708:	e92d 41f3 	stmdb	sp!, {r0, r1, r4, r5, r6, r7, r8, lr}
     70c:	8803      	ldrh	r3, [r0, #0]
     70e:	4604      	mov	r4, r0
     710:	b1bb      	cbz	r3, 742 <process_thread_button_hal_process+0x3a>
     712:	f5b3 7f86 	cmp.w	r3, #268	@ 0x10c
     716:	d12d      	bne.n	774 <process_thread_button_hal_process+0x6c>
     718:	2982      	cmp	r1, #130	@ 0x82
     71a:	d115      	bne.n	748 <process_thread_button_hal_process+0x40>
     71c:	f00f fe26 	bl	1036c <int_master_read_and_disable>
     720:	f3bf 8f5f 	dmb	sy
     724:	4b16      	ldr	r3, [pc, #88]	@ (780 <process_thread_button_hal_process+0x78>)
     726:	2200      	movs	r2, #0
     728:	681e      	ldr	r6, [r3, #0]
     72a:	601a      	str	r2, [r3, #0]
     72c:	f3bf 8f5f 	dmb	sy
     730:	f00f fe1e 	bl	10370 <int_master_status_set>
     734:	4d13      	ldr	r5, [pc, #76]	@ (784 <process_thread_button_hal_process+0x7c>)
     736:	4f14      	ldr	r7, [pc, #80]	@ (788 <process_thread_button_hal_process+0x80>)
     738:	f8df 8050 	ldr.w	r8, [pc, #80]	@ 78c <process_thread_button_hal_process+0x84>
     73c:	f855 0b04 	ldr.w	r0, [r5], #4
     740:	b920      	cbnz	r0, 74c <process_thread_button_hal_process+0x44>
     742:	f44f 7386 	mov.w	r3, #268	@ 0x10c
     746:	8023      	strh	r3, [r4, #0]
     748:	2001      	movs	r0, #1
     74a:	e016      	b.n	77a <process_thread_button_hal_process+0x72>
     74c:	f890 3049 	ldrb.w	r3, [r0, #73]	@ 0x49
     750:	fa26 f303 	lsr.w	r3, r6, r3
     754:	07db      	lsls	r3, r3, #31
     756:	d5f1      	bpl.n	73c <process_thread_button_hal_process+0x34>
     758:	f000 fd5a 	bl	1210 <ctimer_expired>
     75c:	2800      	cmp	r0, #0
     75e:	d0ed      	beq.n	73c <process_thread_button_hal_process+0x34>
     760:	683b      	ldr	r3, [r7, #0]
     762:	9300      	str	r3, [sp, #0]
     764:	f855 3c04 	ldr.w	r3, [r5, #-4]
     768:	4642      	mov	r2, r8
     76a:	2102      	movs	r1, #2
     76c:	4618      	mov	r0, r3
     76e:	f000 fcfb 	bl	1168 <ctimer_set_with_process>
     772:	e7e3      	b.n	73c <process_thread_button_hal_process+0x34>
     774:	2300      	movs	r3, #0
     776:	8003      	strh	r3, [r0, #0]
     778:	2003      	movs	r0, #3
     77a:	b002      	add	sp, #8
     77c:	e8bd 81f0 	ldmia.w	sp!, {r4, r5, r6, r7, r8, pc}
     780:	20002804 	.word	0x20002804
     784:	20001b40 	.word	0x20001b40
     788:	200030ac 	.word	0x200030ac
     78c:	000007e9 	.word	0x000007e9

00000790 <press_release_handler>:
     790:	4a03      	ldr	r2, [pc, #12]	@ (7a0 <press_release_handler+0x10>)
     792:	6813      	ldr	r3, [r2, #0]
     794:	4303      	orrs	r3, r0
     796:	4803      	ldr	r0, [pc, #12]	@ (7a4 <press_release_handler+0x14>)
     798:	6013      	str	r3, [r2, #0]
     79a:	f001 bee7 	b.w	256c <process_poll>
     79e:	bf00      	nop
     7a0:	20002804 	.word	0x20002804
     7a4:	20001b30 	.word	0x20001b30
--
     7c4:	f000 fcd0 	bl	1168 <ctimer_set_with_process>
     7c8:	4b06      	ldr	r3, [pc, #24]	@ (7e4 <duration_exceeded_callback+0x3c>)
     7ca:	7819      	ldrb	r1, [r3, #0]
     7cc:	4622      	mov	r2, r4
     7ce:	2000      	movs	r0, #0
     7d0:	b002      	add	sp, #8
     7d2:	e8bd 4010 	ldmia.w	sp!, {r4, lr}
     7d6:	f001 be89 	b.w	24ec <process_post>
     7da:	bf00      	nop
     7dc:	000007a9 	.word	0x000007a9
     7e0:	200030ac 	.word	0x200030ac
     7e4:	20004a90 	.word	0x20004a90

000007e8 <debounce_handler>:
     7e8:	b573      	push	{r0, r1, r4, r5, r6, lr}
     7ea:	4604      	mov	r4, r0
     7ec:	f000 fd10 	bl	1210 <ctimer_expired>
     7f0:	b340      	cbz	r0, 844 <debounce_handler+0x5c>
     7f2:	f104 0620 	add.w	r6, r4, #32
     7f6:	4630      	mov	r0, r6
     7f8:	f000 fd0a 	bl	1210 <ctimer_expired>
     7fc:	4605      	mov	r5, r0
     7fe:	4620      	mov	r0, r4
     800:	f00f fb6a 	bl	fed8 <button_hal_get_state>
     804:	2801      	cmp	r0, #1
     806:	d115      	bne.n	834 <debounce_handler+0x4c>
     808:	b1e5      	cbz	r5, 844 <debounce_handler+0x5c>
     80a:	4b0f      	ldr	r3, [pc, #60]	@ (848 <debounce_handler+0x60>)
     80c:	4a0f      	ldr	r2, [pc, #60]	@ (84c <debounce_handler+0x64>)
     80e:	681b      	ldr	r3, [r3, #0]
     810:	9300      	str	r3, [sp, #0]
     812:	2500      	movs	r5, #0
     814:	4623      	mov	r3, r4
     816:	f884 504a 	strb.w	r5, [r4, #74]	@ 0x4a
     81a:	217e      	movs	r1, #126	@ 0x7e
     81c:	4630      	mov	r0, r6
     81e:	f000 fca3 	bl	1168 <ctimer_set_with_process>
     822:	4b0b      	ldr	r3, [pc, #44]	@ (850 <debounce_handler+0x68>)
     824:	4622      	mov	r2, r4
     826:	7819      	ldrb	r1, [r3, #0]
     828:	4628      	mov	r0, r5
     82a:	b002      	add	sp, #8
     82c:	e8bd 4070 	ldmia.w	sp!, {r4, r5, r6, lr}
     830:	f001 be5c 	b.w	24ec <process_post>
     834:	b930      	cbnz	r0, 844 <debounce_handler+0x5c>
     836:	b92d      	cbnz	r5, 844 <debounce_handler+0x5c>
     838:	4630      	mov	r0, r6
     83a:	f000 fcd3 	bl	11e4 <ctimer_stop>
     83e:	4b05      	ldr	r3, [pc, #20]	@ (854 <debounce_handler+0x6c>)
     840:	4622      	mov	r2, r4
     842:	e7f0      	b.n	826 <debounce_handler+0x3e>
     844:	b002      	add	sp, #8
     846:	bd70      	pop	{r4, r5, r6, pc}
     848:	200030ac 	.word	0x200030ac
     84c:	000007a9 	.word	0x000007a9
     850:	20004a91 	.word	0x20004a91
     854:	20004a92 	.word	0x20004a92

00000858 <button_hal_init>:
     858:	b5f8      	push	{r3, r4, r5, r6, r7, lr}
     85a:	f001 fdf3 	bl	2444 <process_alloc_event>
     85e:	4b1d      	ldr	r3, [pc, #116]	@ (8d4 <button_hal_init+0x7c>)
     860:	4d1d      	ldr	r5, [pc, #116]	@ (8d8 <button_hal_init+0x80>)
     862:	7018      	strb	r0, [r3, #0]
     864:	f001 fdee 	bl	2444 <process_alloc_event>
     868:	4b1c      	ldr	r3, [pc, #112]	@ (8dc <button_hal_init+0x84>)
     86a:	4e1d      	ldr	r6, [pc, #116]	@ (8e0 <button_hal_init+0x88>)
     86c:	7018      	strb	r0, [r3, #0]
--
     888:	f001 fe58 	bl	253c <process_start>
     88c:	e8bd 40f8 	ldmia.w	sp!, {r3, r4, r5, r6, r7, lr}
     890:	4811      	ldr	r0, [pc, #68]	@ (8d8 <button_hal_init+0x80>)
     892:	f000 bf99 	b.w	17c8 <gpio_hal_register_handler>
     896:	6c4b      	ldr	r3, [r1, #68]	@ 0x44
     898:	f891 0049 	ldrb.w	r0, [r1, #73]	@ 0x49
     89c:	f043 048c 	orr.w	r4, r3, #140	@ 0x8c
     8a0:	f000 fefa 	bl	1698 <gpio_hal_arch_no_port_pin_set_input>
     8a4:	f856 3c04 	ldr.w	r3, [r6, #-4]
     8a8:	4621      	mov	r1, r4
     8aa:	f893 0049 	ldrb.w	r0, [r3, #73]	@ 0x49
     8ae:	f000 ff35 	bl	171c <gpio_hal_arch_no_port_pin_cfg_set>
     8b2:	f856 3c04 	ldr.w	r3, [r6, #-4]
     8b6:	f893 0049 	ldrb.w	r0, [r3, #73]	@ 0x49
     8ba:	f000 ff1b 	bl	16f4 <gpio_hal_arch_no_port_interrupt_enable>
     8be:	f856 3c04 	ldr.w	r3, [r6, #-4]
     8c2:	68aa      	ldr	r2, [r5, #8]
     8c4:	f893 3049 	ldrb.w	r3, [r3, #73]	@ 0x49
     8c8:	fa07 f303 	lsl.w	r3, r7, r3
     8cc:	4313      	orrs	r3, r2
     8ce:	60ab      	str	r3, [r5, #8]
--
     9a6:	f000 fd51 	bl	144c <etimer_pending>
     9aa:	b360      	cbz	r0, a06 <clock_arch_enter_idle+0x62>
     9ac:	f7ff ffee 	bl	98c <clock_time>
     9b0:	4605      	mov	r5, r0
     9b2:	f000 fd53 	bl	145c <etimer_next_expiration_time>
     9b6:	1a2b      	subs	r3, r5, r0
     9b8:	2b00      	cmp	r3, #0
     9ba:	4604      	mov	r4, r0
     9bc:	db17      	blt.n	9ee <clock_arch_enter_idle+0x4a>
     9be:	f000 fcc9 	bl	1354 <etimer_request_poll>
     9c2:	2500      	movs	r5, #0
     9c4:	f007 ff2e 	bl	8824 <watchdog_arch_next_timeout>
     9c8:	4604      	mov	r4, r0
     9ca:	f008 f9f7 	bl	8dbc <ClockP_getSystemTickPeriod>
     9ce:	fbb4 f1f0 	udiv	r1, r4, r0

----------------------------------------
FILE: extra-firmwares/hardworker.z1
extra-firmwares/hardworker.z1: ELF 32-bit LSB executable, TI msp430, version 1 (embedded), statically linked, with debug_info, not stripped

[Contiki process / protothread symbols]
00001100 D accmeter_process
0000c52a R autostart_processes
00003a70 T autostart_start
00006cfe t call_process
0000110c D cc2420_process
00001130 D ctimer_process
0000502c T ctimer_set_with_process
0000114a D dummy_printer_process
0000113c D etimer_process
00006daa t exit_process
00013618 t ext_hdr_options_process
         U gpio_hal_arch_port_interrupt_enable
00001522 b ip_processor_list_list
0000116e D led_process
000023ae b nd6_opt_llao
000023b0 b nd6_opt_offset
00006926 T netstack_process_ip_callback
00006e9e T process_alloc_event
00002542 B process_current
00007574 t process_dio_init_dag
00006eda T process_init
0000253e B process_list
00002540 B process_maxevents
00006f68 T process_nevents
000070dc T process_poll
00006f72 T process_post
00007066 T process_post_synch
00006ee2 T process_run
00007078 T process_start
000038d2 t process_thread_accmeter_process
0000409c t process_thread_cc2420_process
00004f86 t process_thread_ctimer_process
00005bcc t process_thread_dummy_printer_process
0000519e t process_thread_etimer_process
00005c8a t process_thread_led_process
00005b74 t process_thread_sensor_process
0000add2 t process_thread_sensors_process
0001122e t process_thread_stack_check_process
00011768 t process_thread_tcpip_process
00005c24 t process_thread_udp_process
00007f4e T rpl_process_dao
00007fd8 T rpl_process_dao_ack
00007bbc T rpl_process_dio
00007f00 T rpl_process_dis
00008058 T rpl_process_hbh
00001156 D sensor_process
000011fc D sensors_process
00001208 D stack_check_process
00001214 D tcpip_process
00001162 D udp_process
000138b0 T uip_process

[Timer symbols]
000045fa T clock_seconds
00004588 T clock_time
000050fa T ctimer_expired
00005018 T ctimer_init
00001362 b ctimer_list_list
00001130 D ctimer_process
000050a6 T ctimer_reset
0000a3e0 t ctimer_set.constprop.3
0000502c T ctimer_set_with_process
000050d2 T ctimer_stop
0000128a b debouncetimer
000052d2 T etimer_next_expiration_time
000052c6 T etimer_pending
0000113c D etimer_process
00005194 T etimer_request_poll
000052b4 T etimer_reset
000052a2 T etimer_set
000052e8 T etimer_stop
00001bbe b next_rtimer
00004f86 t process_thread_ctimer_process
0000519e t process_thread_etimer_process
0000ad9e T rtimer_arch_init
0000adac T rtimer_arch_now
0000adba T rtimer_run_next
0000c3e4 T stimer_expired
0000127a b suppressTimer1
00001282 b suppressTimer2
0001185e T timer_expired
00011888 T timer_reset
00011842 T timer_set

[NETSTACK / packetbuf / uIP callback symbols]
0000138e b _link_stats_mem
00001b52 b _rpl_neighbors_mem
00001bc4 b callback
00004d10 T csma_output_init
00004ab2 T csma_output_packet
00001192 D curr_log_level_rpl
00001190 D curr_log_level_tcpip
00008bda t dao_ack_input
00008c9e t dao_input
00009008 t dio_input
000094b4 t dis_input
000023ac b echo_reply_callback_list_list
000127a8 t echo_reply_input
00012866 t echo_request_input
         U gpio_hal_arch_port_pin_set_input
00010000 t input
0000239a b input_handler_list_list
00004dae t input_packet
00005eb6 T link_stats_from_lladdr
000060f4 T link_stats_init
00005fd4 T link_stats_input_callback
00005ec2 T link_stats_is_fresh
00005ef2 T link_stats_packet_sent
000060ca T link_stats_reset
0000117a d link_stats_struct
00006122 T linkaddr_cmp
0000611a T linkaddr_copy
0000250c B linkaddr_node_addr
0000c534 R linkaddr_null
00006926 T netstack_process_ip_callback
00012cc8 t ns_input
00001242 d ns_input_handler
0000b562 t output
0000c4f4 r output_power
0001172c t packet_input.part.2
00006b46 T packetbuf_addr
00002516 B packetbuf_addrs
0000152a b packetbuf_aligned
00006b2a T packetbuf_attr
00006a76 T packetbuf_attr_clear
00006afc T packetbuf_attr_copyfrom
00006ada T packetbuf_attr_copyto
00002526 B packetbuf_attrs
00006a9e T packetbuf_clear
00006ab0 T packetbuf_copyfrom
000069f4 T packetbuf_copyto
000069d8 T packetbuf_datalen
000069e8 T packetbuf_dataptr
000024c3 b packetbuf_hdr_len
00006a3a T packetbuf_hdralloc
000069de T packetbuf_hdrlen
000069d2 T packetbuf_hdrptr
000069b2 T packetbuf_hdrreduce
00006b54 T packetbuf_holds_broadcast
00001bd8 b packetbuf_payload_len
00001bd0 b packetbuf_ptr
00006b34 T packetbuf_set_addr
00006b20 T packetbuf_set_attr
000069cc T packetbuf_set_datalen
00006a2e T packetbuf_totlen
00011768 t process_thread_tcpip_process
000071cc T queuebuf_attr
00007170 T queuebuf_free
000070f4 T queuebuf_init
00007110 T queuebuf_new_from_packetbuf
00007106 T queuebuf_numfree
0000719a T queuebuf_to_packetbuf
0000715e T queuebuf_update_attr_from_packetbuf
0000772a T rpl_dag_get_root_ipaddr
0000817c T rpl_dag_init
0000807e T rpl_dag_init_root
00007748 T rpl_dag_leave
000077ec T rpl_dag_periodic
000077e0 T rpl_dag_poison_and_leave
00007992 T rpl_dag_ready_to_advertise
000073a8 T rpl_dag_root_is_root
000073bc T rpl_dag_root_print_links
000071e6 T rpl_dag_root_set_prefix
000072dc T rpl_dag_root_start
00007718 T rpl_dag_state_to_str
000079b4 T rpl_dag_update_state
000084b6 T rpl_ext_header_hbh_update
0000865c T rpl_ext_header_remove
00008224 T rpl_ext_header_srh_get_next_hop
000082c4 T rpl_ext_header_srh_update
0000871c T rpl_ext_header_update
0000abba T rpl_get_global_address
0000aa36 T rpl_get_leaf_only
0000791e T rpl_global_repair
0000aa0e T rpl_has_joined
00009ad4 T rpl_icmp6_dao_ack_output
000098e2 T rpl_icmp6_dao_output
0000964a T rpl_icmp6_dio_output
000095d4 T rpl_icmp6_dis_output
00009b74 T rpl_icmp6_init
0000953c T rpl_icmp6_update_nbr_table
000078a2 T rpl_is_addr_in_our_dag
0000aa20 T rpl_is_reachable
000024c0 b rpl_leaf_only
0000ab02 T rpl_link_callback
0000c544 R rpl_lite_driver
000078c8 T rpl_local_repair
0000ab7e T rpl_lollipop_greater_than
000011ce D rpl_mrhof
00002650 B rpl_multicast_addr
00009d5a T rpl_nbr_gc_get_worst
00009dc4 T rpl_neighbor_count
0000a2ec T rpl_neighbor_get_from_ipaddr
00009de8 T rpl_neighbor_get_from_lladdr
00009e48 T rpl_neighbor_get_ipaddr
00009e0c T rpl_neighbor_get_link_metric
00009e52 T rpl_neighbor_get_link_stats
00009e3c T rpl_neighbor_get_lladdr
0000a39c T rpl_neighbor_init
00009df4 T rpl_neighbor_is_acceptable_parent
00009e5c T rpl_neighbor_is_fresh
0000a0be T rpl_neighbor_print_list
00009e24 T rpl_neighbor_rank_via_nbr
0000a298 T rpl_neighbor_remove_all
0000a300 T rpl_neighbor_select_best
0000a1e0 T rpl_neighbor_set_preferred_parent
00009ee4 T rpl_neighbor_snprint
000011f0 D rpl_neighbors
000011f2 d rpl_neighbors_struct
00007f4e T rpl_process_dao
00007fd8 T rpl_process_dao_ack
00007bbc T rpl_process_dio
00007f00 T rpl_process_dis
00008058 T rpl_process_hbh
0000ac46 T rpl_reset_prefix
0000a84e T rpl_schedule_probing
0000a930 T rpl_schedule_probing_now
0000acb6 T rpl_set_prefix_from_addr
0000a602 T rpl_timers_dio_reset
0000a992 T rpl_timers_init
0000a6de T rpl_timers_notify_dao_ack
0000a67a T rpl_timers_schedule_dao
0000a6ae T rpl_timers_schedule_dao_ack
0000a96c T rpl_timers_schedule_leaving
0000a552 T rpl_timers_schedule_periodic_dis
0000a9f6 T rpl_timers_schedule_state_update
0000a65e T rpl_timers_schedule_unicast_dio
0000a9aa T rpl_timers_stop_dag_timers
0000a950 T rpl_timers_unschedule_leaving
0000c596 R sicslowpan_driver
0000af14 T sicslowpan_init
000028b1 B tcpip_event
000112fc T tcpip_input
0001131a T tcpip_ipv6_output
000112da T tcpip_output
00001214 D tcpip_process
00011818 T tcpip_uipcall
000022a6 b uart0_input_handler
000027de B uip_aligned_buf
0000286e B uip_appdata
00013786 t uip_check_mtu
00002870 B uip_conn
00012272 T uip_ds6_addr_add
000121c8 T uip_ds6_addr_lookup
0001235c T uip_ds6_addr_rm
00002771 B uip_ds6_addr_size
000124f0 T uip_ds6_compute_reachable_time
00012022 T uip_ds6_default_prefix
00011dc0 T uip_ds6_defrt_add
00011ed6 T uip_ds6_defrt_choose
00011d90 T uip_ds6_defrt_lookup
00011fd0 T uip_ds6_defrt_periodic
00011d3e T uip_ds6_defrt_rm
000121f2 T uip_ds6_get_link_local
00002668 B uip_ds6_if
00012526 T uip_ds6_init
00012188 T uip_ds6_is_addr_onlink
0000c414 T uip_ds6_link_callback
00012028 T uip_ds6_list_loop
00012230 T uip_ds6_maddr_add
00012332 T uip_ds6_maddr_lookup
00012328 T uip_ds6_maddr_rm
00011a78 T uip_ds6_nbr_add
00011b88 T uip_ds6_nbr_get_ll
00011b94 T uip_ds6_nbr_head

[Contiki behavior strings]
Accelerometer process
starting process '%s'
Starting Contiki-NG-develop/v4.9-639-g6ac4608cd-dirty
packet sent to 
packet sent: no metadata
could not allocate queuebuf, dropping packet
could not allocate packet, dropping packet
could not allocate neighbor, dropping packet
received packet from 
CTimer
ctimer_set %p %lu
Ctimer process
Event timer
Process
process '%s' called again with event %d
calling process '%s' with event %d
exit_process '%s'
Process '%s' posts event %d to process '%s', nevents %d
just joined, no parent yet, setting timer for leaving
reset DIO timer (%s)
packet sent to 
RPL Lite
output: could not allocate queuebuf, dropping fragment
output: failed to calculate payload size - dropping packet
Not enough packetbuf space to compress header (%u bytes, %u left). Aborting.
output: fragmentation needed. fragments: %u, free queuebufs: %zu
output: dropping packet, not enough free bufs (needed: %zu, free: %zu)
output: uip_len is smaller than uncomp_hdr_len (%d < %d)
Not enough packetbuf space to decompress header (%u bytes, %u left). Aborting.
output: processing %u bytes packet from 
output: No next-hop found, dropping packet
uip_ds6_nbr_update_ll
Extension header option too long: dropping packet
Processing PAD1 option
Processing PADN option
Processing RPL option
RPL Option Error: Dropping Packet
Removing IPv6 extension headers (extlen: %d, uiplen: %d)
uip_len too short compared to ext len
dropping packet with length %d > %d
Dropping packet, src is mcast
Dropping packet, not for me and link local or multicast
Processing hbh header
Processing desto header
Processing Routing header

[Disassembly samples around process/network functions]
0001122e <process_thread_stack_check_process>:
   1122e:	2b 14       	pushm.a	#3,	r11	
   11230:	0a 4f       	mov	r15,	r10	
   11232:	2f 4f       	mov	@r15,	r15	
   11234:	0f 93       	tst	r15		
   11236:	04 24       	jz	$+10     	;abs 0x11240
   11238:	3f 90 97 00 	cmp	#151,	r15	;#0x0097
   1123c:	41 20       	jnz	$+132    	;abs 0x112c0
   1123e:	47 3c       	jmp	$+144    	;abs 0x112ce
   11240:	3d 40 00 05 	mov	#1280,	r13	;#0x0500
   11244:	0e 43       	clr	r14		
   11246:	3f 40 8e 22 	mov	#8846,	r15	;#0x228e
   1124a:	b0 13 a2 52 	calla	#0x052a2	
   1124e:	ba 40 97 00 	mov	#151,	0(r10)	;#0x0097, 0x0000(r10)
   11252:	00 00 
   11254:	3a 3c       	jmp	$+118    	;abs 0x112ca
   11256:	b0 13 9e c3 	calla	#0x0c39e	
   1125a:	09 4f       	mov	r15,	r9	
   1125c:	3b 40 00 31 	mov	#12544,	r11	;#0x3100
   11260:	3b 80 b8 28 	sub	#10424,	r11	;#0x28b8
   11264:	0b 9f       	cmp	r15,	r11	
--
000112da <tcpip_output>:
   112da:	0b 14       	pushm.a	#1,	r11	
   112dc:	0b 4f       	mov	r15,	r11	
   112de:	0e 4f       	mov	r15,	r14	
   112e0:	5f 43       	mov.b	#1,	r15	;r3 As==01
   112e2:	b0 13 26 69 	calla	#0x06926	
   112e6:	0f 93       	tst	r15		
   112e8:	04 20       	jnz	$+10     	;abs 0x112f2
   112ea:	0f 4b       	mov	r11,	r15	
   112ec:	80 13 a0 c5 	calla	&0x0c5a0	
   112f0:	03 3c       	jmp	$+8      	;abs 0x112f8
   112f2:	b1 13 6a 43 	calla	#0x1436a	
   112f6:	4f 43       	clr.b	r15		
   112f8:	0b 16       	popm.a	#1,	r11	
   112fa:	10 01       	reta			

000112fc <tcpip_input>:
   112fc:	0e 43       	clr	r14		
   112fe:	4f 43       	clr.b	r15		
   11300:	b0 13 26 69 	calla	#0x06926	
   11304:	0f 93       	tst	r15		
   11306:	06 20       	jnz	$+14     	;abs 0x11314
   11308:	0d 43       	clr	r13		
   1130a:	6e 43       	mov.b	#2,	r14	;r3 As==10
   1130c:	3f 40 14 12 	mov	#4628,	r15	;#0x1214
   11310:	b0 13 66 70 	calla	#0x07066	
   11314:	b1 13 6a 43 	calla	#0x1436a	
   11318:	10 01       	reta			

0001131a <tcpip_ipv6_output>:
   1131a:	1b 14       	pushm.a	#2,	r11	
   1131c:	31 50 e8 ff 	add	#-24,	r1	;#0xffe8
   11320:	1f 42 d2 27 	mov	&0x27d2,r15	
   11324:	0f 93       	tst	r15		
   11326:	02 20       	jnz	$+6      	;abs 0x1132c
   11328:	80 01 24 17 	bra	#0x11724	
   1132c:	3f 90 01 05 	cmp	#1281,	r15	;#0x0501
   11330:	12 28       	jnc	$+38     	;abs 0x11356
   11332:	92 93 90 11 	cmp	#1,	&0x1190	;r3 As==01
   11336:	02 34       	jge	$+6      	;abs 0x1133c
   11338:	80 01 02 17 	bra	#0x11702	
   1133c:	30 12 c2 f0 	push	#-3902		;#0xf0c2
   11340:	30 12 c9 f0 	push	#-3895		;#0xf0c9
   11344:	30 12 cd f0 	push	#-3891		;#0xf0cd
   11348:	b1 13 e4 45 	calla	#0x145e4	
   1134c:	31 50 06 00 	add	#6,	r1	;#0x0006
   11350:	30 12 dc f0 	push	#-3876		;#0xf0dc
   11354:	29 3c       	jmp	$+84     	;abs 0x113a8
   11356:	82 93 f6 27 	tst	&0x27f6	
   1135a:	2b 20       	jnz	$+88     	;abs 0x113b2
--
00011768 <process_thread_tcpip_process>:
   11768:	0b 14       	pushm.a	#1,	r11	
   1176a:	0b 4f       	mov	r15,	r11	
   1176c:	2f 4f       	mov	@r15,	r15	
   1176e:	0f 93       	tst	r15		
   11770:	04 24       	jz	$+10     	;abs 0x1177a
   11772:	3f 90 35 03 	cmp	#821,	r15	;#0x0335
   11776:	3a 20       	jnz	$+118    	;abs 0x117ec
   11778:	3e 3c       	jmp	$+126    	;abs 0x117f6
   1177a:	b0 13 9e 6e 	calla	#0x06e9e	
   1177e:	c2 4f b1 28 	mov.b	r15,	&0x28b1	
   11782:	3d 40 40 00 	mov	#64,	r13	;#0x0040
   11786:	0e 43       	clr	r14		
   11788:	3f 40 9a 22 	mov	#8858,	r15	;#0x229a
   1178c:	b0 13 a2 52 	calla	#0x052a2	
   11790:	b1 13 dc 37 	calla	#0x137dc	
   11794:	80 13 46 c5 	calla	&0x0c546	
   11798:	bb 40 35 03 	mov	#821,	0(r11)	;#0x0335, 0x0000(r11)
   1179c:	00 00 
   1179e:	5f 43       	mov.b	#1,	r15	;r3 As==01
   117a0:	39 3c       	jmp	$+116    	;abs 0x11814
--
00011818 <tcpip_uipcall>:
   11818:	1e 42 70 28 	mov	&0x2870,r14	
   1181c:	0e 93       	tst	r14		
   1181e:	03 24       	jz	$+8      	;abs 0x11826
   11820:	3e 50 28 00 	add	#40,	r14	;#0x0028
   11824:	04 3c       	jmp	$+10     	;abs 0x1182e
   11826:	1e 42 6c 28 	mov	&0x286c,r14	
   1182a:	3e 50 16 00 	add	#22,	r14	;#0x0016
   1182e:	2f 4e       	mov	@r14,	r15	
   11830:	0f 93       	tst	r15		
   11832:	06 24       	jz	$+14     	;abs 0x11840
   11834:	1d 4e 02 00 	mov	2(r14),	r13	;0x0002(r14)
   11838:	5e 42 b1 28 	mov.b	&0x28b1,r14	
   1183c:	b0 13 66 70 	calla	#0x07066	
   11840:	10 01       	reta			

00011842 <timer_set>:
   11842:	0b 14       	pushm.a	#1,	r11	
   11844:	0b 4f       	mov	r15,	r11	
   11846:	8f 4d 04 00 	mov	r13,	4(r15)	;0x0004(r15)
   1184a:	8f 4e 06 00 	mov	r14,	6(r15)	;0x0006(r15)
--
000138b0 <uip_process>:
   138b0:	2b 14       	pushm.a	#3,	r11	
   138b2:	21 83       	decd	r1		
   138b4:	6f 92       	cmp.b	#4,	r15	;r2 As==10
   138b6:	02 20       	jnz	$+6      	;abs 0x138bc
   138b8:	80 01 98 40 	bra	#0x14098	
   138bc:	b2 40 1a 28 	mov	#10266,	&0x286e	;#0x281a
   138c0:	6e 28 
   138c2:	b2 40 1a 28 	mov	#10266,	&0x27d4	;#0x281a
   138c6:	d4 27 
   138c8:	7f 90 05 00 	cmp.b	#5,	r15	;#0x0005
   138cc:	17 20       	jnz	$+48     	;abs 0x138fc
   138ce:	1f 42 6c 28 	mov	&0x286c,r15	
   138d2:	8f 93 10 00 	tst	16(r15)	;0x0010(r15)
   138d6:	02 20       	jnz	$+6      	;abs 0x138dc
   138d8:	80 01 a8 41 	bra	#0x141a8	
   138dc:	82 43 70 28 	mov	#0,	&0x2870	;r3 As==00
   138e0:	b2 40 0e 28 	mov	#10254,	&0x286e	;#0x280e
   138e4:	6e 28 
   138e6:	b2 40 0e 28 	mov	#10254,	&0x27d4	;#0x280e
   138ea:	d4 27 
--
000038d2 <process_thread_accmeter_process>:
    38d2:	0b 14       	pushm.a	#1,	r11	
    38d4:	0b 4f       	mov	r15,	r11	
    38d6:	7e 90 82 ff 	cmp.b	#-126,	r14	;#0xff82
    38da:	13 20       	jnz	$+40     	;abs 0x3902
    38dc:	7f 40 30 00 	mov.b	#48,	r15	;#0x0030
    38e0:	b0 13 7e 38 	calla	#0x0387e	
    38e4:	4e 4f       	mov.b	r15,	r14	
    38e6:	1e b2 76 12 	bit	&0x1276,r14	
    38ea:	03 24       	jz	$+8      	;abs 0x38f2
    38ec:	2e 00 d8 24 	mova	&0x024d8,r14	
    38f0:	05 3c       	jmp	$+12     	;abs 0x38fc
    38f2:	1e b2 78 12 	bit	&0x1278,r14	
    38f6:	05 24       	jz	$+12     	;abs 0x3902
    38f8:	2e 00 d4 24 	mova	&0x024d4,r14	
    38fc:	de 03       	tsta	r14		
    38fe:	01 24       	jz	$+4      	;abs 0x3902
    3900:	4e 13       	calla	r14		
    3902:	2f 4b       	mov	@r11,	r15	
    3904:	0f 93       	tst	r15		
    3906:	04 24       	jz	$+10     	;abs 0x3910
--
0000409c <process_thread_cc2420_process>:
    409c:	0b 14       	pushm.a	#1,	r11	
    409e:	0b 4f       	mov	r15,	r11	
    40a0:	2f 4f       	mov	@r15,	r15	
    40a2:	0f 93       	tst	r15		
    40a4:	04 24       	jz	$+10     	;abs 0x40ae
    40a6:	3f 90 81 03 	cmp	#897,	r15	;#0x0381
    40aa:	15 20       	jnz	$+44     	;abs 0x40d6
    40ac:	1b 3c       	jmp	$+56     	;abs 0x40e4
    40ae:	bb 40 81 03 	mov	#897,	0(r11)	;#0x0381, 0x0000(r11)
    40b2:	00 00 
    40b4:	15 3c       	jmp	$+44     	;abs 0x40e0
    40b6:	7e 90 82 ff 	cmp.b	#-126,	r14	;#0xff82
    40ba:	12 20       	jnz	$+38     	;abs 0x40e0
    40bc:	b0 13 9e 6a 	calla	#0x06a9e	
    40c0:	b0 13 e8 69 	calla	#0x069e8	
    40c4:	3e 40 80 00 	mov	#128,	r14	;#0x0080
    40c8:	b0 13 e2 3f 	calla	#0x03fe2	
    40cc:	b0 13 cc 69 	calla	#0x069cc	
    40d0:	80 13 0e c5 	calla	&0x0c50e	
    40d4:	ec 3f       	jmp	$-38     	;abs 0x40ae
--
00004f86 <process_thread_ctimer_process>:
    4f86:	2b 14       	pushm.a	#3,	r11	
    4f88:	0a 4f       	mov	r15,	r10	
    4f8a:	2f 4f       	mov	@r15,	r15	
    4f8c:	0f 93       	tst	r15		
    4f8e:	04 24       	jz	$+10     	;abs 0x4f98
    4f90:	3f 90 45 00 	cmp	#69,	r15	;#0x0045
    4f94:	34 20       	jnz	$+106    	;abs 0x4ffe
    4f96:	3a 3c       	jmp	$+118    	;abs 0x500c
    4f98:	1b 42 62 13 	mov	&0x1362,r11	
    4f9c:	09 3c       	jmp	$+20     	;abs 0x4fb0
    4f9e:	1d 4b 06 00 	mov	6(r11),	r13	;0x0006(r11)
    4fa2:	1e 4b 08 00 	mov	8(r11),	r14	;0x0008(r11)
    4fa6:	0f 4b       	mov	r11,	r15	
    4fa8:	2f 53       	incd	r15		
    4faa:	b0 13 a2 52 	calla	#0x052a2	
    4fae:	2b 4b       	mov	@r11,	r11	
    4fb0:	0b 93       	tst	r11		
    4fb2:	f5 23       	jnz	$-20     	;abs 0x4f9e
    4fb4:	d2 43 8d 24 	mov.b	#1,	&0x248d	;r3 As==01
    4fb8:	ba 40 45 00 	mov	#69,	0(r10)	;#0x0045, 0x0000(r10)
--
00005018 <ctimer_init>:
    5018:	c2 43 8d 24 	mov.b	#0,	&0x248d	;r3 As==00
    501c:	82 43 62 13 	mov	#0,	&0x1362	;r3 As==00
    5020:	0e 43       	clr	r14		
    5022:	3f 40 30 11 	mov	#4400,	r15	;#0x1130
    5026:	b0 13 78 70 	calla	#0x07078	
    502a:	10 01       	reta			

0000502c <ctimer_set_with_process>:
    502c:	3b 14       	pushm.a	#4,	r11	
    502e:	09 4f       	mov	r15,	r9	
    5030:	0a 4d       	mov	r13,	r10	
    5032:	0b 4e       	mov	r14,	r11	
    5034:	c8 0c       	mova	r12,	r8	
    5036:	a2 92 86 11 	cmp	#4,	&0x1186	;r2 As==10

----------------------------------------
FILE: extra-firmwares/hello-world.sky
extra-firmwares/hello-world.sky: ELF 32-bit LSB executable, TI msp430, version 1 (embedded), statically linked, with debug_info, not stripped

[Contiki process / protothread symbols]
0000e0fa R autostart_processes
00004280 T autostart_start
00007200 t call_process
00001100 D cc2420_process
00001124 D ctimer_process
000055c8 T ctimer_set_with_process
0000112e D etimer_process
00007246 t exit_process
0000c914 t ext_hdr_options_process
         U gpio_hal_arch_port_interrupt_enable
0000113e D hello_world_process
000015b8 b ip_processor_list_list
00002658 b nd6_opt_llao
0000265a b nd6_opt_offset
00006ea2 T netstack_process_ip_callback
0000730e T process_alloc_event
00002818 B process_current
000076d6 t process_dio_init_dag
00007326 T process_init
00002816 B process_list
000073ba T process_nevents
0000744e T process_poll
000073c4 T process_post
00007406 T process_post_synch
0000732e T process_run
00007418 T process_start
0000495a t process_thread_cc2420_process
0000551a t process_thread_ctimer_process
0000588a t process_thread_etimer_process
0000619a t process_thread_hello_world_process
00009986 t process_thread_sensors_process
0000b2b0 t process_thread_stack_check_process
0000b4d6 t process_thread_tcpip_process
00007c36 T rpl_process_dao
00007ca2 T rpl_process_dao_ack
00007a56 T rpl_process_dio
00007c0c T rpl_process_dis
00007cf6 T rpl_process_hbh
000011f8 D sensors_process
00001202 D stack_check_process
0000120c D tcpip_process
0000caa8 T uip_process

[Timer symbols]
00005000 T clock_seconds
00004fb2 T clock_time
0000566e T ctimer_expired
000055b4 T ctimer_init
00001324 b ctimer_list_list
00001124 D ctimer_process
00005616 T ctimer_reset
00009108 t ctimer_set.constprop.3
000055c8 T ctimer_set_with_process
00005646 T ctimer_stop
00001244 b debouncetimer
000059c6 T etimer_next_expiration_time
000059ba T etimer_pending
0000112e D etimer_process
00005880 T etimer_request_poll
000059a8 T etimer_reset
00005996 T etimer_set
000059dc T etimer_stop
00001d38 b next_rtimer
0000551a t process_thread_ctimer_process
0000588a t process_thread_etimer_process
00009952 T rtimer_arch_init
00009960 T rtimer_arch_now
0000996e T rtimer_run_next
0000b340 T stimer_expired
0000b5d2 T timer_expired
0000b5fc T timer_reset
0000b5b6 T timer_set

[NETSTACK / packetbuf / uIP callback symbols]
0000133a b _link_stats_mem
00001c90 b _rpl_neighbors_mem
00001d40 b callback
00005428 T csma_output_init
000052e2 T csma_output_packet
000013f0 B curr_log_level_rpl
000013ee B curr_log_level_tcpip
00008476 t dao_ack_input
000084a6 t dao_input
00008612 t dio_input
000088cc t dis_input
00002656 b echo_reply_callback_list_list
0000c04e t echo_reply_input
0000c0ac t echo_request_input
         U gpio_hal_arch_port_pin_set_input
0000a7f2 t input
00002644 b input_handler_list_list
000054a2 t input_packet
00006328 T link_stats_from_lladdr
00006588 T link_stats_init
00006458 T link_stats_input_callback
00006334 T link_stats_is_fresh
00006364 T link_stats_packet_sent
0000655e T link_stats_reset
00001148 d link_stats_struct
000065b6 T linkaddr_cmp
000065ae T linkaddr_copy
000027e4 B linkaddr_node_addr
0000e112 R linkaddr_null
00006ea2 T netstack_process_ip_callback
0000c358 t ns_input
00001232 d ns_input_handler
0000a054 t output
0000e0c2 r output_power
0000b4c4 t packet_input.part.3
00007092 T packetbuf_addr
000027ee B packetbuf_addrs
000015c2 b packetbuf_aligned
00007072 T packetbuf_attr
00006fba T packetbuf_attr_clear
00007044 T packetbuf_attr_copyfrom
00007022 T packetbuf_attr_copyto
000027fe B packetbuf_attrs
00006fe2 T packetbuf_clear
00006ff4 T packetbuf_copyfrom
00006f2c T packetbuf_copyto
00006f10 T packetbuf_datalen
00006f20 T packetbuf_dataptr
00001d4d b packetbuf_hdr_len
00006f7e T packetbuf_hdralloc
00006f16 T packetbuf_hdrlen
00006f0a T packetbuf_hdrptr
00006eea T packetbuf_hdrreduce
000070a4 T packetbuf_holds_broadcast
00001d58 b packetbuf_payload_len
00001d4e b packetbuf_ptr
0000707c T packetbuf_set_addr
00007068 T packetbuf_set_attr
00006f04 T packetbuf_set_datalen
00006f72 T packetbuf_totlen
0000b4d6 t process_thread_tcpip_process
000074e6 T queuebuf_free
00007466 T queuebuf_init
00007482 T queuebuf_new_from_packetbuf
00007478 T queuebuf_numfree
00007510 T queuebuf_to_packetbuf
000074d4 T queuebuf_update_attr_from_packetbuf
00007786 T rpl_dag_get_root_ipaddr
00007de0 T rpl_dag_init
00007d24 T rpl_dag_init_root
000077a4 T rpl_dag_leave
000077fa T rpl_dag_periodic
000077ee T rpl_dag_poison_and_leave
000078f0 T rpl_dag_ready_to_advertise
0000763e T rpl_dag_root_is_root
0000754e T rpl_dag_root_set_prefix
000075b0 T rpl_dag_root_start
00007912 T rpl_dag_update_state
00007fd6 T rpl_ext_header_hbh_update
00008072 T rpl_ext_header_remove
00007e3a T rpl_ext_header_srh_get_next_hop
00007ebe T rpl_ext_header_srh_update
0000813e T rpl_ext_header_update
000097b2 T rpl_get_global_address
000096a4 T rpl_get_leaf_only
000078c2 T rpl_global_repair
0000967c T rpl_has_joined
00008c66 T rpl_icmp6_dao_ack_output
00008b84 T rpl_icmp6_dao_output
00008954 T rpl_icmp6_dio_output
00008920 T rpl_icmp6_dis_output
00008cb4 T rpl_icmp6_init
000088ea T rpl_icmp6_update_nbr_table
00007864 T rpl_is_addr_in_our_dag
0000968e T rpl_is_reachable
000027c2 b rpl_leaf_only
00009758 T rpl_link_callback
0000e2be R rpl_lite_driver
00007898 T rpl_local_repair
00009776 T rpl_lollipop_greater_than
000011dc D rpl_mrhof
00002918 B rpl_multicast_addr
00008e96 T rpl_nbr_gc_get_worst
0000905c T rpl_neighbor_get_from_ipaddr
00008ee2 T rpl_neighbor_get_from_lladdr
00008f12 T rpl_neighbor_get_ipaddr
00008f1c T rpl_neighbor_get_link_stats
00008f06 T rpl_neighbor_get_lladdr
000090c4 T rpl_neighbor_init
00008f26 T rpl_neighbor_is_fresh
00008eee T rpl_neighbor_rank_via_nbr
0000902c T rpl_neighbor_remove_all
00009070 T rpl_neighbor_select_best
00008fe4 T rpl_neighbor_set_preferred_parent
000011ee D rpl_neighbors
000011f0 d rpl_neighbors_struct
00007c36 T rpl_process_dao
00007ca2 T rpl_process_dao_ack
00007a56 T rpl_process_dio
00007c0c T rpl_process_dis
00007cf6 T rpl_process_hbh
00009870 T rpl_reset_prefix
00009558 T rpl_schedule_probing
0000959e T rpl_schedule_probing_now
00009894 T rpl_set_prefix_from_addr
0000931e T rpl_timers_dio_reset
00009600 T rpl_timers_init
000093d0 T rpl_timers_notify_dao_ack
00009368 T rpl_timers_schedule_dao
000093a0 T rpl_timers_schedule_dao_ack
000095da T rpl_timers_schedule_leaving
00009282 T rpl_timers_schedule_periodic_dis
00009664 T rpl_timers_schedule_state_update
0000934c T rpl_timers_schedule_unicast_dio
00009618 T rpl_timers_stop_dag_timers
000095be T rpl_timers_unschedule_leaving
0000e2f4 R sicslowpan_driver
00009ac8 T sicslowpan_init
00002c7b B tcpip_event
0000b392 T tcpip_input
0000b3b0 T tcpip_ipv6_output
0000b370 T tcpip_output
0000120c D tcpip_process
0000b58c T tcpip_uipcall
0000243c b uart1_input_handler
00002aa6 B uip_aligned_buf
00002b9a B uip_appdata
0000c9b8 t uip_check_mtu
00002b9c B uip_conn
0000bc06 T uip_ds6_addr_add
0000bb5c T uip_ds6_addr_lookup
0000bd00 T uip_ds6_addr_rm
00002a39 B uip_ds6_addr_size
0000beac T uip_ds6_compute_reachable_time
0000b9fe T uip_ds6_default_prefix
0000b92a T uip_ds6_defrt_add
0000b9a2 T uip_ds6_defrt_choose
0000b8f6 T uip_ds6_defrt_lookup
0000b9d0 T uip_ds6_defrt_periodic
0000b8ca T uip_ds6_defrt_rm
0000bb86 T uip_ds6_get_link_local
00002930 B uip_ds6_if
0000beea T uip_ds6_init
0000bb0a T uip_ds6_is_addr_onlink
0000b8b0 T uip_ds6_link_callback
0000ba04 T uip_ds6_list_loop
0000bbc4 T uip_ds6_maddr_add
0000bcd6 T uip_ds6_maddr_lookup
0000bccc T uip_ds6_maddr_rm
0000b77c T uip_ds6_nbr_add
0000b7ba T uip_ds6_nbr_get_ll
0000b7c6 T uip_ds6_nbr_head
0000b898 T uip_ds6_nbr_ipaddr_from_lladdr
0000b816 T uip_ds6_nbr_ll_lookup
0000b89e T uip_ds6_nbr_lladdr_from_ipaddr
0000b7dc T uip_ds6_nbr_lookup
0000b7d0 T uip_ds6_nbr_next
0000b74c T uip_ds6_nbr_rm
0000b822 T uip_ds6_nbr_update_ll
0000b76a T uip_ds6_neighbors_init

[Contiki behavior strings]
Hello world process
tcpip
RPL Lite
Starting Contiki-NG-develop/v4.9-639-g6ac4608cd
Ctimer process
Event timer

[Disassembly samples around process/network functions]
0000495a <process_thread_cc2420_process>:
    495a:	0b 12       	push	r11		
    495c:	0b 4f       	mov	r15,	r11	
    495e:	2f 4f       	mov	@r15,	r15	
    4960:	0f 93       	tst	r15		
    4962:	04 24       	jz	$+10     	;abs 0x496c
    4964:	3f 90 81 03 	cmp	#897,	r15	;#0x0381
    4968:	15 20       	jnz	$+44     	;abs 0x4994
    496a:	1b 3c       	jmp	$+56     	;abs 0x49a2
    496c:	bb 40 81 03 	mov	#897,	0(r11)	;#0x0381, 0x0000(r11)
    4970:	00 00 
    4972:	15 3c       	jmp	$+44     	;abs 0x499e
    4974:	7e 90 82 ff 	cmp.b	#-126,	r14	;#0xff82
    4978:	12 20       	jnz	$+38     	;abs 0x499e
    497a:	b0 12 e2 6f 	call	#0x6fe2	
    497e:	b0 12 20 6f 	call	#0x6f20	
    4982:	3e 40 80 00 	mov	#128,	r14	;#0x0080
    4986:	b0 12 9c 48 	call	#0x489c	
    498a:	b0 12 04 6f 	call	#0x6f04	
    498e:	92 12 de e0 	call	&0xe0de	
    4992:	ec 3f       	jmp	$-38     	;abs 0x496c
--
0000551a <process_thread_ctimer_process>:
    551a:	0b 12       	push	r11		
    551c:	0a 12       	push	r10		
    551e:	09 12       	push	r9		
    5520:	0a 4f       	mov	r15,	r10	
    5522:	2f 4f       	mov	@r15,	r15	
    5524:	0f 93       	tst	r15		
    5526:	04 24       	jz	$+10     	;abs 0x5530
    5528:	3f 90 45 00 	cmp	#69,	r15	;#0x0045
    552c:	34 20       	jnz	$+106    	;abs 0x5596
    552e:	3a 3c       	jmp	$+118    	;abs 0x55a4
    5530:	1b 42 24 13 	mov	&0x1324,r11	
    5534:	09 3c       	jmp	$+20     	;abs 0x5548
    5536:	1d 4b 06 00 	mov	6(r11),	r13	;0x0006(r11)
    553a:	1e 4b 08 00 	mov	8(r11),	r14	;0x0008(r11)
    553e:	0f 4b       	mov	r11,	r15	
    5540:	2f 53       	incd	r15		
    5542:	b0 12 96 59 	call	#0x5996	
    5546:	2b 4b       	mov	@r11,	r11	
    5548:	0b 93       	tst	r11		
    554a:	f5 23       	jnz	$-20     	;abs 0x5536
--
000055b4 <ctimer_init>:
    55b4:	c2 43 22 13 	mov.b	#0,	&0x1322	;r3 As==00
    55b8:	82 43 24 13 	mov	#0,	&0x1324	;r3 As==00
    55bc:	0e 43       	clr	r14		
    55be:	3f 40 24 11 	mov	#4388,	r15	;#0x1124
    55c2:	b0 12 18 74 	call	#0x7418	
    55c6:	30 41       	ret			

000055c8 <ctimer_set_with_process>:
    55c8:	0b 12       	push	r11		
    55ca:	0a 12       	push	r10		
    55cc:	09 12       	push	r9		
    55ce:	09 4f       	mov	r15,	r9	
    55d0:	9f 41 0a 00 	mov	10(r1),	14(r15)	;0x000a(r1), 0x000e(r15)
    55d4:	0e 00 
    55d6:	8f 4c 10 00 	mov	r12,	16(r15)	;0x0010(r15)
    55da:	9f 41 08 00 	mov	8(r1),	18(r15)	;0x0008(r1), 0x0012(r15)
    55de:	12 00 
    55e0:	c2 93 22 13 	tst.b	&0x1322	
    55e4:	0b 24       	jz	$+24     	;abs 0x55fc
    55e6:	1b 42 18 28 	mov	&0x2818,r11	
    55ea:	b2 40 24 11 	mov	#4388,	&0x2818	;#0x1124
    55ee:	18 28 
    55f0:	2f 53       	incd	r15		
    55f2:	b0 12 96 59 	call	#0x5996	
    55f6:	82 4b 18 28 	mov	r11,	&0x2818	
    55fa:	04 3c       	jmp	$+10     	;abs 0x5604
    55fc:	89 4d 06 00 	mov	r13,	6(r9)	;0x0006(r9)
    5600:	89 4e 08 00 	mov	r14,	8(r9)	;0x0008(r9)
--
00005616 <ctimer_reset>:
    5616:	0b 12       	push	r11		
    5618:	0a 12       	push	r10		
    561a:	0b 4f       	mov	r15,	r11	
    561c:	c2 93 22 13 	tst.b	&0x1322	
    5620:	0a 24       	jz	$+22     	;abs 0x5636
    5622:	1a 42 18 28 	mov	&0x2818,r10	
    5626:	b2 40 24 11 	mov	#4388,	&0x2818	;#0x1124
    562a:	18 28 
    562c:	2f 53       	incd	r15		
    562e:	b0 12 a8 59 	call	#0x59a8	
    5632:	82 4a 18 28 	mov	r10,	&0x2818	
    5636:	0e 4b       	mov	r11,	r14	
    5638:	3f 40 24 13 	mov	#4900,	r15	;#0x1324
    563c:	b0 12 28 66 	call	#0x6628	
    5640:	3a 41       	pop	r10		
    5642:	3b 41       	pop	r11		
    5644:	30 41       	ret			

00005646 <ctimer_stop>:
    5646:	0b 12       	push	r11		
    5648:	0b 4f       	mov	r15,	r11	
    564a:	c2 93 22 13 	tst.b	&0x1322	
    564e:	04 24       	jz	$+10     	;abs 0x5658
    5650:	2f 53       	incd	r15		
    5652:	b0 12 dc 59 	call	#0x59dc	
    5656:	04 3c       	jmp	$+10     	;abs 0x5660
    5658:	8f 43 0a 00 	mov	#0,	10(r15)	;r3 As==00, 0x000a(r15)
    565c:	8f 43 0c 00 	mov	#0,	12(r15)	;r3 As==00, 0x000c(r15)
    5660:	0e 4b       	mov	r11,	r14	
    5662:	3f 40 24 13 	mov	#4900,	r15	;#0x1324
    5666:	b0 12 da 65 	call	#0x65da	
    566a:	3b 41       	pop	r11		
    566c:	30 41       	ret			

0000566e <ctimer_expired>:
    566e:	0d 4f       	mov	r15,	r13	
    5670:	c2 93 22 13 	tst.b	&0x1322	
    5674:	05 24       	jz	$+12     	;abs 0x5680
    5676:	5f 43       	mov.b	#1,	r15	;r3 As==01
    5678:	8d 93 0c 00 	tst	12(r13)	;0x000c(r13)
    567c:	0c 24       	jz	$+26     	;abs 0x5696
    567e:	0a 3c       	jmp	$+22     	;abs 0x5694
    5680:	1e 42 24 13 	mov	&0x1324,r14	
    5684:	03 3c       	jmp	$+8      	;abs 0x568c
    5686:	0e 9d       	cmp	r13,	r14	
    5688:	05 24       	jz	$+12     	;abs 0x5694
    568a:	2e 4e       	mov	@r14,	r14	
    568c:	0e 93       	tst	r14		
    568e:	fb 23       	jnz	$-8      	;abs 0x5686
    5690:	5f 43       	mov.b	#1,	r15	;r3 As==01
    5692:	30 41       	ret			
    5694:	4f 43       	clr.b	r15		
    5696:	30 41       	ret			

00005698 <owreadb>:
--
00005880 <etimer_request_poll>:
    5880:	3f 40 2e 11 	mov	#4398,	r15	;#0x112e
    5884:	b0 12 4e 74 	call	#0x744e	
    5888:	30 41       	ret			

0000588a <process_thread_etimer_process>:
    588a:	0b 12       	push	r11		
    588c:	0a 12       	push	r10		
    588e:	09 12       	push	r9		
    5890:	0a 4f       	mov	r15,	r10	
    5892:	2f 4f       	mov	@r15,	r15	
    5894:	0f 93       	tst	r15		
    5896:	04 24       	jz	$+10     	;abs 0x58a0
    5898:	3f 90 59 00 	cmp	#89,	r15	;#0x0059
    589c:	4d 20       	jnz	$+156    	;abs 0x5938
    589e:	51 3c       	jmp	$+164    	;abs 0x5942
    58a0:	82 43 26 13 	mov	#0,	&0x1326	;r3 As==00
    58a4:	ba 40 59 00 	mov	#89,	0(r10)	;#0x0059, 0x0000(r10)
    58a8:	00 00 
    58aa:	5f 43       	mov.b	#1,	r15	;r3 As==01
    58ac:	50 3c       	jmp	$+162    	;abs 0x594e
    58ae:	1e 4e 08 00 	mov	8(r14),	r14	;0x0008(r14)
    58b2:	0e 93       	tst	r14		
    58b4:	01 20       	jnz	$+4      	;abs 0x58b8
    58b6:	f4 3f       	jmp	$-22     	;abs 0x58a0
    58b8:	8e 9d 0a 00 	cmp	r13,	10(r14)	;0x000a(r14)
--
00005996 <etimer_set>:
    5996:	0b 12       	push	r11		
    5998:	0b 4f       	mov	r15,	r11	
    599a:	b0 12 b6 b5 	call	#0xb5b6	
    599e:	0f 4b       	mov	r11,	r15	
    59a0:	b0 12 56 59 	call	#0x5956	
    59a4:	3b 41       	pop	r11		
    59a6:	30 41       	ret			

000059a8 <etimer_reset>:
    59a8:	0b 12       	push	r11		
    59aa:	0b 4f       	mov	r15,	r11	
    59ac:	b0 12 fc b5 	call	#0xb5fc	
    59b0:	0f 4b       	mov	r11,	r15	
    59b2:	b0 12 56 59 	call	#0x5956	
    59b6:	3b 41       	pop	r11		
    59b8:	30 41       	ret			

000059ba <etimer_pending>:
    59ba:	1f 43       	mov	#1,	r15	;r3 As==01
    59bc:	82 93 26 13 	tst	&0x1326	
    59c0:	01 20       	jnz	$+4      	;abs 0x59c4
    59c2:	0f 43       	clr	r15		
    59c4:	30 41       	ret			

000059c6 <etimer_next_expiration_time>:
    59c6:	82 93 26 13 	tst	&0x1326	
    59ca:	05 24       	jz	$+12     	;abs 0x59d6
    59cc:	1e 42 28 13 	mov	&0x1328,r14	
    59d0:	1f 42 2a 13 	mov	&0x132a,r15	
    59d4:	30 41       	ret			
    59d6:	0e 43       	clr	r14		
    59d8:	0f 43       	clr	r15		
    59da:	30 41       	ret			

000059dc <etimer_stop>:
    59dc:	0b 12       	push	r11		
    59de:	0b 4f       	mov	r15,	r11	
    59e0:	1f 42 26 13 	mov	&0x1326,r15	
    59e4:	0b 9f       	cmp	r15,	r11	
    59e6:	05 20       	jnz	$+12     	;abs 0x59f2
    59e8:	92 4b 08 00 	mov	8(r11),	&0x1326	;0x0008(r11)
    59ec:	26 13 
    59ee:	10 3c       	jmp	$+34     	;abs 0x5a10
    59f0:	0f 4e       	mov	r14,	r15	
    59f2:	0f 93       	tst	r15		
    59f4:	05 24       	jz	$+12     	;abs 0x5a00
    59f6:	1e 4f 08 00 	mov	8(r15),	r14	;0x0008(r15)
    59fa:	0e 9b       	cmp	r11,	r14	
    59fc:	f9 23       	jnz	$-12     	;abs 0x59f0
    59fe:	05 3c       	jmp	$+12     	;abs 0x5a0a
    5a00:	8b 43 08 00 	mov	#0,	8(r11)	;r3 As==00, 0x0008(r11)
    5a04:	8b 43 0a 00 	mov	#0,	10(r11)	;r3 As==00, 0x000a(r11)
    5a08:	06 3c       	jmp	$+14     	;abs 0x5a16
    5a0a:	9f 4b 08 00 	mov	8(r11),	8(r15)	;0x0008(r11), 0x0008(r15)
    5a0e:	08 00 
--
0000619a <process_thread_hello_world_process>:
    619a:	0b 12       	push	r11		
    619c:	0b 4f       	mov	r15,	r11	
    619e:	2f 4f       	mov	@r15,	r15	
    61a0:	0f 93       	tst	r15		

----------------------------------------
FILE: extra-firmwares/hello-world.z1
extra-firmwares/hello-world.z1: ELF 32-bit LSB executable, TI msp430, version 1 (embedded), statically linked, with debug_info, not stripped

[Contiki process / protothread symbols]
00001100 D accmeter_process
0000cf46 R autostart_processes
00003a3a T autostart_start
0000659e t call_process
0000110c D cc2420_process
00001130 D ctimer_process
00004b0e T ctimer_set_with_process
0000113c D etimer_process
000065de t exit_process
0000b81a t ext_hdr_options_process
         U gpio_hal_arch_port_interrupt_enable
0000114e D hello_world_process
000014de b ip_processor_list_list
0000236a b nd6_opt_llao
0000236c b nd6_opt_offset
000061c6 T netstack_process_ip_callback
0000669c T process_alloc_event
000024fe B process_current
00006a46 t process_dio_init_dag
000066b4 T process_init
000024fa B process_list
000024fc B process_maxevents
00006742 T process_nevents
000067de T process_poll
0000674c T process_post
00006796 T process_post_synch
000066bc T process_run
000067a8 T process_start
0000389c t process_thread_accmeter_process
0000402e t process_thread_cc2420_process
00004a68 t process_thread_ctimer_process
00004c50 t process_thread_etimer_process
000054cc t process_thread_hello_world_process
00008a9c t process_thread_sensors_process
0000a25a t process_thread_stack_check_process
0000a470 t process_thread_tcpip_process
00006f78 T rpl_process_dao
00006fde T rpl_process_dao_ack
00006db0 T rpl_process_dio
00006f4e T rpl_process_dis
0000702e T rpl_process_hbh
000011ce D sensors_process
000011da D stack_check_process
000011e6 D tcpip_process
0000b984 T uip_process

[Timer symbols]
0000458c T clock_seconds
0000451a T clock_time
00004bac T ctimer_expired
00004afa T ctimer_init
00001334 b ctimer_list_list
00001130 D ctimer_process
00004b58 T ctimer_reset
000082c6 t ctimer_set.constprop.3
00004b0e T ctimer_set_with_process
00004b84 T ctimer_stop
0000125c b debouncetimer
00004d84 T etimer_next_expiration_time
00004d78 T etimer_pending
0000113c D etimer_process
00004c46 T etimer_request_poll
00004d66 T etimer_reset
00004d54 T etimer_set
00004d9a T etimer_stop
00001b7a b next_rtimer
00004a68 t process_thread_ctimer_process
00004c50 t process_thread_etimer_process
00008a68 T rtimer_arch_init
00008a76 T rtimer_arch_now
00008a84 T rtimer_run_next
0000a2e2 T stimer_expired
0000124c b suppressTimer1
00001254 b suppressTimer2
0000a566 T timer_expired
0000a590 T timer_reset
0000a54a T timer_set

[NETSTACK / packetbuf / uIP callback symbols]
0000134a b _link_stats_mem
00001b0e b _rpl_neighbors_mem
00001b80 b callback
00004976 T csma_output_init
00004840 T csma_output_packet
000076f2 t dao_ack_input
00007722 t dao_input
0000787a t dio_input
00007b0c t dis_input
00002368 b echo_reply_callback_list_list
0000afbc t echo_reply_input
0000b012 t echo_request_input
         U gpio_hal_arch_port_pin_set_input
00009818 t input
00002356 b input_handler_list_list
000049f0 t input_packet
00005756 T link_stats_from_lladdr
00005994 T link_stats_init
00005874 T link_stats_input_callback
00005762 T link_stats_is_fresh
00005792 T link_stats_packet_sent
0000596a T link_stats_reset
0000115a d link_stats_struct
000059c2 T linkaddr_cmp
000059ba T linkaddr_copy
000024c8 B linkaddr_node_addr
0000cf4a R linkaddr_null
000061c6 T netstack_process_ip_callback
0000b2a2 t ns_input
00001214 d ns_input_handler
000090d2 t output
0000cf10 r output_power
0000a45e t packet_input.part.3
000063e6 T packetbuf_addr
000024d2 B packetbuf_addrs
000014e6 b packetbuf_aligned
000063ca T packetbuf_attr
00006316 T packetbuf_attr_clear
0000639c T packetbuf_attr_copyfrom
0000637a T packetbuf_attr_copyto
000024e2 B packetbuf_attrs
0000633e T packetbuf_clear
00006350 T packetbuf_copyfrom
00006294 T packetbuf_copyto
00006278 T packetbuf_datalen
00006288 T packetbuf_dataptr
0000247f b packetbuf_hdr_len
000062da T packetbuf_hdralloc
0000627e T packetbuf_hdrlen
00006272 T packetbuf_hdrptr
00006252 T packetbuf_hdrreduce
000063f4 T packetbuf_holds_broadcast
00001b96 b packetbuf_payload_len
00001b8c b packetbuf_ptr
000063d4 T packetbuf_set_addr
000063c0 T packetbuf_set_attr
0000626c T packetbuf_set_datalen
000062ce T packetbuf_totlen
0000a470 t process_thread_tcpip_process
00006872 T queuebuf_free
000067f6 T queuebuf_init
00006812 T queuebuf_new_from_packetbuf
00006808 T queuebuf_numfree
0000689c T queuebuf_to_packetbuf
00006860 T queuebuf_update_attr_from_packetbuf
00006af6 T rpl_dag_get_root_ipaddr
00007100 T rpl_dag_init
00007054 T rpl_dag_init_root
00006b14 T rpl_dag_leave
00006b6a T rpl_dag_periodic
00006b5e T rpl_dag_poison_and_leave
00006c52 T rpl_dag_ready_to_advertise
000069ba T rpl_dag_root_is_root
000068da T rpl_dag_root_set_prefix
00006938 T rpl_dag_root_start
00006c74 T rpl_dag_update_state
000072be T rpl_ext_header_hbh_update
00007346 T rpl_ext_header_remove
0000715a T rpl_ext_header_srh_get_next_hop
000071d6 T rpl_ext_header_srh_update
00007406 T rpl_ext_header_update
00008938 T rpl_get_global_address
00008836 T rpl_get_leaf_only
00006c24 T rpl_global_repair
0000880e T rpl_has_joined
00007e6c T rpl_icmp6_dao_ack_output
00007d96 T rpl_icmp6_dao_output
00007b8c T rpl_icmp6_dio_output
00007b58 T rpl_icmp6_dis_output
00007eb2 T rpl_icmp6_init
00007b2a T rpl_icmp6_update_nbr_table
00006bd4 T rpl_is_addr_in_our_dag
00008820 T rpl_is_reachable
0000247c b rpl_leaf_only
000088de T rpl_link_callback
0000cf52 R rpl_lite_driver
00006bfa T rpl_local_repair
000088fc T rpl_lollipop_greater_than
000011a0 D rpl_mrhof
0000260c B rpl_multicast_addr
00008074 T rpl_nbr_gc_get_worst
0000821a T rpl_neighbor_get_from_ipaddr
000080b8 T rpl_neighbor_get_from_lladdr
000080e8 T rpl_neighbor_get_ipaddr
000080f2 T rpl_neighbor_get_link_stats
000080dc T rpl_neighbor_get_lladdr
00008282 T rpl_neighbor_init
000080fc T rpl_neighbor_is_fresh
000080c4 T rpl_neighbor_rank_via_nbr
000081ea T rpl_neighbor_remove_all
0000822e T rpl_neighbor_select_best
000081a2 T rpl_neighbor_set_preferred_parent
000011c2 D rpl_neighbors
000011c4 d rpl_neighbors_struct
00006f78 T rpl_process_dao
00006fde T rpl_process_dao_ack
00006db0 T rpl_process_dio
00006f4e T rpl_process_dis
0000702e T rpl_process_hbh
000089c4 T rpl_reset_prefix
000086ee T rpl_schedule_probing
00008730 T rpl_schedule_probing_now
000089e8 T rpl_set_prefix_from_addr
000084d0 T rpl_timers_dio_reset
00008792 T rpl_timers_init
0000857e T rpl_timers_notify_dao_ack
0000851a T rpl_timers_schedule_dao
0000854e T rpl_timers_schedule_dao_ack
0000876c T rpl_timers_schedule_leaving
00008438 T rpl_timers_schedule_periodic_dis
000087f6 T rpl_timers_schedule_state_update
000084fe T rpl_timers_schedule_unicast_dio
000087aa T rpl_timers_stop_dag_timers
00008750 T rpl_timers_unschedule_leaving
0000cfa4 R sicslowpan_driver
00008bde T sicslowpan_init
0000286d B tcpip_event
0000a334 T tcpip_input
0000a352 T tcpip_ipv6_output
0000a312 T tcpip_output
000011e6 D tcpip_process
0000a520 T tcpip_uipcall
00002262 b uart0_input_handler
0000279a B uip_aligned_buf
0000282a B uip_appdata
0000b8ac t uip_check_mtu
0000282c B uip_conn
0000aba4 T uip_ds6_addr_add
0000aafa T uip_ds6_addr_lookup
0000ac8e T uip_ds6_addr_rm
0000272d B uip_ds6_addr_size
0000ae22 T uip_ds6_compute_reachable_time
0000a9da T uip_ds6_default_prefix
0000a916 T uip_ds6_defrt_add
0000a982 T uip_ds6_defrt_choose
0000a8e6 T uip_ds6_defrt_lookup
0000a9ac T uip_ds6_defrt_periodic
0000a8ba T uip_ds6_defrt_rm
0000ab24 T uip_ds6_get_link_local
00002624 B uip_ds6_if
0000ae58 T uip_ds6_init
0000aaba T uip_ds6_is_addr_onlink
0000a8a0 T uip_ds6_link_callback
0000a9e0 T uip_ds6_list_loop
0000ab62 T uip_ds6_maddr_add
0000ac64 T uip_ds6_maddr_lookup
0000ac5a T uip_ds6_maddr_rm
0000a780 T uip_ds6_nbr_add
0000a7b6 T uip_ds6_nbr_get_ll
0000a7c2 T uip_ds6_nbr_head
0000a888 T uip_ds6_nbr_ipaddr_from_lladdr
0000a80e T uip_ds6_nbr_ll_lookup
0000a88e T uip_ds6_nbr_lladdr_from_ipaddr
0000a7d8 T uip_ds6_nbr_lookup
0000a7cc T uip_ds6_nbr_next
0000a750 T uip_ds6_nbr_rm
0000a81a T uip_ds6_nbr_update_ll
0000a76e T uip_ds6_neighbors_init
0000272c B uip_ds6_netif_addr_list_offset
0000ace2 T uip_ds6_periodic

[Contiki behavior strings]
Accelerometer process
Starting Contiki-NG-develop/v4.9-639-g6ac4608cd-dirty
Ctimer process
Event timer
Hello world process
RPL Lite

[Disassembly samples around process/network functions]
0000389c <process_thread_accmeter_process>:
    389c:	0b 14       	pushm.a	#1,	r11	
    389e:	0b 4f       	mov	r15,	r11	
    38a0:	7e 90 82 ff 	cmp.b	#-126,	r14	;#0xff82
    38a4:	13 20       	jnz	$+40     	;abs 0x38cc
    38a6:	7f 40 30 00 	mov.b	#48,	r15	;#0x0030
    38aa:	b0 13 48 38 	calla	#0x03848	
    38ae:	4e 4f       	mov.b	r15,	r14	
    38b0:	1e b2 48 12 	bit	&0x1248,r14	
    38b4:	03 24       	jz	$+8      	;abs 0x38bc
    38b6:	2e 00 94 24 	mova	&0x02494,r14	
    38ba:	05 3c       	jmp	$+12     	;abs 0x38c6
    38bc:	1e b2 4a 12 	bit	&0x124a,r14	
    38c0:	05 24       	jz	$+12     	;abs 0x38cc
    38c2:	2e 00 90 24 	mova	&0x02490,r14	
    38c6:	de 03       	tsta	r14		
    38c8:	01 24       	jz	$+4      	;abs 0x38cc
    38ca:	4e 13       	calla	r14		
    38cc:	2f 4b       	mov	@r11,	r15	
    38ce:	0f 93       	tst	r15		
    38d0:	04 24       	jz	$+10     	;abs 0x38da
--
0000402e <process_thread_cc2420_process>:
    402e:	0b 14       	pushm.a	#1,	r11	
    4030:	0b 4f       	mov	r15,	r11	
    4032:	2f 4f       	mov	@r15,	r15	
    4034:	0f 93       	tst	r15		
    4036:	04 24       	jz	$+10     	;abs 0x4040
    4038:	3f 90 81 03 	cmp	#897,	r15	;#0x0381
    403c:	15 20       	jnz	$+44     	;abs 0x4068
    403e:	1b 3c       	jmp	$+56     	;abs 0x4076
    4040:	bb 40 81 03 	mov	#897,	0(r11)	;#0x0381, 0x0000(r11)
    4044:	00 00 
    4046:	15 3c       	jmp	$+44     	;abs 0x4072
    4048:	7e 90 82 ff 	cmp.b	#-126,	r14	;#0xff82
    404c:	12 20       	jnz	$+38     	;abs 0x4072
    404e:	b0 13 3e 63 	calla	#0x0633e	
    4052:	b0 13 88 62 	calla	#0x06288	
    4056:	3e 40 80 00 	mov	#128,	r14	;#0x0080
    405a:	b0 13 74 3f 	calla	#0x03f74	
    405e:	b0 13 6c 62 	calla	#0x0626c	
    4062:	80 13 2a cf 	calla	&0x0cf2a	
    4066:	ec 3f       	jmp	$-38     	;abs 0x4040
--
00004a68 <process_thread_ctimer_process>:
    4a68:	2b 14       	pushm.a	#3,	r11	
    4a6a:	0a 4f       	mov	r15,	r10	
    4a6c:	2f 4f       	mov	@r15,	r15	
    4a6e:	0f 93       	tst	r15		
    4a70:	04 24       	jz	$+10     	;abs 0x4a7a
    4a72:	3f 90 45 00 	cmp	#69,	r15	;#0x0045
    4a76:	34 20       	jnz	$+106    	;abs 0x4ae0
    4a78:	3a 3c       	jmp	$+118    	;abs 0x4aee
    4a7a:	1b 42 34 13 	mov	&0x1334,r11	
    4a7e:	09 3c       	jmp	$+20     	;abs 0x4a92
    4a80:	1d 4b 06 00 	mov	6(r11),	r13	;0x0006(r11)
    4a84:	1e 4b 08 00 	mov	8(r11),	r14	;0x0008(r11)
    4a88:	0f 4b       	mov	r11,	r15	
    4a8a:	2f 53       	incd	r15		
    4a8c:	b0 13 54 4d 	calla	#0x04d54	
    4a90:	2b 4b       	mov	@r11,	r11	
    4a92:	0b 93       	tst	r11		
    4a94:	f5 23       	jnz	$-20     	;abs 0x4a80
    4a96:	d2 43 49 24 	mov.b	#1,	&0x2449	;r3 As==01
    4a9a:	ba 40 45 00 	mov	#69,	0(r10)	;#0x0045, 0x0000(r10)
--
00004afa <ctimer_init>:
    4afa:	c2 43 49 24 	mov.b	#0,	&0x2449	;r3 As==00
    4afe:	82 43 34 13 	mov	#0,	&0x1334	;r3 As==00
    4b02:	0e 43       	clr	r14		
    4b04:	3f 40 30 11 	mov	#4400,	r15	;#0x1130
    4b08:	b0 13 a8 67 	calla	#0x067a8	
    4b0c:	10 01       	reta			

00004b0e <ctimer_set_with_process>:
    4b0e:	2b 14       	pushm.a	#3,	r11	
    4b10:	09 4f       	mov	r15,	r9	
    4b12:	0a 4d       	mov	r13,	r10	
    4b14:	0b 4e       	mov	r14,	r11	
    4b16:	9f 41 12 00 	mov	18(r1),	14(r15)	;0x0012(r1), 0x000e(r15)
    4b1a:	0e 00 
    4b1c:	7f 0c 10 00 	mova	r12,	16(r15)	;0x0010(r15)
    4b20:	9f 41 10 00 	mov	16(r1),	20(r15)	;0x0010(r1), 0x0014(r15)
    4b24:	14 00 
    4b26:	c2 93 49 24 	tst.b	&0x2449	
    4b2a:	0b 24       	jz	$+24     	;abs 0x4b42
    4b2c:	1b 42 fe 24 	mov	&0x24fe,r11	
    4b30:	b2 40 30 11 	mov	#4400,	&0x24fe	;#0x1130
    4b34:	fe 24 
    4b36:	2f 53       	incd	r15		
    4b38:	b0 13 54 4d 	calla	#0x04d54	
    4b3c:	82 4b fe 24 	mov	r11,	&0x24fe	
    4b40:	04 3c       	jmp	$+10     	;abs 0x4b4a
    4b42:	89 4d 06 00 	mov	r13,	6(r9)	;0x0006(r9)
    4b46:	89 4e 08 00 	mov	r14,	8(r9)	;0x0008(r9)
--
00004b58 <ctimer_reset>:
    4b58:	1b 14       	pushm.a	#2,	r11	
    4b5a:	0b 4f       	mov	r15,	r11	
    4b5c:	c2 93 49 24 	tst.b	&0x2449	
    4b60:	0a 24       	jz	$+22     	;abs 0x4b76
    4b62:	1a 42 fe 24 	mov	&0x24fe,r10	
    4b66:	b2 40 30 11 	mov	#4400,	&0x24fe	;#0x1130
    4b6a:	fe 24 
    4b6c:	2f 53       	incd	r15		
    4b6e:	b0 13 66 4d 	calla	#0x04d66	
    4b72:	82 4a fe 24 	mov	r10,	&0x24fe	
    4b76:	0e 4b       	mov	r11,	r14	
    4b78:	3f 40 34 13 	mov	#4916,	r15	;#0x1334
    4b7c:	b0 13 30 5a 	calla	#0x05a30	
    4b80:	1a 16       	popm.a	#2,	r11	
    4b82:	10 01       	reta			

00004b84 <ctimer_stop>:
    4b84:	0b 14       	pushm.a	#1,	r11	
    4b86:	0b 4f       	mov	r15,	r11	
    4b88:	c2 93 49 24 	tst.b	&0x2449	
    4b8c:	04 24       	jz	$+10     	;abs 0x4b96
    4b8e:	2f 53       	incd	r15		
    4b90:	b0 13 9a 4d 	calla	#0x04d9a	
    4b94:	04 3c       	jmp	$+10     	;abs 0x4b9e
    4b96:	8f 43 0a 00 	mov	#0,	10(r15)	;r3 As==00, 0x000a(r15)
    4b9a:	8f 43 0c 00 	mov	#0,	12(r15)	;r3 As==00, 0x000c(r15)
    4b9e:	0e 4b       	mov	r11,	r14	
    4ba0:	3f 40 34 13 	mov	#4916,	r15	;#0x1334
    4ba4:	b0 13 e6 59 	calla	#0x059e6	
    4ba8:	0b 16       	popm.a	#1,	r11	
    4baa:	10 01       	reta			

00004bac <ctimer_expired>:
    4bac:	0d 4f       	mov	r15,	r13	
    4bae:	c2 93 49 24 	tst.b	&0x2449	
    4bb2:	05 24       	jz	$+12     	;abs 0x4bbe
    4bb4:	5f 43       	mov.b	#1,	r15	;r3 As==01
    4bb6:	8d 93 0c 00 	tst	12(r13)	;0x000c(r13)
    4bba:	0c 24       	jz	$+26     	;abs 0x4bd4
    4bbc:	0a 3c       	jmp	$+22     	;abs 0x4bd2
    4bbe:	1e 42 34 13 	mov	&0x1334,r14	
    4bc2:	03 3c       	jmp	$+8      	;abs 0x4bca
    4bc4:	0e 9d       	cmp	r13,	r14	
    4bc6:	05 24       	jz	$+12     	;abs 0x4bd2
    4bc8:	2e 4e       	mov	@r14,	r14	
    4bca:	0e 93       	tst	r14		
    4bcc:	fb 23       	jnz	$-8      	;abs 0x4bc4
    4bce:	5f 43       	mov.b	#1,	r15	;r3 As==01
    4bd0:	10 01       	reta			
    4bd2:	4f 43       	clr.b	r15		
    4bd4:	10 01       	reta			

00004bd6 <update_time>:
--
00004c46 <etimer_request_poll>:
    4c46:	3f 40 3c 11 	mov	#4412,	r15	;#0x113c
    4c4a:	b0 13 de 67 	calla	#0x067de	
    4c4e:	10 01       	reta			

00004c50 <process_thread_etimer_process>:
    4c50:	2b 14       	pushm.a	#3,	r11	
    4c52:	0a 4f       	mov	r15,	r10	
    4c54:	2f 4f       	mov	@r15,	r15	
    4c56:	0f 93       	tst	r15		
    4c58:	04 24       	jz	$+10     	;abs 0x4c62
    4c5a:	3f 90 59 00 	cmp	#89,	r15	;#0x0059
    4c5e:	4d 20       	jnz	$+156    	;abs 0x4cfa
    4c60:	51 3c       	jmp	$+164    	;abs 0x4d04
    4c62:	82 43 36 13 	mov	#0,	&0x1336	;r3 As==00
    4c66:	ba 40 59 00 	mov	#89,	0(r10)	;#0x0059, 0x0000(r10)
    4c6a:	00 00 
    4c6c:	5f 43       	mov.b	#1,	r15	;r3 As==01
    4c6e:	50 3c       	jmp	$+162    	;abs 0x4d10
    4c70:	1e 4e 08 00 	mov	8(r14),	r14	;0x0008(r14)
    4c74:	0e 93       	tst	r14		
    4c76:	01 20       	jnz	$+4      	;abs 0x4c7a
    4c78:	f4 3f       	jmp	$-22     	;abs 0x4c62
    4c7a:	8e 9d 0a 00 	cmp	r13,	10(r14)	;0x000a(r14)
    4c7e:	f8 27       	jz	$-14     	;abs 0x4c70
    4c80:	82 4e 36 13 	mov	r14,	&0x1336	
--
00004d54 <etimer_set>:
    4d54:	0b 14       	pushm.a	#1,	r11	
    4d56:	0b 4f       	mov	r15,	r11	
    4d58:	b0 13 4a a5 	calla	#0x0a54a	
    4d5c:	0f 4b       	mov	r11,	r15	
    4d5e:	b0 13 14 4d 	calla	#0x04d14	
    4d62:	0b 16       	popm.a	#1,	r11	
    4d64:	10 01       	reta			

00004d66 <etimer_reset>:
    4d66:	0b 14       	pushm.a	#1,	r11	
    4d68:	0b 4f       	mov	r15,	r11	
    4d6a:	b0 13 90 a5 	calla	#0x0a590	
    4d6e:	0f 4b       	mov	r11,	r15	
    4d70:	b0 13 14 4d 	calla	#0x04d14	
    4d74:	0b 16       	popm.a	#1,	r11	
    4d76:	10 01       	reta			

00004d78 <etimer_pending>:
    4d78:	1f 43       	mov	#1,	r15	;r3 As==01
    4d7a:	82 93 36 13 	tst	&0x1336	
    4d7e:	01 20       	jnz	$+4      	;abs 0x4d82
    4d80:	0f 43       	clr	r15		
    4d82:	10 01       	reta			

00004d84 <etimer_next_expiration_time>:
    4d84:	82 93 36 13 	tst	&0x1336	
    4d88:	05 24       	jz	$+12     	;abs 0x4d94
    4d8a:	1e 42 38 13 	mov	&0x1338,r14	
    4d8e:	1f 42 3a 13 	mov	&0x133a,r15	
    4d92:	10 01       	reta			
    4d94:	0e 43       	clr	r14		
    4d96:	0f 43       	clr	r15		
    4d98:	10 01       	reta			

00004d9a <etimer_stop>:
    4d9a:	0b 14       	pushm.a	#1,	r11	
    4d9c:	0b 4f       	mov	r15,	r11	
    4d9e:	1f 42 36 13 	mov	&0x1336,r15	
    4da2:	0b 9f       	cmp	r15,	r11	
    4da4:	05 20       	jnz	$+12     	;abs 0x4db0
    4da6:	92 4b 08 00 	mov	8(r11),	&0x1336	;0x0008(r11)

----------------------------------------
FILE: extra-firmwares/mtype5756516.cooja
extra-firmwares/mtype5756516.cooja: ELF 64-bit LSB shared object, x86-64, version 1 (SYSV), dynamically linked, BuildID[sha1]=1f0390f80935c86149abad7dbc92cbc9a0fe7759, not stripped

[Contiki process / protothread symbols]
0000000000015358 T autostart_exit
00000000000528e0 D autostart_processes
00000000000152f7 T autostart_start
0000000000054700 D broadcast_example_process
0000000000053ee0 D button_hal_process
0000000000023513 t call_process
0000000000054000 D cooja_radio_process
0000000000054060 D ctimer_process
0000000000017dda T ctimer_set_with_process
000000000006b318 b curr_ping_process
00000000000540a0 D etimer_process
00000000000233d0 t exit_process
00000000000413b1 t ext_hdr_options_process
000000000001ba87 T gpio_hal_arch_no_port_interrupt_disable
000000000001ba3a T gpio_hal_arch_no_port_interrupt_enable
00000000000542e0 d ip_processor_list
0000000000064228 b ip_processor_list_list
000000000002204d T nbr_table_can_accept_new
0000000000097c90 b nd6_opt_llao
0000000000097c88 b nd6_opt_offset
000000000002291d T netstack_ip_packet_processor_add
000000000002287c T netstack_process_ip_callback
0000000000023321 T process_alloc_event
0000000000064328 B process_current
0000000000027859 t process_dio_from_current_dag
0000000000027d77 t process_dio_init_dag
00000000000235b5 T process_exit
00000000000235e1 T process_init
000000000002394a T process_is_running
0000000000064320 B process_list
00000000000237d7 T process_nevents
000000000002390d T process_poll
00000000000237f7 T process_post
00000000000238bf T process_post_synch
00000000000237a2 T process_run
0000000000060760 b process_run_thread
00000000000218c7 t process_run_thread_loop
000000000002333b T process_start
000000000003ce7a t process_thread_broadcast_example_process
0000000000015927 t process_thread_button_hal_process
000000000001738c t process_thread_cooja_radio_process
0000000000017c43 t process_thread_ctimer_process
0000000000019348 t process_thread_etimer_process
000000000002d22a t process_thread_sensors_process
000000000002d4f3 t process_thread_serial_line_process
000000000002d6d9 t process_thread_serial_shell_process
000000000003459f t process_thread_simple_energest_process
0000000000034971 t process_thread_simple_udp_process
0000000000035091 t process_thread_slip_process
0000000000035e0d t process_thread_tcpip_process
000000000003c926 t process_thread_tsch_pending_events_process
000000000003c59d t process_thread_tsch_process
000000000003c67a t process_thread_tsch_send_eb_process
000000000003d576 t process_thread_udp_socket_process
0000000000027ee3 T rpl_process_dao
0000000000027f8c T rpl_process_dao_ack
0000000000027ded T rpl_process_dio
0000000000027e8f T rpl_process_dis
000000000002803c T rpl_process_hbh
00000000000544e0 D sensors_process
0000000000054500 D serial_line_process
0000000000054520 D serial_shell_process
000000000006430c B simProcessRunValue
0000000000054560 D simple_energest_process
0000000000054580 D simple_udp_process
00000000000545a0 D slip_process
00000000000545c0 D tcpip_process
000000000003b77a t tsch_keepalive_process_pending
00000000000546e0 D tsch_pending_events_process
00000000000546a0 D tsch_process
000000000003baf3 t tsch_rx_process_pending
00000000000546c0 D tsch_send_eb_process
000000000003bc8d t tsch_tx_process_pending
0000000000054720 D udp_socket_process
000000000002294d T uip_ds6_ip_packet_processor_rm
00000000000415f3 T uip_process

[Timer symbols]
000000000001654d T clock_seconds
0000000000016539 T clock_time
0000000000017fd4 T ctimer_expired
0000000000017da5 T ctimer_init
0000000000054040 d ctimer_list
0000000000057b88 b ctimer_list_list
0000000000054060 D ctimer_process
0000000000017e94 T ctimer_reset
0000000000017f05 T ctimer_restart
0000000000015484 t ctimer_set
0000000000018ac7 t ctimer_set
000000000001cf02 t ctimer_set
000000000001e185 t ctimer_set
0000000000024997 t ctimer_set
000000000002b9b4 t ctimer_set
0000000000035298 t ctimer_set
0000000000035fb1 t ctimer_set
000000000003b2f7 t ctimer_set
000000000004039b t ctimer_set
0000000000017dda T ctimer_set_with_process
0000000000017f76 T ctimer_stop
00000000000196a7 T etimer_adjust
00000000000196d8 T etimer_expiration_time
0000000000017c04 t etimer_expired
000000000002d7c1 t etimer_expired
000000000003424b t etimer_expired
000000000003561b t etimer_expired
000000000003b2df t etimer_expired
000000000003ce62 t etimer_expired
0000000000019727 T etimer_next_expiration_time
000000000001970d T etimer_pending
00000000000540a0 D etimer_process
000000000001952e T etimer_request_poll
0000000000019651 T etimer_reset
0000000000019616 T etimer_reset_with_new_interval
000000000001967c T etimer_restart
00000000000195e0 T etimer_set
00000000000196f8 T etimer_start_time
0000000000019748 T etimer_stop
000000000006b188 b next_rtimer
0000000000017c43 t process_thread_ctimer_process
0000000000019348 t process_thread_etimer_process
000000000002cfb8 T rtimer_arch_check
000000000002cf41 T rtimer_arch_init
000000000002cf91 T rtimer_arch_next
000000000002cff9 T rtimer_arch_now
000000000002cfa5 T rtimer_arch_pending
000000000002cf67 T rtimer_arch_schedule
000000000002d081 T rtimer_run_next
000000000002d00d T rtimer_set
000000000005e380 b rtimer_thread
00000000000218b3 t rtimer_thread_loop
0000000000064318 B simEtimerNextExpirationTime
0000000000064310 B simEtimerPending
000000000006b180 B simRtimerCurrentTicks
000000000006b178 B simRtimerNextExpirationTime
000000000006b170 B simRtimerPending
00000000000355fa T stimer_elapsed
00000000000355bb T stimer_expired
0000000000035560 T stimer_reset
000000000003559c T stimer_restart
000000000003db7a t stimer_set
000000000003dfe4 t stimer_set
0000000000035f41 T timer_expired
0000000000035ee6 T timer_reset
0000000000035eb7 T timer_set
00000000000364b1 T trickle_timer_set

[NETSTACK / packetbuf / uIP callback symbols]
00000000000586c0 b _link_stats_mem
0000000000069600 b _rpl_neighbors_mem
000000000006bab0 b callback
000000000002f219 t cmd_rpl_global_repair
000000000002f2dc t cmd_rpl_local_repair
000000000002ddcc t cmd_rpl_nbr
000000000002e684 t cmd_rpl_refresh_routes
000000000002ed78 t cmd_rpl_set_root
000000000002df70 t cmd_rpl_status
0000000000031102 t copy_frags2uip
0000000000059988 B curr_log_level_rpl
000000000005998c B curr_log_level_tcpip
000000000006b310 b curr_ping_output_func
0000000000094a70 b current_input.12
000000000002a656 t dao_ack_input
000000000002a018 t dao_input
00000000000292dc t dio_input
0000000000029217 t dis_input
00000000000154f1 t duration_exceeded_callback
000000000003b8c6 t eb_input
0000000000054790 d echo_reply_callback_list
0000000000097bf0 b echo_reply_callback_list_list
000000000003f63f t echo_reply_input
000000000003f005 t echo_request_input
0000000000019b12 T frame802154_extract_linkaddr
000000000001bb3e T gpio_hal_arch_no_port_pin_set_input
000000000001bb51 T gpio_hal_arch_no_port_pin_set_output
000000000001b93d T gpio_hal_arch_register_pin_callback
0000000000018cee t icmp_input
0000000000025fe3 t icmp_input
0000000000018b07 t icmp_output
00000000000255f9 t icmp_output
00000000000346c4 t init_simple_udp
0000000000033cb5 t input
0000000000094780 B input_array
000000000006c598 b input_callback
0000000000094d60 b input_eb.2
000000000006b168 b input_handler
0000000000054798 d input_handler_list
0000000000097bf8 b input_handler_list_list
000000000003ef01 t input_handler_lookup
0000000000094a58 b input_index.16
0000000000094a5c b input_queue_drop.15
0000000000094760 B input_ringbuf
0000000000054128 d link_stats
000000000001cf42 T link_stats_from_lladdr
000000000001cf6a T link_stats_get_lladdr
000000000001d3a3 T link_stats_init
000000000001d1e5 T link_stats_input_callback
000000000001cf92 T link_stats_is_fresh
000000000001d081 T link_stats_packet_sent
000000000001d347 T link_stats_reset
0000000000054110 d link_stats_struct
000000000001d406 T linkaddr_cmp
000000000001d3e5 T linkaddr_copy
0000000000059980 B linkaddr_node_addr
0000000000044428 R linkaddr_null
00000000000231b8 t linkaddr_set_node_addr
000000000003720b t mac_call_sent_callback
000000000003b337 t mac_call_sent_callback
000000000001666c t netstack_init
000000000002291d T netstack_ip_packet_processor_add
000000000002287c T netstack_process_ip_callback
0000000000031359 T netstack_sniffer_add
0000000000031373 T netstack_sniffer_remove
000000000003fbbb t ns_input
0000000000054810 d ns_input_handler
0000000000033888 t output
0000000000035974 t output_fallback
00000000000309ea t output_prompt
00000000000356be t packet_input
000000000003ccbf t packet_input
00000000000542e8 d packetbuf
000000000002305f T packetbuf_addr
0000000000064260 B packetbuf_addrs
0000000000064280 b packetbuf_aligned
0000000000022ffc T packetbuf_attr
0000000000022ed5 T packetbuf_attr_clear
0000000000022f85 T packetbuf_attr_copyfrom
0000000000022f3a T packetbuf_attr_copyto
0000000000064240 B packetbuf_attrs
0000000000022c10 T packetbuf_clear
0000000000022c3e T packetbuf_copyfrom
0000000000022c97 T packetbuf_copyto
0000000000022e6e T packetbuf_datalen
0000000000022e38 T packetbuf_dataptr
000000000006b3a8 b packetbuf_hdr_len
0000000000022d3d T packetbuf_hdralloc
0000000000022e7f T packetbuf_hdrlen
0000000000022e5d T packetbuf_hdrptr
0000000000022dcc T packetbuf_hdrreduce
0000000000023089 T packetbuf_holds_broadcast
000000000006b3ac b packetbuf_payload_len
000000000006b3a0 b packetbuf_ptr
0000000000022ebd T packetbuf_remaininglen
000000000002301d T packetbuf_set_addr
0000000000022fd0 T packetbuf_set_attr
0000000000022e1c T packetbuf_set_datalen
0000000000022e9b T packetbuf_totlen
0000000000058620 b pin_callbacks
0000000000034971 t process_thread_simple_udp_process
0000000000035e0d t process_thread_tcpip_process
000000000003d576 t process_thread_udp_socket_process
00000000000245dc T queuebuf_addr
0000000000024623 T queuebuf_attr
00000000000245ac T queuebuf_datalen
0000000000024565 T queuebuf_dataptr
000000000002465e T queuebuf_debug_print
0000000000024490 T queuebuf_free
00000000000242fc T queuebuf_init
00000000000242e7 t queuebuf_load_to_ram
000000000002433e T queuebuf_new_from_packetbuf
0000000000024325 T queuebuf_numfree
00000000000244ec T queuebuf_to_packetbuf
00000000000243f1 T queuebuf_update_attr_from_packetbuf
0000000000024434 T queuebuf_update_from_packetbuf
0000000000027085 T rpl_dag_get_root_ipaddr
000000000002821c T rpl_dag_init
000000000002809b T rpl_dag_init_root
00000000000270cf T rpl_dag_leave
0000000000027198 T rpl_dag_periodic
000000000002717a T rpl_dag_poison_and_leave
00000000000274d2 T rpl_dag_ready_to_advertise
0000000000026fbe T rpl_dag_root_is_root
0000000000026cac T rpl_dag_root_print_links
0000000000026e21 T rpl_dag_root_set_prefix
0000000000026e5d T rpl_dag_root_start
0000000000027027 T rpl_dag_state_to_str
000000000002752a T rpl_dag_update_state
00000000000289e0 T rpl_ext_header_hbh_update
0000000000028e16 T rpl_ext_header_remove
0000000000028240 T rpl_ext_header_srh_get_next_hop
0000000000028351 T rpl_ext_header_srh_update
0000000000028d69 T rpl_ext_header_update
00000000000272df T rpl_get_any_dag
00000000000272b8 T rpl_get_default_instance
000000000002c7a6 T rpl_get_global_address
000000000002cd97 T rpl_get_leaf_only
00000000000273ae T rpl_global_repair
000000000002c9a8 T rpl_has_joined
000000000002a6dc T rpl_icmp6_dao_ack_output
000000000002a36b T rpl_icmp6_dao_output
00000000000299e0 T rpl_icmp6_dio_output
0000000000029264 T rpl_icmp6_dis_output
000000000002a772 T rpl_icmp6_init
00000000000291af T rpl_icmp6_update_nbr_table
000000000002725c T rpl_is_addr_in_our_dag
000000000002c9db T rpl_is_reachable
000000000006a950 b rpl_leaf_only
000000000002c93e T rpl_link_callback
0000000000052800 D rpl_lite_driver
0000000000027470 T rpl_local_repair
000000000002c742 T rpl_lollipop_greater_than
000000000002dd3a t rpl_mop_to_str
0000000000054400 D rpl_mrhof
000000000006a940 B rpl_multicast_addr
000000000002ab70 T rpl_nbr_gc_get_worst
000000000002b04c T rpl_neighbor_count
000000000002b455 T rpl_neighbor_get_from_ipaddr
000000000002b121 T rpl_neighbor_get_from_lladdr
000000000002b25b T rpl_neighbor_get_ipaddr
000000000002b198 T rpl_neighbor_get_link_metric
000000000002b289 T rpl_neighbor_get_link_stats
000000000002b230 T rpl_neighbor_get_lladdr
000000000002b66e T rpl_neighbor_init
000000000002b14c T rpl_neighbor_is_acceptable_parent
000000000002b2b7 T rpl_neighbor_is_fresh
000000000002b2e5 T rpl_neighbor_is_parent
000000000002af75 T rpl_neighbor_print_list
000000000002b1e4 T rpl_neighbor_rank_via_nbr
000000000002b3ef T rpl_neighbor_remove_all
000000000002b58e T rpl_neighbor_select_best
000000000002b31e T rpl_neighbor_set_preferred_parent
000000000002ac47 T rpl_neighbor_snprint
0000000000054468 D rpl_neighbors
0000000000054450 d rpl_neighbors_struct
000000000002dd98 t rpl_ocp_to_str
0000000000054480 D rpl_of0
0000000000027ee3 T rpl_process_dao
0000000000027f8c T rpl_process_dao_ack

[Contiki behavior strings]
process_start
process_exit
process_current
ctimer_set_with_process
button_hal_process
process_post
ctimer_expired
ctimer_stop
process_poll
process_alloc_event
rtimer_arch_init
process_init
etimer_process
ctimer_init
queuebuf_init
uip_lladdr
tcpip_process
uip_ds6_get_link_local
autostart_processes
rtimer_arch_now
cooja_radio_process
packetbuf_set_attr
packetbuf_clear
packetbuf_dataptr
packetbuf_set_datalen
ctimer_process
etimer_set
ctimer_reset
etimer_reset
ctimer_restart
etimer_restart
etimer_stop
uip_ext_len
uip_aligned_buf
uip_slen
uip_udp_conn
uip_ds6_select_src
uipbuf_set_len_field
uip_icmp6chksum
uip_len
tcpip_ipv6_output
uip_remove_ext_hdr
uip_process
uip_mcast6_route_lookup
uipbuf_clear
tcpip_output
uip_ds6_nbr_lladdr_from_ipaddr
packetbuf_addr
uip_ds6_maddr_lookup
uip_mcast6_route_init
uip_icmp6_register_input_handler
etimer_request_poll
etimer_reset_with_new_interval
etimer_adjust
etimer_expiration_time
etimer_start_time
etimer_pending
etimer_next_expiration_time
packetbuf_holds_broadcast
packetbuf_datalen
packetbuf_hdralloc
packetbuf_hdrptr
packetbuf_hdrreduce
packetbuf_set_addr
periodic_timer
curr_log_level_tcpip
uiplib_ipaddr_snprint
trickle_timer_inconsistency
uip_ds6_maddr_add
trickle_timer_config
uip_ds6_maddr_rm
uip_ds6_get_global
uip_ds6_if
trickle_timer_set
trickle_timer_consistency
uip_ds6_addr_lookup
rtimer_arch_check
simProcessRunValue
simEtimerPending
simEtimerNextExpirationTime
netstack_process_ip_callback
netstack_ip_packet_processor_add
uip_ds6_ip_packet_processor_rm
packetbuf_attrs
packetbuf_addrs
packetbuf_attr_clear
packetbuf_copyfrom
packetbuf_copyto
packetbuf_totlen
packetbuf_hdrlen
packetbuf_remaininglen
packetbuf_attr_copyto
packetbuf_attr_copyfrom
process_run
process_nevents
process_list
process_post_synch
process_is_running
uip_flags
uip_conn

[Disassembly samples around process/network functions]
0000000000012d80 <packetbuf_attr@plt>:
   12d80:	f3 0f 1e fa          	endbr64
   12d84:	f2 ff 25 bd ff 03 00 	bnd jmp *0x3ffbd(%rip)        # 52d48 <packetbuf_attr@@Base+0x2fd4c>
   12d8b:	0f 1f 44 00 00       	nopl   0x0(%rax,%rax,1)

0000000000012d90 <uip_ds6_nbr_rm@plt>:
   12d90:	f3 0f 1e fa          	endbr64
   12d94:	f2 ff 25 f5 01 04 00 	bnd jmp *0x401f5(%rip)        # 52f90 <uip_ds6_nbr_rm@@Base+0x1576b>
   12d9b:	0f 1f 44 00 00       	nopl   0x0(%rax,%rax,1)

0000000000012da0 <__cxa_finalize@plt>:
   12da0:	f3 0f 1e fa          	endbr64
   12da4:	f2 ff 25 25 02 04 00 	bnd jmp *0x40225(%rip)        # 52fd0 <__cxa_finalize@GLIBC_2.2.5>
   12dab:	0f 1f 44 00 00       	nopl   0x0(%rax,%rax,1)

Disassembly of section .plt.sec:

0000000000012db0 <rpl_timers_notify_dao_ack@plt>:
   12db0:	f3 0f 1e fa          	endbr64
   12db4:	f2 ff 25 5d 02 04 00 	bnd jmp *0x4025d(%rip)        # 53018 <rpl_timers_notify_dao_ack@@Base+0x26efd>
   12dbb:	0f 1f 44 00 00       	nopl   0x0(%rax,%rax,1)

0000000000012dc0 <uip_icmp6_input@plt>:
--
0000000000012e10 <packetbuf_attr_copyto@plt>:
   12e10:	f3 0f 1e fa          	endbr64
   12e14:	f2 ff 25 2d 02 04 00 	bnd jmp *0x4022d(%rip)        # 53048 <packetbuf_attr_copyto@@Base+0x3010e>
   12e1b:	0f 1f 44 00 00       	nopl   0x0(%rax,%rax,1)

0000000000012e20 <uipbuf_get_last_header@plt>:
   12e20:	f3 0f 1e fa          	endbr64
   12e24:	f2 ff 25 25 02 04 00 	bnd jmp *0x40225(%rip)        # 53050 <uipbuf_get_last_header@@Base+0x106ba>
   12e2b:	0f 1f 44 00 00       	nopl   0x0(%rax,%rax,1)

0000000000012e30 <packetbuf_attr_copyfrom@plt>:
   12e30:	f3 0f 1e fa          	endbr64
   12e34:	f2 ff 25 1d 02 04 00 	bnd jmp *0x4021d(%rip)        # 53058 <packetbuf_attr_copyfrom@@Base+0x300d3>
   12e3b:	0f 1f 44 00 00       	nopl   0x0(%rax,%rax,1)

0000000000012e40 <leds_get@plt>:
   12e40:	f3 0f 1e fa          	endbr64
   12e44:	f2 ff 25 15 02 04 00 	bnd jmp *0x40215(%rip)        # 53060 <leds_get@@Base+0x36207>
   12e4b:	0f 1f 44 00 00       	nopl   0x0(%rax,%rax,1)

0000000000012e50 <packetbuf_holds_broadcast@plt>:
   12e50:	f3 0f 1e fa          	endbr64
   12e54:	f2 ff 25 0d 02 04 00 	bnd jmp *0x4020d(%rip)        # 53068 <packetbuf_holds_broadcast@@Base+0x2ffdf>
   12e5b:	0f 1f 44 00 00       	nopl   0x0(%rax,%rax,1)

0000000000012e60 <frame802154_set_pan_id@plt>:
   12e60:	f3 0f 1e fa          	endbr64
   12e64:	f2 ff 25 05 02 04 00 	bnd jmp *0x40205(%rip)        # 53070 <frame802154_set_pan_id@@Base+0x3984e>
   12e6b:	0f 1f 44 00 00       	nopl   0x0(%rax,%rax,1)

0000000000012e70 <uip_ds6_get_link_local@plt>:
   12e70:	f3 0f 1e fa          	endbr64
   12e74:	f2 ff 25 fd 01 04 00 	bnd jmp *0x401fd(%rip)        # 53078 <uip_ds6_get_link_local@@Base+0x147cb>
   12e7b:	0f 1f 44 00 00       	nopl   0x0(%rax,%rax,1)

0000000000012e80 <rtimer_run_next@plt>:
   12e80:	f3 0f 1e fa          	endbr64
   12e84:	f2 ff 25 f5 01 04 00 	bnd jmp *0x401f5(%rip)        # 53080 <rtimer_run_next@@Base+0x25fff>
   12e8b:	0f 1f 44 00 00       	nopl   0x0(%rax,%rax,1)

0000000000012e90 <tsch_queue_reset@plt>:
   12e90:	f3 0f 1e fa          	endbr64
   12e94:	f2 ff 25 ed 01 04 00 	bnd jmp *0x401ed(%rip)        # 53088 <tsch_queue_reset@@Base+0x1b77d>
--
0000000000012ee0 <packetbuf_copyfrom@plt>:
   12ee0:	f3 0f 1e fa          	endbr64
   12ee4:	f2 ff 25 c5 01 04 00 	bnd jmp *0x401c5(%rip)        # 530b0 <packetbuf_copyfrom@@Base+0x30472>
   12eeb:	0f 1f 44 00 00       	nopl   0x0(%rax,%rax,1)

0000000000012ef0 <tsch_schedule_add_slotframe@plt>:
   12ef0:	f3 0f 1e fa          	endbr64
   12ef4:	f2 ff 25 bd 01 04 00 	bnd jmp *0x401bd(%rip)        # 530b8 <tsch_schedule_add_slotframe@@Base+0x1b0bd>
   12efb:	0f 1f 44 00 00       	nopl   0x0(%rax,%rax,1)

0000000000012f00 <tsch_queue_free_unused_neighbors@plt>:
   12f00:	f3 0f 1e fa          	endbr64
   12f04:	f2 ff 25 b5 01 04 00 	bnd jmp *0x401b5(%rip)        # 530c0 <tsch_queue_free_unused_neighbors@@Base+0x1b747>
   12f0b:	0f 1f 44 00 00       	nopl   0x0(%rax,%rax,1)

0000000000012f10 <sensors_changed@plt>:
   12f10:	f3 0f 1e fa          	endbr64
   12f14:	f2 ff 25 ad 01 04 00 	bnd jmp *0x401ad(%rip)        # 530c8 <sensors_changed@@Base+0x25f6c>
   12f1b:	0f 1f 44 00 00       	nopl   0x0(%rax,%rax,1)

0000000000012f20 <uip_ds6_nbr_ipaddr_from_lladdr@plt>:
   12f20:	f3 0f 1e fa          	endbr64
   12f24:	f2 ff 25 a5 01 04 00 	bnd jmp *0x401a5(%rip)        # 530d0 <uip_ds6_nbr_ipaddr_from_lladdr@@Base+0x155d7>
--
0000000000012f30 <packetbuf_copyto@plt>:
   12f30:	f3 0f 1e fa          	endbr64
   12f34:	f2 ff 25 9d 01 04 00 	bnd jmp *0x4019d(%rip)        # 530d8 <packetbuf_copyto@@Base+0x30441>
   12f3b:	0f 1f 44 00 00       	nopl   0x0(%rax,%rax,1)

0000000000012f40 <ip64_addr_is_ip64@plt>:
   12f40:	f3 0f 1e fa          	endbr64
   12f44:	f2 ff 25 95 01 04 00 	bnd jmp *0x40195(%rip)        # 530e0 <ip64_addr_is_ip64@@Base+0x36913>
   12f4b:	0f 1f 44 00 00       	nopl   0x0(%rax,%rax,1)

0000000000012f50 <rpl_icmp6_dao_ack_output@plt>:
   12f50:	f3 0f 1e fa          	endbr64
   12f54:	f2 ff 25 8d 01 04 00 	bnd jmp *0x4018d(%rip)        # 530e8 <rpl_icmp6_dao_ack_output@@Base+0x28a0c>
   12f5b:	0f 1f 44 00 00       	nopl   0x0(%rax,%rax,1)

0000000000012f60 <tsch_packet_get_frame_pending@plt>:
   12f60:	f3 0f 1e fa          	endbr64
   12f64:	f2 ff 25 85 01 04 00 	bnd jmp *0x40185(%rip)        # 530f0 <tsch_packet_get_frame_pending@@Base+0x1bf06>
   12f6b:	0f 1f 44 00 00       	nopl   0x0(%rax,%rax,1)

0000000000012f70 <frame802154_is_broadcast_addr@plt>:
   12f70:	f3 0f 1e fa          	endbr64
   12f74:	f2 ff 25 7d 01 04 00 	bnd jmp *0x4017d(%rip)        # 530f8 <frame802154_is_broadcast_addr@@Base+0x3963d>
--
0000000000013030 <packetbuf_set_addr@plt>:
   13030:	f3 0f 1e fa          	endbr64
   13034:	f2 ff 25 1d 01 04 00 	bnd jmp *0x4011d(%rip)        # 53158 <packetbuf_set_addr@@Base+0x3013b>
   1303b:	0f 1f 44 00 00       	nopl   0x0(%rax,%rax,1)

0000000000013040 <strncmp@plt>:
   13040:	f3 0f 1e fa          	endbr64
   13044:	f2 ff 25 15 01 04 00 	bnd jmp *0x40115(%rip)        # 53160 <strncmp@GLIBC_2.2.5>
   1304b:	0f 1f 44 00 00       	nopl   0x0(%rax,%rax,1)

0000000000013050 <ctimer_stop@plt>:
   13050:	f3 0f 1e fa          	endbr64
   13054:	f2 ff 25 0d 01 04 00 	bnd jmp *0x4010d(%rip)        # 53168 <ctimer_stop@@Base+0x3b1f2>
   1305b:	0f 1f 44 00 00       	nopl   0x0(%rax,%rax,1)

0000000000013060 <tsch_queue_backoff_expired@plt>:
   13060:	f3 0f 1e fa          	endbr64
   13064:	f2 ff 25 05 01 04 00 	bnd jmp *0x40105(%rip)        # 53170 <tsch_queue_backoff_expired@@Base+0x1b58f>
   1306b:	0f 1f 44 00 00       	nopl   0x0(%rax,%rax,1)

0000000000013070 <radio_signal_strength_last@plt>:
   13070:	f3 0f 1e fa          	endbr64
   13074:	f2 ff 25 fd 00 04 00 	bnd jmp *0x400fd(%rip)        # 53178 <radio_signal_strength_last@@Base+0x3c1b5>
   1307b:	0f 1f 44 00 00       	nopl   0x0(%rax,%rax,1)

0000000000013080 <tsch_security_mic_len@plt>:
   13080:	f3 0f 1e fa          	endbr64
   13084:	f2 ff 25 f5 00 04 00 	bnd jmp *0x400f5(%rip)        # 53180 <tsch_security_mic_len@@Base+0x1a0b4>
   1308b:	0f 1f 44 00 00       	nopl   0x0(%rax,%rax,1)

0000000000013090 <uip_udp_packet_sendto@plt>:
   13090:	f3 0f 1e fa          	endbr64
   13094:	f2 ff 25 ed 00 04 00 	bnd jmp *0x400ed(%rip)        # 53188 <uip_udp_packet_sendto@@Base+0x12345>
--
00000000000130e0 <ctimer_set_with_process@plt>:
   130e0:	f3 0f 1e fa          	endbr64
   130e4:	f2 ff 25 c5 00 04 00 	bnd jmp *0x400c5(%rip)        # 531b0 <ctimer_set_with_process@@Base+0x3b3d6>
   130eb:	0f 1f 44 00 00       	nopl   0x0(%rax,%rax,1)

00000000000130f0 <tsch_adaptive_timesync_reset@plt>:
   130f0:	f3 0f 1e fa          	endbr64
   130f4:	f2 ff 25 bd 00 04 00 	bnd jmp *0x400bd(%rip)        # 531b8 <tsch_adaptive_timesync_reset@@Base+0x1c8f8>
   130fb:	0f 1f 44 00 00       	nopl   0x0(%rax,%rax,1)

0000000000013100 <frame802154_extract_linkaddr@plt>:
   13100:	f3 0f 1e fa          	endbr64
   13104:	f2 ff 25 b5 00 04 00 	bnd jmp *0x400b5(%rip)        # 531c0 <frame802154_extract_linkaddr@@Base+0x396ae>
   1310b:	0f 1f 44 00 00       	nopl   0x0(%rax,%rax,1)

0000000000013110 <ringbufindex_peek_put@plt>:
   13110:	f3 0f 1e fa          	endbr64
   13114:	f2 ff 25 ad 00 04 00 	bnd jmp *0x400ad(%rip)        # 531c8 <ringbufindex_peek_put@@Base+0x2e938>
   1311b:	0f 1f 44 00 00       	nopl   0x0(%rax,%rax,1)

0000000000013120 <memb_init@plt>:
   13120:	f3 0f 1e fa          	endbr64
   13124:	f2 ff 25 a5 00 04 00 	bnd jmp *0x400a5(%rip)        # 531d0 <memb_init@@Base+0x35316>
--
00000000000131b0 <packetbuf_hdrptr@plt>:
   131b0:	f3 0f 1e fa          	endbr64
   131b4:	f2 ff 25 5d 00 04 00 	bnd jmp *0x4005d(%rip)        # 53218 <packetbuf_hdrptr@@Base+0x303bb>
   131bb:	0f 1f 44 00 00       	nopl   0x0(%rax,%rax,1)

00000000000131c0 <uip_ds6_nbr_add@plt>:
   131c0:	f3 0f 1e fa          	endbr64
   131c4:	f2 ff 25 55 00 04 00 	bnd jmp *0x40055(%rip)        # 53220 <uip_ds6_nbr_add@@Base+0x15a99>
   131cb:	0f 1f 44 00 00       	nopl   0x0(%rax,%rax,1)

00000000000131d0 <tsch_get_network_uptime_ticks@plt>:
   131d0:	f3 0f 1e fa          	endbr64
   131d4:	f2 ff 25 4d 00 04 00 	bnd jmp *0x4004d(%rip)        # 53228 <tsch_get_network_uptime_ticks@@Base+0x19730>
   131db:	0f 1f 44 00 00       	nopl   0x0(%rax,%rax,1)

00000000000131e0 <ctimer_reset@plt>:
   131e0:	f3 0f 1e fa          	endbr64
   131e4:	f2 ff 25 45 00 04 00 	bnd jmp *0x40045(%rip)        # 53230 <ctimer_reset@@Base+0x3b39c>
   131eb:	0f 1f 44 00 00       	nopl   0x0(%rax,%rax,1)

00000000000131f0 <get_match_length@plt>:
   131f0:	f3 0f 1e fa          	endbr64
   131f4:	f2 ff 25 3d 00 04 00 	bnd jmp *0x4003d(%rip)        # 53238 <get_match_length@@Base+0x14463>
   131fb:	0f 1f 44 00 00       	nopl   0x0(%rax,%rax,1)

0000000000013200 <nbr_table_get_lladdr@plt>:
   13200:	f3 0f 1e fa          	endbr64
   13204:	f2 ff 25 35 00 04 00 	bnd jmp *0x40035(%rip)        # 53240 <nbr_table_get_lladdr@@Base+0x30b2b>
   1320b:	0f 1f 44 00 00       	nopl   0x0(%rax,%rax,1)

0000000000013210 <rpl_icmp6_dis_output@plt>:
   13210:	f3 0f 1e fa          	endbr64
   13214:	f2 ff 25 2d 00 04 00 	bnd jmp *0x4002d(%rip)        # 53248 <rpl_icmp6_dis_output@@Base+0x29fe4>
   1321b:	0f 1f 44 00 00       	nopl   0x0(%rax,%rax,1)

0000000000013220 <nbr_table_is_registered@plt>:
   13220:	f3 0f 1e fa          	endbr64
   13224:	f2 ff 25 25 00 04 00 	bnd jmp *0x40025(%rip)        # 53250 <nbr_table_is_registered@@Base+0x30f00>
--
00000000000132b0 <process_post@plt>:
   132b0:	f3 0f 1e fa          	endbr64
   132b4:	f2 ff 25 dd ff 03 00 	bnd jmp *0x3ffdd(%rip)        # 53298 <process_post@@Base+0x2faa1>
   132bb:	0f 1f 44 00 00       	nopl   0x0(%rax,%rax,1)

00000000000132c0 <process_init@plt>:
   132c0:	f3 0f 1e fa          	endbr64

----------------------------------------
FILE: extra-firmwares/nullnet-broadcast.z1
extra-firmwares/nullnet-broadcast.z1: ELF 32-bit LSB executable, TI msp430, version 1 (embedded), statically linked, with debug_info, not stripped

[Contiki process / protothread symbols]
00001100 D accmeter_process
000073ae R autostart_processes
00003946 T autostart_start
00005ec2 t call_process
0000110c D cc2420_process
00001130 D ctimer_process
00004a40 T ctimer_set_with_process
0000113c D etimer_process
00005f02 t exit_process
         U gpio_hal_arch_port_interrupt_enable
0000114e D nullnet_example_process
00005fba T process_alloc_event
0000141a B process_current
00005fc8 T process_init
0000141c B process_list
00001a5e B process_maxevents
00006070 T process_nevents
00006110 T process_poll
0000607e T process_post
000060c8 T process_post_synch
00005fe4 T process_run
000060da T process_start
000037a8 t process_thread_accmeter_process
00003f40 t process_thread_cc2420_process
00004988 t process_thread_ctimer_process
00004b40 t process_thread_etimer_process
000059a0 t process_thread_nullnet_example_process
00006250 t process_thread_sensors_process
000063f0 t process_thread_stack_check_process
0000116a D sensors_process
00001176 D stack_check_process

[Timer symbols]
0000442c T clock_time
00004a28 T ctimer_init
00001292 b ctimer_list_list
00001130 D ctimer_process
00004a8a T ctimer_set
00004a40 T ctimer_set_with_process
00004a9a T ctimer_stop
000011ba b debouncetimer
00004c68 T etimer_expired
00004c82 T etimer_next_expiration_time
00004c76 T etimer_pending
0000113c D etimer_process
00004b36 T etimer_request_poll
00004c56 T etimer_reset
00004c44 T etimer_set
00004c98 T etimer_stop
000019ae b next_rtimer
00004988 t process_thread_ctimer_process
00004b40 t process_thread_etimer_process
00006202 T rtimer_arch_init
00006210 T rtimer_arch_now
0000621e T rtimer_arch_schedule
00006224 T rtimer_init
0000622a T rtimer_run_next
000011aa b suppressTimer1
000011b2 b suppressTimer2
000064de T timer_expired
00006508 T timer_reset
000064c2 T timer_set

[NETSTACK / packetbuf / uIP callback symbols]
0000488e T csma_output_init
00004746 T csma_output_packet
0000138a b current_callback
         U gpio_hal_arch_port_pin_set_input
00005ae6 t input
00005a52 T input_callback
00004908 t input_packet
00005b56 t link_callback
0000557a T linkaddr_cmp
00005572 T linkaddr_copy
00001a20 B linkaddr_node_addr
000073a6 R linkaddr_null
0000558c T linkaddr_set_node_addr
00005780 T mac_call_sent_callback
00005932 T netstack_init
00005b1a T nullnet_set_input_callback
00005aa4 t output
00007370 r output_power
00005cf8 T packetbuf_addr
00001a2e B packetbuf_addrs
00001392 b packetbuf_aligned
00005cda T packetbuf_attr
00005c24 T packetbuf_attr_clear
00005caa T packetbuf_attr_copyfrom
00005c88 T packetbuf_attr_copyto
00001a3e B packetbuf_attrs
00005c4c T packetbuf_clear
00005c5e T packetbuf_copyfrom
00005ba2 T packetbuf_copyto
00005b86 T packetbuf_datalen
00005b96 T packetbuf_dataptr
00005be8 T packetbuf_hdralloc
00005b8c T packetbuf_hdrlen
00005b80 T packetbuf_hdrptr
00005b60 T packetbuf_hdrreduce
00005d06 T packetbuf_holds_broadcast
00005ce4 T packetbuf_set_addr
00005cce T packetbuf_set_attr
00005b7a T packetbuf_set_datalen
00005bdc T packetbuf_totlen
0000619a T queuebuf_free
00006128 T queuebuf_init
0000613a T queuebuf_new_from_packetbuf
000061c4 T queuebuf_to_packetbuf
00006188 T queuebuf_update_attr_from_packetbuf
         U slip_input_byte
000019c2 b uart0_input_handler
         U uip_aligned_buf

[Contiki behavior strings]
Accelerometer process
Starting Contiki-NG-release/v4.8-625-g8518cbaff-dirty
Ctimer process
Event timer

[Disassembly samples around process/network functions]
000037a8 <process_thread_accmeter_process>:
    37a8:	0b 14       	pushm.a	#1,	r11	
    37aa:	0b 4f       	mov	r15,	r11	
    37ac:	7e 90 82 ff 	cmp.b	#-126,	r14	;#0xff82
    37b0:	13 20       	jnz	$+40     	;abs 0x37d8
    37b2:	7f 40 30 00 	mov.b	#48,	r15	;#0x0030
    37b6:	b0 13 54 37 	calla	#0x03754	
    37ba:	4e 4f       	mov.b	r15,	r14	
    37bc:	1e b2 a6 11 	bit	&0x11a6,r14	
    37c0:	03 24       	jz	$+8      	;abs 0x37c8
    37c2:	2e 00 02 1a 	mova	&0x01a02,r14	
    37c6:	05 3c       	jmp	$+12     	;abs 0x37d2
    37c8:	1e b2 a8 11 	bit	&0x11a8,r14	
    37cc:	05 24       	jz	$+12     	;abs 0x37d8
    37ce:	2e 00 fe 19 	mova	&0x019fe,r14	
    37d2:	de 03       	tsta	r14		
    37d4:	01 24       	jz	$+4      	;abs 0x37d8
    37d6:	4e 13       	calla	r14		
    37d8:	2f 4b       	mov	@r11,	r15	
    37da:	0f 93       	tst	r15		
    37dc:	04 24       	jz	$+10     	;abs 0x37e6
--
00003f40 <process_thread_cc2420_process>:
    3f40:	0b 14       	pushm.a	#1,	r11	
    3f42:	0b 4f       	mov	r15,	r11	
    3f44:	2f 4f       	mov	@r15,	r15	
    3f46:	0f 93       	tst	r15		
    3f48:	04 24       	jz	$+10     	;abs 0x3f52
    3f4a:	3f 90 81 03 	cmp	#897,	r15	;#0x0381
    3f4e:	15 20       	jnz	$+44     	;abs 0x3f7a
    3f50:	1b 3c       	jmp	$+56     	;abs 0x3f88
    3f52:	bb 40 81 03 	mov	#897,	0(r11)	;#0x0381, 0x0000(r11)
    3f56:	00 00 
    3f58:	15 3c       	jmp	$+44     	;abs 0x3f84
    3f5a:	7e 90 82 ff 	cmp.b	#-126,	r14	;#0xff82
    3f5e:	12 20       	jnz	$+38     	;abs 0x3f84
    3f60:	b0 13 4c 5c 	calla	#0x05c4c	
    3f64:	b0 13 96 5b 	calla	#0x05b96	
    3f68:	3e 40 80 00 	mov	#128,	r14	;#0x0080
    3f6c:	b0 13 86 3e 	calla	#0x03e86	
    3f70:	b0 13 7a 5b 	calla	#0x05b7a	
    3f74:	80 13 8a 73 	calla	&0x0738a	
    3f78:	ec 3f       	jmp	$-38     	;abs 0x3f52
--
00004988 <process_thread_ctimer_process>:
    4988:	2b 14       	pushm.a	#3,	r11	
    498a:	0a 4f       	mov	r15,	r10	
    498c:	09 4d       	mov	r13,	r9	
    498e:	2f 4f       	mov	@r15,	r15	
    4990:	0f 93       	tst	r15		
    4992:	04 24       	jz	$+10     	;abs 0x499c
    4994:	3f 90 4a 00 	cmp	#74,	r15	;#0x004a
    4998:	3a 20       	jnz	$+118    	;abs 0x4a0e
    499a:	40 3c       	jmp	$+130    	;abs 0x4a1c
    499c:	3f 40 92 12 	mov	#4754,	r15	;#0x1292
    49a0:	b0 13 9e 55 	calla	#0x0559e	
    49a4:	0b 4f       	mov	r15,	r11	
    49a6:	09 3c       	jmp	$+20     	;abs 0x49ba
    49a8:	1d 4b 06 00 	mov	6(r11),	r13	;0x0006(r11)
    49ac:	1e 4b 08 00 	mov	8(r11),	r14	;0x0008(r11)
    49b0:	0f 4b       	mov	r11,	r15	
    49b2:	2f 53       	incd	r15		
    49b4:	b0 13 44 4c 	calla	#0x04c44	
    49b8:	2b 4b       	mov	@r11,	r11	
    49ba:	0b 93       	tst	r11		
--
00004a28 <ctimer_init>:
    4a28:	c2 43 e1 19 	mov.b	#0,	&0x19e1	;r3 As==00
    4a2c:	3f 40 92 12 	mov	#4754,	r15	;#0x1292
    4a30:	b0 13 98 55 	calla	#0x05598	
    4a34:	0e 43       	clr	r14		
    4a36:	3f 40 30 11 	mov	#4400,	r15	;#0x1130
    4a3a:	b0 13 da 60 	calla	#0x060da	
    4a3e:	10 01       	reta			

00004a40 <ctimer_set_with_process>:
    4a40:	2b 14       	pushm.a	#3,	r11	
    4a42:	09 4f       	mov	r15,	r9	
    4a44:	0a 4d       	mov	r13,	r10	
    4a46:	0b 4e       	mov	r14,	r11	
    4a48:	9f 41 12 00 	mov	18(r1),	14(r15)	;0x0012(r1), 0x000e(r15)
    4a4c:	0e 00 
    4a4e:	7f 0c 10 00 	mova	r12,	16(r15)	;0x0010(r15)
    4a52:	9f 41 10 00 	mov	16(r1),	20(r15)	;0x0010(r1), 0x0014(r15)
    4a56:	14 00 
    4a58:	c2 93 e1 19 	tst.b	&0x19e1	
    4a5c:	0b 24       	jz	$+24     	;abs 0x4a74
    4a5e:	1b 42 1a 14 	mov	&0x141a,r11	
    4a62:	b2 40 30 11 	mov	#4400,	&0x141a	;#0x1130
    4a66:	1a 14 
    4a68:	2f 53       	incd	r15		
    4a6a:	b0 13 44 4c 	calla	#0x04c44	
    4a6e:	82 4b 1a 14 	mov	r11,	&0x141a	
    4a72:	04 3c       	jmp	$+10     	;abs 0x4a7c
    4a74:	89 4d 06 00 	mov	r13,	6(r9)	;0x0006(r9)
    4a78:	89 4e 08 00 	mov	r14,	8(r9)	;0x0008(r9)
--
00004a8a <ctimer_set>:
    4a8a:	12 12 1a 14 	push	&0x141a	
    4a8e:	11 12 08 00 	push	8(r1)		;0x0008(r1)
    4a92:	b0 13 40 4a 	calla	#0x04a40	
    4a96:	21 52       	add	#4,	r1	;r2 As==10
    4a98:	10 01       	reta			

00004a9a <ctimer_stop>:
    4a9a:	0b 14       	pushm.a	#1,	r11	
    4a9c:	0b 4f       	mov	r15,	r11	
    4a9e:	c2 93 e1 19 	tst.b	&0x19e1	
    4aa2:	04 24       	jz	$+10     	;abs 0x4aac
    4aa4:	2f 53       	incd	r15		
    4aa6:	b0 13 98 4c 	calla	#0x04c98	
    4aaa:	04 3c       	jmp	$+10     	;abs 0x4ab4
    4aac:	8f 43 0a 00 	mov	#0,	10(r15)	;r3 As==00, 0x000a(r15)
    4ab0:	8f 43 0c 00 	mov	#0,	12(r15)	;r3 As==00, 0x000c(r15)
    4ab4:	0e 4b       	mov	r11,	r14	
    4ab6:	3f 40 92 12 	mov	#4754,	r15	;#0x1292
    4aba:	b0 13 b4 55 	calla	#0x055b4	
    4abe:	0b 16       	popm.a	#1,	r11	
    4ac0:	10 01       	reta			

00004ac2 <energest_init>:
    4ac2:	10 01       	reta			

00004ac4 <energest_flush>:
    4ac4:	10 01       	reta			
--
00004b36 <etimer_request_poll>:
    4b36:	3f 40 3c 11 	mov	#4412,	r15	;#0x113c
    4b3a:	b0 13 10 61 	calla	#0x06110	
    4b3e:	10 01       	reta			

00004b40 <process_thread_etimer_process>:
    4b40:	2b 14       	pushm.a	#3,	r11	
    4b42:	0a 4f       	mov	r15,	r10	
    4b44:	2f 4f       	mov	@r15,	r15	
    4b46:	0f 93       	tst	r15		
    4b48:	04 24       	jz	$+10     	;abs 0x4b52
    4b4a:	3f 90 59 00 	cmp	#89,	r15	;#0x0059
    4b4e:	4d 20       	jnz	$+156    	;abs 0x4bea
    4b50:	51 3c       	jmp	$+164    	;abs 0x4bf4
    4b52:	82 43 94 12 	mov	#0,	&0x1294	;r3 As==00
    4b56:	ba 40 59 00 	mov	#89,	0(r10)	;#0x0059, 0x0000(r10)
    4b5a:	00 00 
    4b5c:	5f 43       	mov.b	#1,	r15	;r3 As==01
    4b5e:	50 3c       	jmp	$+162    	;abs 0x4c00
    4b60:	1e 4e 08 00 	mov	8(r14),	r14	;0x0008(r14)
    4b64:	0e 93       	tst	r14		
    4b66:	01 20       	jnz	$+4      	;abs 0x4b6a
    4b68:	f4 3f       	jmp	$-22     	;abs 0x4b52
    4b6a:	8e 9d 0a 00 	cmp	r13,	10(r14)	;0x000a(r14)
    4b6e:	f8 27       	jz	$-14     	;abs 0x4b60
    4b70:	82 4e 94 12 	mov	r14,	&0x1294	
--
00004c44 <etimer_set>:
    4c44:	0b 14       	pushm.a	#1,	r11	
    4c46:	0b 4f       	mov	r15,	r11	
    4c48:	b0 13 c2 64 	calla	#0x064c2	
    4c4c:	0f 4b       	mov	r11,	r15	
    4c4e:	b0 13 04 4c 	calla	#0x04c04	
    4c52:	0b 16       	popm.a	#1,	r11	
    4c54:	10 01       	reta			

00004c56 <etimer_reset>:
    4c56:	0b 14       	pushm.a	#1,	r11	
    4c58:	0b 4f       	mov	r15,	r11	
    4c5a:	b0 13 08 65 	calla	#0x06508	
    4c5e:	0f 4b       	mov	r11,	r15	
    4c60:	b0 13 04 4c 	calla	#0x04c04	
    4c64:	0b 16       	popm.a	#1,	r11	
    4c66:	10 01       	reta			

00004c68 <etimer_expired>:
    4c68:	1e 43       	mov	#1,	r14	;r3 As==01
    4c6a:	8f 93 0a 00 	tst	10(r15)	;0x000a(r15)
    4c6e:	01 24       	jz	$+4      	;abs 0x4c72
    4c70:	0e 43       	clr	r14		
    4c72:	0f 4e       	mov	r14,	r15	
    4c74:	10 01       	reta			

00004c76 <etimer_pending>:
    4c76:	1f 43       	mov	#1,	r15	;r3 As==01
    4c78:	82 93 94 12 	tst	&0x1294	
    4c7c:	01 20       	jnz	$+4      	;abs 0x4c80
    4c7e:	0f 43       	clr	r15		
    4c80:	10 01       	reta			

00004c82 <etimer_next_expiration_time>:
    4c82:	82 93 94 12 	tst	&0x1294	
    4c86:	05 24       	jz	$+12     	;abs 0x4c92
    4c88:	1e 42 96 12 	mov	&0x1296,r14	
    4c8c:	1f 42 98 12 	mov	&0x1298,r15	
    4c90:	10 01       	reta			
    4c92:	0e 43       	clr	r14		
    4c94:	0f 43       	clr	r15		
    4c96:	10 01       	reta			

00004c98 <etimer_stop>:
    4c98:	0b 14       	pushm.a	#1,	r11	
    4c9a:	0b 4f       	mov	r15,	r11	
    4c9c:	1f 42 94 12 	mov	&0x1294,r15	
    4ca0:	0b 9f       	cmp	r15,	r11	
    4ca2:	05 20       	jnz	$+12     	;abs 0x4cae
    4ca4:	92 4b 08 00 	mov	8(r11),	&0x1294	;0x0008(r11)
    4ca8:	94 12 
    4caa:	10 3c       	jmp	$+34     	;abs 0x4ccc
    4cac:	0f 4e       	mov	r14,	r15	
    4cae:	0f 93       	tst	r15		
    4cb0:	05 24       	jz	$+12     	;abs 0x4cbc
    4cb2:	1e 4f 08 00 	mov	8(r15),	r14	;0x0008(r15)
    4cb6:	0e 9b       	cmp	r11,	r14	
    4cb8:	f9 23       	jnz	$-12     	;abs 0x4cac
    4cba:	05 3c       	jmp	$+12     	;abs 0x4cc6
    4cbc:	8b 43 08 00 	mov	#0,	8(r11)	;r3 As==00, 0x0008(r11)
    4cc0:	8b 43 0a 00 	mov	#0,	10(r11)	;r3 As==00, 0x000a(r11)
    4cc4:	06 3c       	jmp	$+14     	;abs 0x4cd2
    4cc6:	9f 4b 08 00 	mov	8(r11),	8(r15)	;0x0008(r11), 0x0008(r15)
    4cca:	08 00 
--
00005932 <netstack_init>:
    5932:	80 13 38 73 	calla	&0x07338	

----------------------------------------
FILE: extra-firmwares/nullnet-unicast-u50.sky
extra-firmwares/nullnet-unicast-u50.sky: ELF 32-bit LSB executable, TI msp430, version 1 (embedded), statically linked, with debug_info, not stripped

[Contiki process / protothread symbols]
00008386 R autostart_processes
00004220 T autostart_start
00006cdc t call_process
00001100 D cc2420_process
00001124 D ctimer_process
00005646 T ctimer_set_with_process
0000112e D etimer_process
00006d22 t exit_process
         U gpio_hal_arch_port_interrupt_enable
00001192 D nullnet_example_process
00006dea T process_alloc_event
00001d24 B process_current
00006e02 T process_init
00001d22 B process_list
00006e96 T process_nevents
00006f2a T process_poll
00006ea0 T process_post
00006ee2 T process_post_synch
00006e0a T process_run
00006ef4 T process_start
000049ee t process_thread_cc2420_process
00005598 t process_thread_ctimer_process
0000597a t process_thread_etimer_process
00006746 t process_thread_nullnet_example_process
000070ea t process_thread_sensors_process
000071d6 t process_thread_serial_line_process
00007384 t process_thread_stack_check_process
00001214 D sensors_process
0000121e D serial_line_process
00001228 D stack_check_process

[Timer symbols]
0000504a T clock_time
00005632 T ctimer_init
00001316 b ctimer_list_list
00001124 D ctimer_process
00005694 T ctimer_reset
00005646 T ctimer_set_with_process
000056c4 T ctimer_stop
00001236 b debouncetimer
00005ab6 T etimer_next_expiration_time
00005aaa T etimer_pending
0000112e D etimer_process
00005970 T etimer_request_poll
00005a98 T etimer_reset
00005a86 T etimer_set
00005acc T etimer_stop
00001aec b next_rtimer
00005598 t process_thread_ctimer_process
0000597a t process_thread_etimer_process
000070b6 T rtimer_arch_init
000070c4 T rtimer_arch_now
000070d2 T rtimer_run_next
00007430 T timer_expired
0000745a T timer_reset
00007414 T timer_set

[NETSTACK / packetbuf / uIP callback symbols]
000054a6 T csma_output_init
00005360 T csma_output_packet
00001334 B curr_log_level_rpl
00001332 B curr_log_level_tcpip
00001428 b current_callback
         U gpio_hal_arch_port_pin_set_input
000068b2 t input
00006800 T input_callback
00005520 t input_packet
0000692e t link_callback
0000633c T linkaddr_cmp
00006334 T linkaddr_copy
00001cec B linkaddr_node_addr
00008298 R linkaddr_null
000068f2 T nullnet_set_input_callback
00006870 t output
0000826e r output_power
00006ae0 T packetbuf_addr
00001cfa B packetbuf_addrs
00001430 b packetbuf_aligned
00006ac0 T packetbuf_attr
00006a08 T packetbuf_attr_clear
00006a92 T packetbuf_attr_copyfrom
00006a70 T packetbuf_attr_copyto
00001d0a B packetbuf_attrs
00006a30 T packetbuf_clear
00006a42 T packetbuf_copyfrom
0000697a T packetbuf_copyto
0000695e T packetbuf_datalen
0000696e T packetbuf_dataptr
000069cc T packetbuf_hdralloc
00006964 T packetbuf_hdrlen
00006958 T packetbuf_hdrptr
00006938 T packetbuf_hdrreduce
00006af2 T packetbuf_holds_broadcast
00006aca T packetbuf_set_addr
00006ab6 T packetbuf_set_attr
00006952 T packetbuf_set_datalen
000069c0 T packetbuf_totlen
00006fb8 T queuebuf_free
00006f42 T queuebuf_init
00006f54 T queuebuf_new_from_packetbuf
00006fe2 T queuebuf_to_packetbuf
00006fa6 T queuebuf_update_attr_from_packetbuf
0000727a T serial_line_input_byte
         U slip_input_byte
00001c22 b uart1_input_handler
000074d8 T uart1_set_input
         U uip_aligned_buf

[Contiki behavior strings]
tcpip
Starting Contiki-NG-develop/v4.9-639-g6ac4608cd-dirty
Ctimer process
Event timer

[Disassembly samples around process/network functions]
000049ee <process_thread_cc2420_process>:
    49ee:	0b 12       	push	r11		
    49f0:	0b 4f       	mov	r15,	r11	
    49f2:	2f 4f       	mov	@r15,	r15	
    49f4:	0f 93       	tst	r15		
    49f6:	04 24       	jz	$+10     	;abs 0x4a00
    49f8:	3f 90 81 03 	cmp	#897,	r15	;#0x0381
    49fc:	15 20       	jnz	$+44     	;abs 0x4a28
    49fe:	1b 3c       	jmp	$+56     	;abs 0x4a36
    4a00:	bb 40 81 03 	mov	#897,	0(r11)	;#0x0381, 0x0000(r11)
    4a04:	00 00 
    4a06:	15 3c       	jmp	$+44     	;abs 0x4a32
    4a08:	7e 90 82 ff 	cmp.b	#-126,	r14	;#0xff82
    4a0c:	12 20       	jnz	$+38     	;abs 0x4a32
    4a0e:	b0 12 30 6a 	call	#0x6a30	
    4a12:	b0 12 6e 69 	call	#0x696e	
    4a16:	3e 40 80 00 	mov	#128,	r14	;#0x0080
    4a1a:	b0 12 30 49 	call	#0x4930	
    4a1e:	b0 12 52 69 	call	#0x6952	
    4a22:	92 12 8a 82 	call	&0x828a	
    4a26:	ec 3f       	jmp	$-38     	;abs 0x4a00
--
00005598 <process_thread_ctimer_process>:
    5598:	0b 12       	push	r11		
    559a:	0a 12       	push	r10		
    559c:	09 12       	push	r9		
    559e:	0a 4f       	mov	r15,	r10	
    55a0:	2f 4f       	mov	@r15,	r15	
    55a2:	0f 93       	tst	r15		
    55a4:	04 24       	jz	$+10     	;abs 0x55ae
    55a6:	3f 90 45 00 	cmp	#69,	r15	;#0x0045
    55aa:	34 20       	jnz	$+106    	;abs 0x5614
    55ac:	3a 3c       	jmp	$+118    	;abs 0x5622
    55ae:	1b 42 16 13 	mov	&0x1316,r11	
    55b2:	09 3c       	jmp	$+20     	;abs 0x55c6
    55b4:	1d 4b 06 00 	mov	6(r11),	r13	;0x0006(r11)
    55b8:	1e 4b 08 00 	mov	8(r11),	r14	;0x0008(r11)
    55bc:	0f 4b       	mov	r11,	r15	
    55be:	2f 53       	incd	r15		
    55c0:	b0 12 86 5a 	call	#0x5a86	
    55c4:	2b 4b       	mov	@r11,	r11	
    55c6:	0b 93       	tst	r11		
    55c8:	f5 23       	jnz	$-20     	;abs 0x55b4
--
00005632 <ctimer_init>:
    5632:	c2 43 14 13 	mov.b	#0,	&0x1314	;r3 As==00
    5636:	82 43 16 13 	mov	#0,	&0x1316	;r3 As==00
    563a:	0e 43       	clr	r14		
    563c:	3f 40 24 11 	mov	#4388,	r15	;#0x1124
    5640:	b0 12 f4 6e 	call	#0x6ef4	
    5644:	30 41       	ret			

00005646 <ctimer_set_with_process>:
    5646:	0b 12       	push	r11		
    5648:	0a 12       	push	r10		
    564a:	09 12       	push	r9		
    564c:	09 4f       	mov	r15,	r9	
    564e:	9f 41 0a 00 	mov	10(r1),	14(r15)	;0x000a(r1), 0x000e(r15)
    5652:	0e 00 
    5654:	8f 4c 10 00 	mov	r12,	16(r15)	;0x0010(r15)
    5658:	9f 41 08 00 	mov	8(r1),	18(r15)	;0x0008(r1), 0x0012(r15)
    565c:	12 00 
    565e:	c2 93 14 13 	tst.b	&0x1314	
    5662:	0b 24       	jz	$+24     	;abs 0x567a
    5664:	1b 42 24 1d 	mov	&0x1d24,r11	
    5668:	b2 40 24 11 	mov	#4388,	&0x1d24	;#0x1124
    566c:	24 1d 
    566e:	2f 53       	incd	r15		
    5670:	b0 12 86 5a 	call	#0x5a86	
    5674:	82 4b 24 1d 	mov	r11,	&0x1d24	
    5678:	04 3c       	jmp	$+10     	;abs 0x5682
    567a:	89 4d 06 00 	mov	r13,	6(r9)	;0x0006(r9)
    567e:	89 4e 08 00 	mov	r14,	8(r9)	;0x0008(r9)
--
00005694 <ctimer_reset>:
    5694:	0b 12       	push	r11		
    5696:	0a 12       	push	r10		
    5698:	0b 4f       	mov	r15,	r11	
    569a:	c2 93 14 13 	tst.b	&0x1314	
    569e:	0a 24       	jz	$+22     	;abs 0x56b4
    56a0:	1a 42 24 1d 	mov	&0x1d24,r10	
    56a4:	b2 40 24 11 	mov	#4388,	&0x1d24	;#0x1124
    56a8:	24 1d 
    56aa:	2f 53       	incd	r15		
    56ac:	b0 12 98 5a 	call	#0x5a98	
    56b0:	82 4a 24 1d 	mov	r10,	&0x1d24	
    56b4:	0e 4b       	mov	r11,	r14	
    56b6:	3f 40 16 13 	mov	#4886,	r15	;#0x1316
    56ba:	b0 12 94 63 	call	#0x6394	
    56be:	3a 41       	pop	r10		
    56c0:	3b 41       	pop	r11		
    56c2:	30 41       	ret			

000056c4 <ctimer_stop>:
    56c4:	0b 12       	push	r11		
    56c6:	0b 4f       	mov	r15,	r11	
    56c8:	c2 93 14 13 	tst.b	&0x1314	
    56cc:	04 24       	jz	$+10     	;abs 0x56d6
    56ce:	2f 53       	incd	r15		
    56d0:	b0 12 cc 5a 	call	#0x5acc	
    56d4:	04 3c       	jmp	$+10     	;abs 0x56de
    56d6:	8f 43 0a 00 	mov	#0,	10(r15)	;r3 As==00, 0x000a(r15)
    56da:	8f 43 0c 00 	mov	#0,	12(r15)	;r3 As==00, 0x000c(r15)
    56de:	0e 4b       	mov	r11,	r14	
    56e0:	3f 40 16 13 	mov	#4886,	r15	;#0x1316
    56e4:	b0 12 60 63 	call	#0x6360	
    56e8:	3b 41       	pop	r11		
    56ea:	30 41       	ret			

000056ec <owreadb>:
    56ec:	0b 12       	push	r11		
    56ee:	0a 12       	push	r10		
    56f0:	3a 42       	mov	#8,	r10	;r2 As==11
    56f2:	0b 43       	clr	r11		
--
00005970 <etimer_request_poll>:
    5970:	3f 40 2e 11 	mov	#4398,	r15	;#0x112e
    5974:	b0 12 2a 6f 	call	#0x6f2a	
    5978:	30 41       	ret			

0000597a <process_thread_etimer_process>:
    597a:	0b 12       	push	r11		
    597c:	0a 12       	push	r10		
    597e:	09 12       	push	r9		
    5980:	0a 4f       	mov	r15,	r10	
    5982:	2f 4f       	mov	@r15,	r15	
    5984:	0f 93       	tst	r15		
    5986:	04 24       	jz	$+10     	;abs 0x5990
    5988:	3f 90 59 00 	cmp	#89,	r15	;#0x0059
    598c:	4d 20       	jnz	$+156    	;abs 0x5a28
    598e:	51 3c       	jmp	$+164    	;abs 0x5a32
    5990:	82 43 18 13 	mov	#0,	&0x1318	;r3 As==00
    5994:	ba 40 59 00 	mov	#89,	0(r10)	;#0x0059, 0x0000(r10)
    5998:	00 00 
    599a:	5f 43       	mov.b	#1,	r15	;r3 As==01
    599c:	50 3c       	jmp	$+162    	;abs 0x5a3e
    599e:	1e 4e 08 00 	mov	8(r14),	r14	;0x0008(r14)
    59a2:	0e 93       	tst	r14		
    59a4:	01 20       	jnz	$+4      	;abs 0x59a8
    59a6:	f4 3f       	jmp	$-22     	;abs 0x5990
    59a8:	8e 9d 0a 00 	cmp	r13,	10(r14)	;0x000a(r14)
--
00005a86 <etimer_set>:
    5a86:	0b 12       	push	r11		
    5a88:	0b 4f       	mov	r15,	r11	
    5a8a:	b0 12 14 74 	call	#0x7414	
    5a8e:	0f 4b       	mov	r11,	r15	
    5a90:	b0 12 46 5a 	call	#0x5a46	
    5a94:	3b 41       	pop	r11		
    5a96:	30 41       	ret			

00005a98 <etimer_reset>:
    5a98:	0b 12       	push	r11		
    5a9a:	0b 4f       	mov	r15,	r11	
    5a9c:	b0 12 5a 74 	call	#0x745a	
    5aa0:	0f 4b       	mov	r11,	r15	
    5aa2:	b0 12 46 5a 	call	#0x5a46	
    5aa6:	3b 41       	pop	r11		
    5aa8:	30 41       	ret			

00005aaa <etimer_pending>:
    5aaa:	1f 43       	mov	#1,	r15	;r3 As==01
    5aac:	82 93 18 13 	tst	&0x1318	
    5ab0:	01 20       	jnz	$+4      	;abs 0x5ab4
    5ab2:	0f 43       	clr	r15		
    5ab4:	30 41       	ret			

00005ab6 <etimer_next_expiration_time>:
    5ab6:	82 93 18 13 	tst	&0x1318	
    5aba:	05 24       	jz	$+12     	;abs 0x5ac6
    5abc:	1e 42 1a 13 	mov	&0x131a,r14	
    5ac0:	1f 42 1c 13 	mov	&0x131c,r15	
    5ac4:	30 41       	ret			
    5ac6:	0e 43       	clr	r14		
    5ac8:	0f 43       	clr	r15		
    5aca:	30 41       	ret			

00005acc <etimer_stop>:
    5acc:	0b 12       	push	r11		
    5ace:	0b 4f       	mov	r15,	r11	
    5ad0:	1f 42 18 13 	mov	&0x1318,r15	
    5ad4:	0b 9f       	cmp	r15,	r11	
    5ad6:	05 20       	jnz	$+12     	;abs 0x5ae2
    5ad8:	92 4b 08 00 	mov	8(r11),	&0x1318	;0x0008(r11)
    5adc:	18 13 
    5ade:	10 3c       	jmp	$+34     	;abs 0x5b00
    5ae0:	0f 4e       	mov	r14,	r15	
    5ae2:	0f 93       	tst	r15		
    5ae4:	05 24       	jz	$+12     	;abs 0x5af0
    5ae6:	1e 4f 08 00 	mov	8(r15),	r14	;0x0008(r15)
    5aea:	0e 9b       	cmp	r11,	r14	
    5aec:	f9 23       	jnz	$-12     	;abs 0x5ae0
    5aee:	05 3c       	jmp	$+12     	;abs 0x5afa
    5af0:	8b 43 08 00 	mov	#0,	8(r11)	;r3 As==00, 0x0008(r11)
    5af4:	8b 43 0a 00 	mov	#0,	10(r11)	;r3 As==00, 0x000a(r11)
    5af8:	06 3c       	jmp	$+14     	;abs 0x5b06
    5afa:	9f 4b 08 00 	mov	8(r11),	8(r15)	;0x0008(r11), 0x0008(r15)
    5afe:	08 00 
--
00006746 <process_thread_nullnet_example_process>:
    6746:	0b 12       	push	r11		
    6748:	0b 4f       	mov	r15,	r11	
    674a:	2f 4f       	mov	@r15,	r15	
    674c:	0f 93       	tst	r15		
    674e:	04 24       	jz	$+10     	;abs 0x6758
    6750:	3f 90 04 01 	cmp	#260,	r15	;#0x0104
    6754:	48 20       	jnz	$+146    	;abs 0x67e6
    6756:	4e 3c       	jmp	$+158    	;abs 0x67f4
    6758:	92 42 18 14 	mov	&0x1418,&0x141a	
    675c:	1a 14 
    675e:	b2 40 1a 14 	mov	#5146,	&0x1cf6	;#0x141a
    6762:	f6 1c 
    6764:	a2 43 f8 1c 	mov	#2,	&0x1cf8	;r3 As==10
    6768:	3f 40 00 68 	mov	#26624,	r15	;#0x6800
    676c:	b0 12 f2 68 	call	#0x68f2	
    6770:	3d 40 80 00 	mov	#128,	r13	;#0x0080
    6774:	0e 43       	clr	r14		
    6776:	3f 40 1c 14 	mov	#5148,	r15	;#0x141c
    677a:	b0 12 86 5a 	call	#0x5a86	
    677e:	bb 40 04 01 	mov	#260,	0(r11)	;#0x0104, 0x0000(r11)

----------------------------------------
FILE: extra-firmwares/nullnet-unicast.sky
extra-firmwares/nullnet-unicast.sky: ELF 32-bit LSB executable, TI msp430, version 1 (embedded), statically linked, with debug_info, not stripped

[Contiki process / protothread symbols]
0000ae94 R autostart_processes
0000420c T autostart_start
000074a8 t call_process
00001100 D cc2420_process
00001128 D ctimer_process
0000557e T ctimer_set_with_process
00001132 D etimer_process
000074ee t exit_process
         U gpio_hal_arch_port_interrupt_enable
00001192 D nullnet_example_process
000075b4 T process_alloc_event
000025e6 B process_current
000075c2 T process_init
000025e8 B process_list
0000766c T process_nevents
00007704 T process_poll
0000767a T process_post
000076bc T process_post_synch
000075da T process_run
000076ce T process_start
000048ec t process_thread_cc2420_process
000054be t process_thread_ctimer_process
0000582a t process_thread_etimer_process
00006672 t process_thread_nullnet_example_process
000078f4 t process_thread_sensors_process
000079e0 t process_thread_serial_line_process
00007b94 t process_thread_stack_check_process
00002228 D sensors_process
00002232 D serial_line_process
0000223c D stack_check_process

[Timer symbols]
00004f48 T clock_time
00005566 T ctimer_init
0000232a b ctimer_list_list
00001128 D ctimer_process
000055dc T ctimer_reset
000055cc T ctimer_set
0000557e T ctimer_set_with_process
0000560c T ctimer_stop
0000224a b debouncetimer
0000595a T etimer_expired
00005974 T etimer_next_expiration_time
00005968 T etimer_pending
00001132 D etimer_process
00005820 T etimer_request_poll
00005948 T etimer_reset
00005936 T etimer_set
0000598a T etimer_stop
00002c1e b next_rtimer
000054be t process_thread_ctimer_process
0000582a t process_thread_etimer_process
000078a6 T rtimer_arch_init
000078b4 T rtimer_arch_now
000078c2 T rtimer_arch_schedule
000078c8 T rtimer_init
000078ce T rtimer_run_next
00007c9a T timer_expired
00007cc4 T timer_reset
00007c7e T timer_set

[NETSTACK / packetbuf / uIP callback symbols]
000053c4 T csma_output_init
0000526c T csma_output_packet
00002346 B curr_log_level_rpl
00002344 B curr_log_level_tcpip
00002556 b current_callback
         U gpio_hal_arch_port_pin_set_input
00007102 t input
00006856 T input_callback
0000543e t input_packet
0000717e t link_callback
00006210 T linkaddr_cmp
00006208 T linkaddr_copy
00002dea B linkaddr_node_addr
0000abc6 R linkaddr_null
00006222 T linkaddr_set_node_addr
0000643e T mac_call_sent_callback
00006650 T netstack_init
00007142 T nullnet_set_input_callback
000070c0 t output
0000ab8e r output_power
00007334 T packetbuf_addr
00002e22 B packetbuf_addrs
0000255e b packetbuf_aligned
00007312 T packetbuf_attr
00007258 T packetbuf_attr_clear
000072e2 T packetbuf_attr_copyfrom
000072c0 T packetbuf_attr_copyto
00002e32 B packetbuf_attrs
00007280 T packetbuf_clear
00007292 T packetbuf_copyfrom
000071ca T packetbuf_copyto
000071ae T packetbuf_datalen
000071be T packetbuf_dataptr
0000721c T packetbuf_hdralloc
000071b4 T packetbuf_hdrlen
000071a8 T packetbuf_hdrptr
00007188 T packetbuf_hdrreduce
00007346 T packetbuf_holds_broadcast
0000731c T packetbuf_set_addr
00007306 T packetbuf_set_attr
000071a2 T packetbuf_set_datalen
00007210 T packetbuf_totlen
00007792 T queuebuf_free
0000771c T queuebuf_init
0000772e T queuebuf_new_from_packetbuf
000077bc T queuebuf_to_packetbuf
00007780 T queuebuf_update_attr_from_packetbuf
00007a84 T serial_line_input_byte
         U slip_input_byte
00002d54 b uart1_input_handler
00007d42 T uart1_set_input
         U uip_aligned_buf

[Contiki behavior strings]
tcpip
Starting Contiki-NG-release/v4.8-625-g8518cbaff-dirty
Ctimer process
Event timer

[Disassembly samples around process/network functions]
000048ec <process_thread_cc2420_process>:
    48ec:	0b 12       	push	r11		
    48ee:	0b 4f       	mov	r15,	r11	
    48f0:	2f 4f       	mov	@r15,	r15	
    48f2:	0f 93       	tst	r15		
    48f4:	04 24       	jz	$+10     	;abs 0x48fe
    48f6:	3f 90 81 03 	cmp	#897,	r15	;#0x0381
    48fa:	15 20       	jnz	$+44     	;abs 0x4926
    48fc:	1b 3c       	jmp	$+56     	;abs 0x4934
    48fe:	bb 40 81 03 	mov	#897,	0(r11)	;#0x0381, 0x0000(r11)
    4902:	00 00 
    4904:	15 3c       	jmp	$+44     	;abs 0x4930
    4906:	7e 90 82 ff 	cmp.b	#-126,	r14	;#0xff82
    490a:	12 20       	jnz	$+38     	;abs 0x4930
    490c:	b0 12 80 72 	call	#0x7280	
    4910:	b0 12 be 71 	call	#0x71be	
    4914:	3e 40 80 00 	mov	#128,	r14	;#0x0080
    4918:	b0 12 2e 48 	call	#0x482e	
    491c:	b0 12 a2 71 	call	#0x71a2	
    4920:	92 12 b8 ab 	call	&0xabb8	
    4924:	ec 3f       	jmp	$-38     	;abs 0x48fe
--
000054be <process_thread_ctimer_process>:
    54be:	0b 12       	push	r11		
    54c0:	0a 12       	push	r10		
    54c2:	09 12       	push	r9		
    54c4:	0a 4f       	mov	r15,	r10	
    54c6:	09 4d       	mov	r13,	r9	
    54c8:	2f 4f       	mov	@r15,	r15	
    54ca:	0f 93       	tst	r15		
    54cc:	04 24       	jz	$+10     	;abs 0x54d6
    54ce:	3f 90 4a 00 	cmp	#74,	r15	;#0x004a
    54d2:	3a 20       	jnz	$+118    	;abs 0x5548
    54d4:	40 3c       	jmp	$+130    	;abs 0x5556
    54d6:	3f 40 2a 23 	mov	#9002,	r15	;#0x232a
    54da:	b0 12 34 62 	call	#0x6234	
    54de:	0b 4f       	mov	r15,	r11	
    54e0:	09 3c       	jmp	$+20     	;abs 0x54f4
    54e2:	1d 4b 06 00 	mov	6(r11),	r13	;0x0006(r11)
    54e6:	1e 4b 08 00 	mov	8(r11),	r14	;0x0008(r11)
    54ea:	0f 4b       	mov	r11,	r15	
    54ec:	2f 53       	incd	r15		
    54ee:	b0 12 36 59 	call	#0x5936	
--
00005566 <ctimer_init>:
    5566:	c2 43 28 23 	mov.b	#0,	&0x2328	;r3 As==00
    556a:	3f 40 2a 23 	mov	#9002,	r15	;#0x232a
    556e:	b0 12 2e 62 	call	#0x622e	
    5572:	0e 43       	clr	r14		
    5574:	3f 40 28 11 	mov	#4392,	r15	;#0x1128
    5578:	b0 12 ce 76 	call	#0x76ce	
    557c:	30 41       	ret			

0000557e <ctimer_set_with_process>:
    557e:	0b 12       	push	r11		
    5580:	0a 12       	push	r10		
    5582:	09 12       	push	r9		
    5584:	09 4f       	mov	r15,	r9	
    5586:	9f 41 0a 00 	mov	10(r1),	14(r15)	;0x000a(r1), 0x000e(r15)
    558a:	0e 00 
    558c:	8f 4c 10 00 	mov	r12,	16(r15)	;0x0010(r15)
    5590:	9f 41 08 00 	mov	8(r1),	18(r15)	;0x0008(r1), 0x0012(r15)
    5594:	12 00 
    5596:	c2 93 28 23 	tst.b	&0x2328	
    559a:	0b 24       	jz	$+24     	;abs 0x55b2
    559c:	1b 42 e6 25 	mov	&0x25e6,r11	
    55a0:	b2 40 28 11 	mov	#4392,	&0x25e6	;#0x1128
    55a4:	e6 25 
    55a6:	2f 53       	incd	r15		
    55a8:	b0 12 36 59 	call	#0x5936	
    55ac:	82 4b e6 25 	mov	r11,	&0x25e6	
    55b0:	04 3c       	jmp	$+10     	;abs 0x55ba
    55b2:	89 4d 06 00 	mov	r13,	6(r9)	;0x0006(r9)
    55b6:	89 4e 08 00 	mov	r14,	8(r9)	;0x0008(r9)
--
000055cc <ctimer_set>:
    55cc:	12 12 e6 25 	push	&0x25e6	
    55d0:	11 12 06 00 	push	6(r1)		;0x0006(r1)
    55d4:	b0 12 7e 55 	call	#0x557e	
    55d8:	21 52       	add	#4,	r1	;r2 As==10
    55da:	30 41       	ret			

000055dc <ctimer_reset>:
    55dc:	0b 12       	push	r11		
    55de:	0a 12       	push	r10		
    55e0:	0b 4f       	mov	r15,	r11	
    55e2:	c2 93 28 23 	tst.b	&0x2328	
    55e6:	0a 24       	jz	$+22     	;abs 0x55fc
    55e8:	1a 42 e6 25 	mov	&0x25e6,r10	
    55ec:	b2 40 28 11 	mov	#4392,	&0x25e6	;#0x1128
    55f0:	e6 25 
    55f2:	2f 53       	incd	r15		
    55f4:	b0 12 48 59 	call	#0x5948	
    55f8:	82 4a e6 25 	mov	r10,	&0x25e6	
    55fc:	0e 4b       	mov	r11,	r14	
    55fe:	3f 40 2a 23 	mov	#9002,	r15	;#0x232a
    5602:	b0 12 7e 62 	call	#0x627e	
    5606:	3a 41       	pop	r10		
    5608:	3b 41       	pop	r11		
    560a:	30 41       	ret			

0000560c <ctimer_stop>:
    560c:	0b 12       	push	r11		
    560e:	0b 4f       	mov	r15,	r11	
    5610:	c2 93 28 23 	tst.b	&0x2328	
    5614:	04 24       	jz	$+10     	;abs 0x561e
    5616:	2f 53       	incd	r15		
    5618:	b0 12 8a 59 	call	#0x598a	
    561c:	04 3c       	jmp	$+10     	;abs 0x5626
    561e:	8f 43 0a 00 	mov	#0,	10(r15)	;r3 As==00, 0x000a(r15)
    5622:	8f 43 0c 00 	mov	#0,	12(r15)	;r3 As==00, 0x000c(r15)
    5626:	0e 4b       	mov	r11,	r14	
    5628:	3f 40 2a 23 	mov	#9002,	r15	;#0x232a
    562c:	b0 12 4a 62 	call	#0x624a	
    5630:	3b 41       	pop	r11		
    5632:	30 41       	ret			

00005634 <owreadb>:
    5634:	0b 12       	push	r11		
    5636:	0a 12       	push	r10		
    5638:	3a 42       	mov	#8,	r10	;r2 As==11
    563a:	0b 43       	clr	r11		
--
00005820 <etimer_request_poll>:
    5820:	3f 40 32 11 	mov	#4402,	r15	;#0x1132
    5824:	b0 12 04 77 	call	#0x7704	
    5828:	30 41       	ret			

0000582a <process_thread_etimer_process>:
    582a:	0b 12       	push	r11		
    582c:	0a 12       	push	r10		
    582e:	09 12       	push	r9		
    5830:	0a 4f       	mov	r15,	r10	
    5832:	2f 4f       	mov	@r15,	r15	
    5834:	0f 93       	tst	r15		
    5836:	04 24       	jz	$+10     	;abs 0x5840
    5838:	3f 90 59 00 	cmp	#89,	r15	;#0x0059
    583c:	4d 20       	jnz	$+156    	;abs 0x58d8
    583e:	51 3c       	jmp	$+164    	;abs 0x58e2
    5840:	82 43 2c 23 	mov	#0,	&0x232c	;r3 As==00
    5844:	ba 40 59 00 	mov	#89,	0(r10)	;#0x0059, 0x0000(r10)
    5848:	00 00 
    584a:	5f 43       	mov.b	#1,	r15	;r3 As==01
    584c:	50 3c       	jmp	$+162    	;abs 0x58ee
    584e:	1e 4e 08 00 	mov	8(r14),	r14	;0x0008(r14)
    5852:	0e 93       	tst	r14		
    5854:	01 20       	jnz	$+4      	;abs 0x5858
    5856:	f4 3f       	jmp	$-22     	;abs 0x5840
    5858:	8e 9d 0a 00 	cmp	r13,	10(r14)	;0x000a(r14)
--
00005936 <etimer_set>:
    5936:	0b 12       	push	r11		
    5938:	0b 4f       	mov	r15,	r11	
    593a:	b0 12 7e 7c 	call	#0x7c7e	
    593e:	0f 4b       	mov	r11,	r15	
    5940:	b0 12 f6 58 	call	#0x58f6	
    5944:	3b 41       	pop	r11		
    5946:	30 41       	ret			

00005948 <etimer_reset>:
    5948:	0b 12       	push	r11		
    594a:	0b 4f       	mov	r15,	r11	
    594c:	b0 12 c4 7c 	call	#0x7cc4	
    5950:	0f 4b       	mov	r11,	r15	
    5952:	b0 12 f6 58 	call	#0x58f6	
    5956:	3b 41       	pop	r11		
    5958:	30 41       	ret			

0000595a <etimer_expired>:
    595a:	1e 43       	mov	#1,	r14	;r3 As==01
    595c:	8f 93 0a 00 	tst	10(r15)	;0x000a(r15)
    5960:	01 24       	jz	$+4      	;abs 0x5964
    5962:	0e 43       	clr	r14		
    5964:	0f 4e       	mov	r14,	r15	
    5966:	30 41       	ret			

00005968 <etimer_pending>:
    5968:	1f 43       	mov	#1,	r15	;r3 As==01
    596a:	82 93 2c 23 	tst	&0x232c	
    596e:	01 20       	jnz	$+4      	;abs 0x5972
    5970:	0f 43       	clr	r15		
    5972:	30 41       	ret			

00005974 <etimer_next_expiration_time>:
    5974:	82 93 2c 23 	tst	&0x232c	
    5978:	05 24       	jz	$+12     	;abs 0x5984
    597a:	1e 42 2e 23 	mov	&0x232e,r14	
    597e:	1f 42 30 23 	mov	&0x2330,r15	
    5982:	30 41       	ret			
    5984:	0e 43       	clr	r14		
    5986:	0f 43       	clr	r15		
    5988:	30 41       	ret			

0000598a <etimer_stop>:
    598a:	0b 12       	push	r11		
    598c:	0b 4f       	mov	r15,	r11	
    598e:	1f 42 2c 23 	mov	&0x232c,r15	
    5992:	0b 9f       	cmp	r15,	r11	
    5994:	05 20       	jnz	$+12     	;abs 0x59a0
    5996:	92 4b 08 00 	mov	8(r11),	&0x232c	;0x0008(r11)
    599a:	2c 23 
    599c:	10 3c       	jmp	$+34     	;abs 0x59be
    599e:	0f 4e       	mov	r14,	r15	
    59a0:	0f 93       	tst	r15		
    59a2:	05 24       	jz	$+12     	;abs 0x59ae
    59a4:	1e 4f 08 00 	mov	8(r15),	r14	;0x0008(r15)
    59a8:	0e 9b       	cmp	r11,	r14	
    59aa:	f9 23       	jnz	$-12     	;abs 0x599e
    59ac:	05 3c       	jmp	$+12     	;abs 0x59b8
    59ae:	8b 43 08 00 	mov	#0,	8(r11)	;r3 As==00, 0x0008(r11)
    59b2:	8b 43 0a 00 	mov	#0,	10(r11)	;r3 As==00, 0x000a(r11)
    59b6:	06 3c       	jmp	$+14     	;abs 0x59c4
    59b8:	9f 4b 08 00 	mov	8(r11),	8(r15)	;0x0008(r11), 0x0008(r15)
    59bc:	08 00 
--
00006650 <netstack_init>:
    6650:	92 12 64 ab 	call	&0xab64	
    6654:	92 12 b4 ab 	call	&0xabb4	
    6658:	92 12 d2 ae 	call	&0xaed2	
    665c:	30 41       	ret			

----------------------------------------
FILE: extra-firmwares/nullnet-unicast.z1
extra-firmwares/nullnet-unicast.z1: ELF 32-bit LSB executable, TI msp430, version 1 (embedded), statically linked, with debug_info, not stripped

[Contiki process / protothread symbols]
00001100 D accmeter_process
00009986 R autostart_processes
00003946 T autostart_start
0000654a t call_process
0000110c D cc2420_process
00001130 D ctimer_process
00004a40 T ctimer_set_with_process
0000113c D etimer_process
0000658a t exit_process
         U gpio_hal_arch_port_interrupt_enable
00001150 D nullnet_example_process
00006642 T process_alloc_event
00001e20 B process_current
00006650 T process_init
00001e22 B process_list
000024f8 B process_maxevents
000066f8 T process_nevents
00006798 T process_poll
00006706 T process_post
00006750 T process_post_synch
0000666c T process_run
00006762 T process_start
000037a8 t process_thread_accmeter_process
00003f40 t process_thread_cc2420_process
00004988 t process_thread_ctimer_process
00004b40 t process_thread_etimer_process
000059a0 t process_thread_nullnet_example_process
000068d8 t process_thread_sensors_process
00006a78 t process_thread_stack_check_process
00001a18 D sensors_process
00001a24 D stack_check_process

[Timer symbols]
0000442c T clock_time
00004a28 T ctimer_init
00001ba4 b ctimer_list_list
00001130 D ctimer_process
00004a8a T ctimer_set
00004a40 T ctimer_set_with_process
00004a9a T ctimer_stop
00001acc b debouncetimer
00004c68 T etimer_expired
00004c82 T etimer_next_expiration_time
00004c76 T etimer_pending
0000113c D etimer_process
00004b36 T etimer_request_poll
00004c56 T etimer_reset
00004c44 T etimer_set
00004c98 T etimer_stop
000023b4 b next_rtimer
00004988 t process_thread_ctimer_process
00004b40 t process_thread_etimer_process
0000688a T rtimer_arch_init
00006898 T rtimer_arch_now
000068a6 T rtimer_arch_schedule
000068ac T rtimer_init
000068b2 T rtimer_run_next
00001abc b suppressTimer1
00001ac4 b suppressTimer2
00006b66 T timer_expired
00006b90 T timer_reset
00006b4a T timer_set

[NETSTACK / packetbuf / uIP callback symbols]
0000488e T csma_output_init
00004746 T csma_output_packet
00001d90 b current_callback
         U gpio_hal_arch_port_pin_set_input
0000616e t input
00005b34 T input_callback
00004908 t input_packet
000061de t link_callback
0000557a T linkaddr_cmp
00005572 T linkaddr_copy
0000242a B linkaddr_node_addr
0000997e R linkaddr_null
0000558c T linkaddr_set_node_addr
00005780 T mac_call_sent_callback
00005932 T netstack_init
000061a2 T nullnet_set_input_callback
0000612c t output
00009948 r output_power
00006380 T packetbuf_addr
000024c8 B packetbuf_addrs
00001d98 b packetbuf_aligned
00006362 T packetbuf_attr
000062ac T packetbuf_attr_clear
00006332 T packetbuf_attr_copyfrom
00006310 T packetbuf_attr_copyto
000024d8 B packetbuf_attrs
000062d4 T packetbuf_clear
000062e6 T packetbuf_copyfrom
0000622a T packetbuf_copyto
0000620e T packetbuf_datalen
0000621e T packetbuf_dataptr
00006270 T packetbuf_hdralloc
00006214 T packetbuf_hdrlen
00006208 T packetbuf_hdrptr
000061e8 T packetbuf_hdrreduce
0000638e T packetbuf_holds_broadcast
0000636c T packetbuf_set_addr
00006356 T packetbuf_set_attr
00006202 T packetbuf_set_datalen
00006264 T packetbuf_totlen
00006822 T queuebuf_free
000067b0 T queuebuf_init
000067c2 T queuebuf_new_from_packetbuf
0000684c T queuebuf_to_packetbuf
00006810 T queuebuf_update_attr_from_packetbuf
         U slip_input_byte
000023c8 b uart0_input_handler
         U uip_aligned_buf

[Contiki behavior strings]
Accelerometer process
Starting Contiki-NG-release/v4.8-625-g8518cbaff-dirty
Ctimer process
Event timer

[Disassembly samples around process/network functions]
000037a8 <process_thread_accmeter_process>:
    37a8:	0b 14       	pushm.a	#1,	r11	
    37aa:	0b 4f       	mov	r15,	r11	
    37ac:	7e 90 82 ff 	cmp.b	#-126,	r14	;#0xff82
    37b0:	13 20       	jnz	$+40     	;abs 0x37d8
    37b2:	7f 40 30 00 	mov.b	#48,	r15	;#0x0030
    37b6:	b0 13 54 37 	calla	#0x03754	
    37ba:	4e 4f       	mov.b	r15,	r14	
    37bc:	1e b2 b8 1a 	bit	&0x1ab8,r14	
    37c0:	03 24       	jz	$+8      	;abs 0x37c8
    37c2:	2e 00 0c 24 	mova	&0x0240c,r14	
    37c6:	05 3c       	jmp	$+12     	;abs 0x37d2
    37c8:	1e b2 ba 1a 	bit	&0x1aba,r14	
    37cc:	05 24       	jz	$+12     	;abs 0x37d8
    37ce:	2e 00 08 24 	mova	&0x02408,r14	
    37d2:	de 03       	tsta	r14		
    37d4:	01 24       	jz	$+4      	;abs 0x37d8
    37d6:	4e 13       	calla	r14		
    37d8:	2f 4b       	mov	@r11,	r15	
    37da:	0f 93       	tst	r15		
    37dc:	04 24       	jz	$+10     	;abs 0x37e6
--
00003f40 <process_thread_cc2420_process>:
    3f40:	0b 14       	pushm.a	#1,	r11	
    3f42:	0b 4f       	mov	r15,	r11	
    3f44:	2f 4f       	mov	@r15,	r15	
    3f46:	0f 93       	tst	r15		
    3f48:	04 24       	jz	$+10     	;abs 0x3f52
    3f4a:	3f 90 81 03 	cmp	#897,	r15	;#0x0381
    3f4e:	15 20       	jnz	$+44     	;abs 0x3f7a
    3f50:	1b 3c       	jmp	$+56     	;abs 0x3f88
    3f52:	bb 40 81 03 	mov	#897,	0(r11)	;#0x0381, 0x0000(r11)
    3f56:	00 00 
    3f58:	15 3c       	jmp	$+44     	;abs 0x3f84
    3f5a:	7e 90 82 ff 	cmp.b	#-126,	r14	;#0xff82
    3f5e:	12 20       	jnz	$+38     	;abs 0x3f84
    3f60:	b0 13 d4 62 	calla	#0x062d4	
    3f64:	b0 13 1e 62 	calla	#0x0621e	
    3f68:	3e 40 80 00 	mov	#128,	r14	;#0x0080
    3f6c:	b0 13 86 3e 	calla	#0x03e86	
    3f70:	b0 13 02 62 	calla	#0x06202	
    3f74:	80 13 62 99 	calla	&0x09962	
    3f78:	ec 3f       	jmp	$-38     	;abs 0x3f52
--
00004988 <process_thread_ctimer_process>:
    4988:	2b 14       	pushm.a	#3,	r11	
    498a:	0a 4f       	mov	r15,	r10	
    498c:	09 4d       	mov	r13,	r9	
    498e:	2f 4f       	mov	@r15,	r15	
    4990:	0f 93       	tst	r15		
    4992:	04 24       	jz	$+10     	;abs 0x499c
    4994:	3f 90 4a 00 	cmp	#74,	r15	;#0x004a
    4998:	3a 20       	jnz	$+118    	;abs 0x4a0e
    499a:	40 3c       	jmp	$+130    	;abs 0x4a1c
    499c:	3f 40 a4 1b 	mov	#7076,	r15	;#0x1ba4
    49a0:	b0 13 9e 55 	calla	#0x0559e	
    49a4:	0b 4f       	mov	r15,	r11	
    49a6:	09 3c       	jmp	$+20     	;abs 0x49ba
    49a8:	1d 4b 06 00 	mov	6(r11),	r13	;0x0006(r11)
    49ac:	1e 4b 08 00 	mov	8(r11),	r14	;0x0008(r11)
    49b0:	0f 4b       	mov	r11,	r15	
    49b2:	2f 53       	incd	r15		
    49b4:	b0 13 44 4c 	calla	#0x04c44	
    49b8:	2b 4b       	mov	@r11,	r11	
    49ba:	0b 93       	tst	r11		
--
00004a28 <ctimer_init>:
    4a28:	c2 43 eb 23 	mov.b	#0,	&0x23eb	;r3 As==00
    4a2c:	3f 40 a4 1b 	mov	#7076,	r15	;#0x1ba4
    4a30:	b0 13 98 55 	calla	#0x05598	
    4a34:	0e 43       	clr	r14		
    4a36:	3f 40 30 11 	mov	#4400,	r15	;#0x1130
    4a3a:	b0 13 62 67 	calla	#0x06762	
    4a3e:	10 01       	reta			

00004a40 <ctimer_set_with_process>:
    4a40:	2b 14       	pushm.a	#3,	r11	
    4a42:	09 4f       	mov	r15,	r9	
    4a44:	0a 4d       	mov	r13,	r10	
    4a46:	0b 4e       	mov	r14,	r11	
    4a48:	9f 41 12 00 	mov	18(r1),	14(r15)	;0x0012(r1), 0x000e(r15)
    4a4c:	0e 00 
    4a4e:	7f 0c 10 00 	mova	r12,	16(r15)	;0x0010(r15)
    4a52:	9f 41 10 00 	mov	16(r1),	20(r15)	;0x0010(r1), 0x0014(r15)
    4a56:	14 00 
    4a58:	c2 93 eb 23 	tst.b	&0x23eb	
    4a5c:	0b 24       	jz	$+24     	;abs 0x4a74
    4a5e:	1b 42 20 1e 	mov	&0x1e20,r11	
    4a62:	b2 40 30 11 	mov	#4400,	&0x1e20	;#0x1130
    4a66:	20 1e 
    4a68:	2f 53       	incd	r15		
    4a6a:	b0 13 44 4c 	calla	#0x04c44	
    4a6e:	82 4b 20 1e 	mov	r11,	&0x1e20	
    4a72:	04 3c       	jmp	$+10     	;abs 0x4a7c
    4a74:	89 4d 06 00 	mov	r13,	6(r9)	;0x0006(r9)
    4a78:	89 4e 08 00 	mov	r14,	8(r9)	;0x0008(r9)
--
00004a8a <ctimer_set>:
    4a8a:	12 12 20 1e 	push	&0x1e20	
    4a8e:	11 12 08 00 	push	8(r1)		;0x0008(r1)
    4a92:	b0 13 40 4a 	calla	#0x04a40	
    4a96:	21 52       	add	#4,	r1	;r2 As==10
    4a98:	10 01       	reta			

00004a9a <ctimer_stop>:
    4a9a:	0b 14       	pushm.a	#1,	r11	
    4a9c:	0b 4f       	mov	r15,	r11	
    4a9e:	c2 93 eb 23 	tst.b	&0x23eb	
    4aa2:	04 24       	jz	$+10     	;abs 0x4aac
    4aa4:	2f 53       	incd	r15		
    4aa6:	b0 13 98 4c 	calla	#0x04c98	
    4aaa:	04 3c       	jmp	$+10     	;abs 0x4ab4
    4aac:	8f 43 0a 00 	mov	#0,	10(r15)	;r3 As==00, 0x000a(r15)
    4ab0:	8f 43 0c 00 	mov	#0,	12(r15)	;r3 As==00, 0x000c(r15)
    4ab4:	0e 4b       	mov	r11,	r14	
    4ab6:	3f 40 a4 1b 	mov	#7076,	r15	;#0x1ba4
    4aba:	b0 13 b4 55 	calla	#0x055b4	
    4abe:	0b 16       	popm.a	#1,	r11	
    4ac0:	10 01       	reta			

00004ac2 <energest_init>:
    4ac2:	10 01       	reta			

00004ac4 <energest_flush>:
    4ac4:	10 01       	reta			
--
00004b36 <etimer_request_poll>:
    4b36:	3f 40 3c 11 	mov	#4412,	r15	;#0x113c
    4b3a:	b0 13 98 67 	calla	#0x06798	
    4b3e:	10 01       	reta			

00004b40 <process_thread_etimer_process>:
    4b40:	2b 14       	pushm.a	#3,	r11	
    4b42:	0a 4f       	mov	r15,	r10	
    4b44:	2f 4f       	mov	@r15,	r15	
    4b46:	0f 93       	tst	r15		
    4b48:	04 24       	jz	$+10     	;abs 0x4b52
    4b4a:	3f 90 59 00 	cmp	#89,	r15	;#0x0059
    4b4e:	4d 20       	jnz	$+156    	;abs 0x4bea
    4b50:	51 3c       	jmp	$+164    	;abs 0x4bf4
    4b52:	82 43 a6 1b 	mov	#0,	&0x1ba6	;r3 As==00
    4b56:	ba 40 59 00 	mov	#89,	0(r10)	;#0x0059, 0x0000(r10)
    4b5a:	00 00 
    4b5c:	5f 43       	mov.b	#1,	r15	;r3 As==01
    4b5e:	50 3c       	jmp	$+162    	;abs 0x4c00
    4b60:	1e 4e 08 00 	mov	8(r14),	r14	;0x0008(r14)
    4b64:	0e 93       	tst	r14		
    4b66:	01 20       	jnz	$+4      	;abs 0x4b6a
    4b68:	f4 3f       	jmp	$-22     	;abs 0x4b52
    4b6a:	8e 9d 0a 00 	cmp	r13,	10(r14)	;0x000a(r14)
    4b6e:	f8 27       	jz	$-14     	;abs 0x4b60
    4b70:	82 4e a6 1b 	mov	r14,	&0x1ba6	
--
00004c44 <etimer_set>:
    4c44:	0b 14       	pushm.a	#1,	r11	
    4c46:	0b 4f       	mov	r15,	r11	
    4c48:	b0 13 4a 6b 	calla	#0x06b4a	
    4c4c:	0f 4b       	mov	r11,	r15	
    4c4e:	b0 13 04 4c 	calla	#0x04c04	
    4c52:	0b 16       	popm.a	#1,	r11	
    4c54:	10 01       	reta			

00004c56 <etimer_reset>:
    4c56:	0b 14       	pushm.a	#1,	r11	
    4c58:	0b 4f       	mov	r15,	r11	
    4c5a:	b0 13 90 6b 	calla	#0x06b90	
    4c5e:	0f 4b       	mov	r11,	r15	
    4c60:	b0 13 04 4c 	calla	#0x04c04	
    4c64:	0b 16       	popm.a	#1,	r11	
    4c66:	10 01       	reta			

00004c68 <etimer_expired>:
    4c68:	1e 43       	mov	#1,	r14	;r3 As==01
    4c6a:	8f 93 0a 00 	tst	10(r15)	;0x000a(r15)
    4c6e:	01 24       	jz	$+4      	;abs 0x4c72
    4c70:	0e 43       	clr	r14		
    4c72:	0f 4e       	mov	r14,	r15	
    4c74:	10 01       	reta			

00004c76 <etimer_pending>:
    4c76:	1f 43       	mov	#1,	r15	;r3 As==01
    4c78:	82 93 a6 1b 	tst	&0x1ba6	
    4c7c:	01 20       	jnz	$+4      	;abs 0x4c80
    4c7e:	0f 43       	clr	r15		
    4c80:	10 01       	reta			

00004c82 <etimer_next_expiration_time>:
    4c82:	82 93 a6 1b 	tst	&0x1ba6	
    4c86:	05 24       	jz	$+12     	;abs 0x4c92
    4c88:	1e 42 a8 1b 	mov	&0x1ba8,r14	
    4c8c:	1f 42 aa 1b 	mov	&0x1baa,r15	
    4c90:	10 01       	reta			
    4c92:	0e 43       	clr	r14		
    4c94:	0f 43       	clr	r15		
    4c96:	10 01       	reta			

00004c98 <etimer_stop>:
    4c98:	0b 14       	pushm.a	#1,	r11	
    4c9a:	0b 4f       	mov	r15,	r11	
    4c9c:	1f 42 a6 1b 	mov	&0x1ba6,r15	
    4ca0:	0b 9f       	cmp	r15,	r11	
    4ca2:	05 20       	jnz	$+12     	;abs 0x4cae
    4ca4:	92 4b 08 00 	mov	8(r11),	&0x1ba6	;0x0008(r11)
    4ca8:	a6 1b 
    4caa:	10 3c       	jmp	$+34     	;abs 0x4ccc
    4cac:	0f 4e       	mov	r14,	r15	
    4cae:	0f 93       	tst	r15		
    4cb0:	05 24       	jz	$+12     	;abs 0x4cbc
    4cb2:	1e 4f 08 00 	mov	8(r15),	r14	;0x0008(r15)
    4cb6:	0e 9b       	cmp	r11,	r14	
    4cb8:	f9 23       	jnz	$-12     	;abs 0x4cac
    4cba:	05 3c       	jmp	$+12     	;abs 0x4cc6
    4cbc:	8b 43 08 00 	mov	#0,	8(r11)	;r3 As==00, 0x0008(r11)
    4cc0:	8b 43 0a 00 	mov	#0,	10(r11)	;r3 As==00, 0x000a(r11)
    4cc4:	06 3c       	jmp	$+14     	;abs 0x4cd2
    4cc6:	9f 4b 08 00 	mov	8(r11),	8(r15)	;0x0008(r11), 0x0008(r15)
    4cca:	08 00 
--
00005932 <netstack_init>:
    5932:	80 13 10 99 	calla	&0x09910	

----------------------------------------
FILE: extra-firmwares/nullnet-unicast_eleco.sky
extra-firmwares/nullnet-unicast_eleco.sky: ELF 32-bit LSB executable, TI msp430, version 1 (embedded), statically linked, with debug_info, not stripped

[Contiki process / protothread symbols]
0000839e R autostart_processes
0000420c T autostart_start
00006c1a t call_process
00001100 D cc2420_process
00001128 D ctimer_process
0000557e T ctimer_set_with_process
00001132 D etimer_process
00006c60 t exit_process
         U gpio_hal_arch_port_interrupt_enable
00001192 D nullnet_example_process
00006d26 T process_alloc_event
00002684 B process_current
00006d34 T process_init
00002686 B process_list
00006dde T process_nevents
00006e76 T process_poll
00006dec T process_post
00006e2e T process_post_synch
00006d4c T process_run
00006e40 T process_start
000048ec t process_thread_cc2420_process
000054be t process_thread_ctimer_process
0000582a t process_thread_etimer_process
00006672 t process_thread_nullnet_example_process
00007066 t process_thread_sensors_process
00007152 t process_thread_serial_line_process
00007306 t process_thread_stack_check_process
000022f0 D sensors_process
000022fa D serial_line_process
00002304 D stack_check_process

[Timer symbols]
00004f48 T clock_time
00005566 T ctimer_init
000023f2 b ctimer_list_list
00001128 D ctimer_process
000055dc T ctimer_reset
000055cc T ctimer_set
0000557e T ctimer_set_with_process
0000560c T ctimer_stop
00002312 b debouncetimer
0000595a T etimer_expired
00005974 T etimer_next_expiration_time
00005968 T etimer_pending
00001132 D etimer_process
00005820 T etimer_request_poll
00005948 T etimer_reset
00005936 T etimer_set
0000598a T etimer_stop
00002cbc b next_rtimer
000054be t process_thread_ctimer_process
0000582a t process_thread_etimer_process
00007018 T rtimer_arch_init
00007026 T rtimer_arch_now
00007034 T rtimer_arch_schedule
0000703a T rtimer_init
00007040 T rtimer_run_next
0000740c T timer_expired
00007436 T timer_reset
000073f0 T timer_set

[NETSTACK / packetbuf / uIP callback symbols]
000053c4 T csma_output_init
0000526c T csma_output_packet
0000240e B curr_log_level_rpl
0000240c B curr_log_level_tcpip
000025f4 b current_callback
         U gpio_hal_arch_port_pin_set_input
00006874 t input
00006798 T input_callback
0000543e t input_packet
000068f0 t link_callback
00006210 T linkaddr_cmp
00006208 T linkaddr_copy
00002e84 B linkaddr_node_addr
0000827e R linkaddr_null
00006222 T linkaddr_set_node_addr
0000643e T mac_call_sent_callback
00006650 T netstack_init
000068b4 T nullnet_set_input_callback
00006832 t output
00008246 r output_power
00006aa6 T packetbuf_addr
00002e92 B packetbuf_addrs
000025fc b packetbuf_aligned
00006a84 T packetbuf_attr
000069ca T packetbuf_attr_clear
00006a54 T packetbuf_attr_copyfrom
00006a32 T packetbuf_attr_copyto
00002ea2 B packetbuf_attrs
000069f2 T packetbuf_clear
00006a04 T packetbuf_copyfrom
0000693c T packetbuf_copyto
00006920 T packetbuf_datalen
00006930 T packetbuf_dataptr
0000698e T packetbuf_hdralloc
00006926 T packetbuf_hdrlen
0000691a T packetbuf_hdrptr
000068fa T packetbuf_hdrreduce
00006ab8 T packetbuf_holds_broadcast
00006a8e T packetbuf_set_addr
00006a78 T packetbuf_set_attr
00006914 T packetbuf_set_datalen
00006982 T packetbuf_totlen
00006f04 T queuebuf_free
00006e8e T queuebuf_init
00006ea0 T queuebuf_new_from_packetbuf
00006f2e T queuebuf_to_packetbuf
00006ef2 T queuebuf_update_attr_from_packetbuf
000071f6 T serial_line_input_byte
         U slip_input_byte
00002df2 b uart1_input_handler
000074b4 T uart1_set_input
         U uip_aligned_buf

[Contiki behavior strings]
tcpip
Starting Contiki-NG-release/v4.8-625-g8518cbaff-dirty
Ctimer process
Event timer

[Disassembly samples around process/network functions]
000048ec <process_thread_cc2420_process>:
    48ec:	0b 12       	push	r11		
    48ee:	0b 4f       	mov	r15,	r11	
    48f0:	2f 4f       	mov	@r15,	r15	
    48f2:	0f 93       	tst	r15		
    48f4:	04 24       	jz	$+10     	;abs 0x48fe
    48f6:	3f 90 81 03 	cmp	#897,	r15	;#0x0381
    48fa:	15 20       	jnz	$+44     	;abs 0x4926
    48fc:	1b 3c       	jmp	$+56     	;abs 0x4934
    48fe:	bb 40 81 03 	mov	#897,	0(r11)	;#0x0381, 0x0000(r11)
    4902:	00 00 
    4904:	15 3c       	jmp	$+44     	;abs 0x4930
    4906:	7e 90 82 ff 	cmp.b	#-126,	r14	;#0xff82
    490a:	12 20       	jnz	$+38     	;abs 0x4930
    490c:	b0 12 f2 69 	call	#0x69f2	
    4910:	b0 12 30 69 	call	#0x6930	
    4914:	3e 40 80 00 	mov	#128,	r14	;#0x0080
    4918:	b0 12 2e 48 	call	#0x482e	
    491c:	b0 12 14 69 	call	#0x6914	
    4920:	92 12 70 82 	call	&0x8270	
    4924:	ec 3f       	jmp	$-38     	;abs 0x48fe
--
000054be <process_thread_ctimer_process>:
    54be:	0b 12       	push	r11		
    54c0:	0a 12       	push	r10		
    54c2:	09 12       	push	r9		
    54c4:	0a 4f       	mov	r15,	r10	
    54c6:	09 4d       	mov	r13,	r9	
    54c8:	2f 4f       	mov	@r15,	r15	
    54ca:	0f 93       	tst	r15		
    54cc:	04 24       	jz	$+10     	;abs 0x54d6
    54ce:	3f 90 4a 00 	cmp	#74,	r15	;#0x004a
    54d2:	3a 20       	jnz	$+118    	;abs 0x5548
    54d4:	40 3c       	jmp	$+130    	;abs 0x5556
    54d6:	3f 40 f2 23 	mov	#9202,	r15	;#0x23f2
    54da:	b0 12 34 62 	call	#0x6234	
    54de:	0b 4f       	mov	r15,	r11	
    54e0:	09 3c       	jmp	$+20     	;abs 0x54f4
    54e2:	1d 4b 06 00 	mov	6(r11),	r13	;0x0006(r11)
    54e6:	1e 4b 08 00 	mov	8(r11),	r14	;0x0008(r11)
    54ea:	0f 4b       	mov	r11,	r15	
    54ec:	2f 53       	incd	r15		
    54ee:	b0 12 36 59 	call	#0x5936	
--
00005566 <ctimer_init>:
    5566:	c2 43 f0 23 	mov.b	#0,	&0x23f0	;r3 As==00
    556a:	3f 40 f2 23 	mov	#9202,	r15	;#0x23f2
    556e:	b0 12 2e 62 	call	#0x622e	
    5572:	0e 43       	clr	r14		
    5574:	3f 40 28 11 	mov	#4392,	r15	;#0x1128
    5578:	b0 12 40 6e 	call	#0x6e40	
    557c:	30 41       	ret			

0000557e <ctimer_set_with_process>:
    557e:	0b 12       	push	r11		
    5580:	0a 12       	push	r10		
    5582:	09 12       	push	r9		
    5584:	09 4f       	mov	r15,	r9	
    5586:	9f 41 0a 00 	mov	10(r1),	14(r15)	;0x000a(r1), 0x000e(r15)
    558a:	0e 00 
    558c:	8f 4c 10 00 	mov	r12,	16(r15)	;0x0010(r15)
    5590:	9f 41 08 00 	mov	8(r1),	18(r15)	;0x0008(r1), 0x0012(r15)
    5594:	12 00 
    5596:	c2 93 f0 23 	tst.b	&0x23f0	
    559a:	0b 24       	jz	$+24     	;abs 0x55b2
    559c:	1b 42 84 26 	mov	&0x2684,r11	
    55a0:	b2 40 28 11 	mov	#4392,	&0x2684	;#0x1128
    55a4:	84 26 
    55a6:	2f 53       	incd	r15		
    55a8:	b0 12 36 59 	call	#0x5936	
    55ac:	82 4b 84 26 	mov	r11,	&0x2684	
    55b0:	04 3c       	jmp	$+10     	;abs 0x55ba
    55b2:	89 4d 06 00 	mov	r13,	6(r9)	;0x0006(r9)
    55b6:	89 4e 08 00 	mov	r14,	8(r9)	;0x0008(r9)
--
000055cc <ctimer_set>:
    55cc:	12 12 84 26 	push	&0x2684	
    55d0:	11 12 06 00 	push	6(r1)		;0x0006(r1)
    55d4:	b0 12 7e 55 	call	#0x557e	
    55d8:	21 52       	add	#4,	r1	;r2 As==10
    55da:	30 41       	ret			

000055dc <ctimer_reset>:
    55dc:	0b 12       	push	r11		
    55de:	0a 12       	push	r10		
    55e0:	0b 4f       	mov	r15,	r11	
    55e2:	c2 93 f0 23 	tst.b	&0x23f0	
    55e6:	0a 24       	jz	$+22     	;abs 0x55fc
    55e8:	1a 42 84 26 	mov	&0x2684,r10	
    55ec:	b2 40 28 11 	mov	#4392,	&0x2684	;#0x1128
    55f0:	84 26 
    55f2:	2f 53       	incd	r15		
    55f4:	b0 12 48 59 	call	#0x5948	
    55f8:	82 4a 84 26 	mov	r10,	&0x2684	
    55fc:	0e 4b       	mov	r11,	r14	
    55fe:	3f 40 f2 23 	mov	#9202,	r15	;#0x23f2
    5602:	b0 12 7e 62 	call	#0x627e	
    5606:	3a 41       	pop	r10		
    5608:	3b 41       	pop	r11		
    560a:	30 41       	ret			

0000560c <ctimer_stop>:
    560c:	0b 12       	push	r11		
    560e:	0b 4f       	mov	r15,	r11	
    5610:	c2 93 f0 23 	tst.b	&0x23f0	
    5614:	04 24       	jz	$+10     	;abs 0x561e
    5616:	2f 53       	incd	r15		
    5618:	b0 12 8a 59 	call	#0x598a	
    561c:	04 3c       	jmp	$+10     	;abs 0x5626
    561e:	8f 43 0a 00 	mov	#0,	10(r15)	;r3 As==00, 0x000a(r15)
    5622:	8f 43 0c 00 	mov	#0,	12(r15)	;r3 As==00, 0x000c(r15)
    5626:	0e 4b       	mov	r11,	r14	
    5628:	3f 40 f2 23 	mov	#9202,	r15	;#0x23f2
    562c:	b0 12 4a 62 	call	#0x624a	
    5630:	3b 41       	pop	r11		
    5632:	30 41       	ret			

00005634 <owreadb>:
    5634:	0b 12       	push	r11		
    5636:	0a 12       	push	r10		
    5638:	3a 42       	mov	#8,	r10	;r2 As==11
    563a:	0b 43       	clr	r11		
--
00005820 <etimer_request_poll>:
    5820:	3f 40 32 11 	mov	#4402,	r15	;#0x1132
    5824:	b0 12 76 6e 	call	#0x6e76	
    5828:	30 41       	ret			

0000582a <process_thread_etimer_process>:
    582a:	0b 12       	push	r11		
    582c:	0a 12       	push	r10		
    582e:	09 12       	push	r9		
    5830:	0a 4f       	mov	r15,	r10	
    5832:	2f 4f       	mov	@r15,	r15	
    5834:	0f 93       	tst	r15		
    5836:	04 24       	jz	$+10     	;abs 0x5840
    5838:	3f 90 59 00 	cmp	#89,	r15	;#0x0059
    583c:	4d 20       	jnz	$+156    	;abs 0x58d8
    583e:	51 3c       	jmp	$+164    	;abs 0x58e2
    5840:	82 43 f4 23 	mov	#0,	&0x23f4	;r3 As==00
    5844:	ba 40 59 00 	mov	#89,	0(r10)	;#0x0059, 0x0000(r10)
    5848:	00 00 
    584a:	5f 43       	mov.b	#1,	r15	;r3 As==01
    584c:	50 3c       	jmp	$+162    	;abs 0x58ee
    584e:	1e 4e 08 00 	mov	8(r14),	r14	;0x0008(r14)
    5852:	0e 93       	tst	r14		
    5854:	01 20       	jnz	$+4      	;abs 0x5858
    5856:	f4 3f       	jmp	$-22     	;abs 0x5840
    5858:	8e 9d 0a 00 	cmp	r13,	10(r14)	;0x000a(r14)
--
00005936 <etimer_set>:
    5936:	0b 12       	push	r11		
    5938:	0b 4f       	mov	r15,	r11	
    593a:	b0 12 f0 73 	call	#0x73f0	
    593e:	0f 4b       	mov	r11,	r15	
    5940:	b0 12 f6 58 	call	#0x58f6	
    5944:	3b 41       	pop	r11		
    5946:	30 41       	ret			

00005948 <etimer_reset>:
    5948:	0b 12       	push	r11		
    594a:	0b 4f       	mov	r15,	r11	
    594c:	b0 12 36 74 	call	#0x7436	
    5950:	0f 4b       	mov	r11,	r15	
    5952:	b0 12 f6 58 	call	#0x58f6	
    5956:	3b 41       	pop	r11		
    5958:	30 41       	ret			

0000595a <etimer_expired>:
    595a:	1e 43       	mov	#1,	r14	;r3 As==01
    595c:	8f 93 0a 00 	tst	10(r15)	;0x000a(r15)
    5960:	01 24       	jz	$+4      	;abs 0x5964
    5962:	0e 43       	clr	r14		
    5964:	0f 4e       	mov	r14,	r15	
    5966:	30 41       	ret			

00005968 <etimer_pending>:
    5968:	1f 43       	mov	#1,	r15	;r3 As==01
    596a:	82 93 f4 23 	tst	&0x23f4	
    596e:	01 20       	jnz	$+4      	;abs 0x5972
    5970:	0f 43       	clr	r15		
    5972:	30 41       	ret			

00005974 <etimer_next_expiration_time>:
    5974:	82 93 f4 23 	tst	&0x23f4	
    5978:	05 24       	jz	$+12     	;abs 0x5984
    597a:	1e 42 f6 23 	mov	&0x23f6,r14	
    597e:	1f 42 f8 23 	mov	&0x23f8,r15	
    5982:	30 41       	ret			
    5984:	0e 43       	clr	r14		
    5986:	0f 43       	clr	r15		
    5988:	30 41       	ret			

0000598a <etimer_stop>:
    598a:	0b 12       	push	r11		
    598c:	0b 4f       	mov	r15,	r11	
    598e:	1f 42 f4 23 	mov	&0x23f4,r15	
    5992:	0b 9f       	cmp	r15,	r11	
    5994:	05 20       	jnz	$+12     	;abs 0x59a0
    5996:	92 4b 08 00 	mov	8(r11),	&0x23f4	;0x0008(r11)
    599a:	f4 23 
    599c:	10 3c       	jmp	$+34     	;abs 0x59be
    599e:	0f 4e       	mov	r14,	r15	
    59a0:	0f 93       	tst	r15		
    59a2:	05 24       	jz	$+12     	;abs 0x59ae
    59a4:	1e 4f 08 00 	mov	8(r15),	r14	;0x0008(r15)
    59a8:	0e 9b       	cmp	r11,	r14	
    59aa:	f9 23       	jnz	$-12     	;abs 0x599e
    59ac:	05 3c       	jmp	$+12     	;abs 0x59b8
    59ae:	8b 43 08 00 	mov	#0,	8(r11)	;r3 As==00, 0x0008(r11)
    59b2:	8b 43 0a 00 	mov	#0,	10(r11)	;r3 As==00, 0x000a(r11)
    59b6:	06 3c       	jmp	$+14     	;abs 0x59c4
    59b8:	9f 4b 08 00 	mov	8(r11),	8(r15)	;0x0008(r11), 0x0008(r15)
    59bc:	08 00 
--
00006650 <netstack_init>:
    6650:	92 12 1c 82 	call	&0x821c	
    6654:	92 12 6c 82 	call	&0x826c	
    6658:	92 12 dc 83 	call	&0x83dc	
    665c:	30 41       	ret			

----------------------------------------
FILE: extra-firmwares/udp-client.sky
extra-firmwares/udp-client.sky: ELF 32-bit LSB executable, TI msp430, version 1 (embedded), statically linked, with debug_info, not stripped

[Contiki process / protothread symbols]
0000e76a R autostart_processes
00004280 T autostart_start
00007144 t call_process
00001100 D cc2420_process
00001124 D ctimer_process
000055c8 T ctimer_set_with_process
0000112e D etimer_process
0000718a t exit_process
0000cc5a t ext_hdr_options_process
         U gpio_hal_arch_port_interrupt_enable
000015b0 b ip_processor_list_list
000026a4 b nd6_opt_llao
000026a6 b nd6_opt_offset
00006de6 T netstack_process_ip_callback
00007252 T process_alloc_event
00002954 B process_current
0000761a t process_dio_init_dag
0000726a T process_init
00002952 B process_list
000072fe T process_nevents
00007392 T process_poll
00007308 T process_post
0000734a T process_post_synch
00007272 T process_run
0000735c T process_start
0000495a t process_thread_cc2420_process
0000551a t process_thread_ctimer_process
0000588a t process_thread_etimer_process
000098ca t process_thread_sensors_process
0000b150 t process_thread_simple_udp_process
0000b372 t process_thread_stack_check_process
0000b5b2 t process_thread_tcpip_process
0000b86e t process_thread_udp_client_process
00007b7a T rpl_process_dao
00007be6 T rpl_process_dao_ack
0000799a T rpl_process_dio
00007b50 T rpl_process_dis
00007c3a T rpl_process_hbh
000011ea D sensors_process
000011f4 D simple_udp_process
000011fe D stack_check_process
00001208 D tcpip_process
00001212 D udp_client_process
0000ce9a T uip_process

[Timer symbols]
00005000 T clock_seconds
00004fb2 T clock_time
0000566e T ctimer_expired
000055b4 T ctimer_init
0000132a b ctimer_list_list
00001124 D ctimer_process
00005616 T ctimer_reset
0000904c t ctimer_set.constprop.3
000055c8 T ctimer_set_with_process
00005646 T ctimer_stop
0000124a b debouncetimer
000059c6 T etimer_next_expiration_time
000059ba T etimer_pending
0000112e D etimer_process
00005880 T etimer_request_poll
000059a8 T etimer_reset
00005996 T etimer_set
000059dc T etimer_stop
00001d30 b next_rtimer
0000551a t process_thread_ctimer_process
0000588a t process_thread_etimer_process
00009896 T rtimer_arch_init
000098a4 T rtimer_arch_now
000098b2 T rtimer_run_next
0000b402 T stimer_expired
0000b6ae T timer_expired
0000b6d8 T timer_reset
0000b692 T timer_set

[NETSTACK / packetbuf / uIP callback symbols]
00001332 b _link_stats_mem
00001c88 b _rpl_neighbors_mem
00001d38 b callback
00005428 T csma_output_init
000052e2 T csma_output_packet
000013e8 B curr_log_level_rpl
000013e6 B curr_log_level_tcpip
000083ba t dao_ack_input
000083ea t dao_input
00008556 t dio_input
00008810 t dis_input
000026a2 b echo_reply_callback_list_list
0000c304 t echo_reply_input
0000c362 t echo_request_input
         U gpio_hal_arch_port_pin_set_input
0000a736 t input
00002690 b input_handler_list_list
000054a2 t input_packet
0000626c T link_stats_from_lladdr
000064cc T link_stats_init
0000639c T link_stats_input_callback
00006278 T link_stats_is_fresh
000062a8 T link_stats_packet_sent
000064a2 T link_stats_reset
0000113a d link_stats_struct
000064fa T linkaddr_cmp
000064f2 T linkaddr_copy
00002920 B linkaddr_node_addr
0000e4e0 R linkaddr_null
00006de6 T netstack_process_ip_callback
0000c60e t ns_input
00001238 d ns_input_handler
00009f98 t output
0000e4b6 r output_power
0000b5a0 t packet_input.part.3
00006fd6 T packetbuf_addr
0000292a B packetbuf_addrs
000015ba b packetbuf_aligned
00006fb6 T packetbuf_attr
00006efe T packetbuf_attr_clear
00006f88 T packetbuf_attr_copyfrom
00006f66 T packetbuf_attr_copyto
0000293a B packetbuf_attrs
00006f26 T packetbuf_clear
00006f38 T packetbuf_copyfrom
00006e70 T packetbuf_copyto
00006e54 T packetbuf_datalen
00006e64 T packetbuf_dataptr
00001d45 b packetbuf_hdr_len
00006ec2 T packetbuf_hdralloc
00006e5a T packetbuf_hdrlen
00006e4e T packetbuf_hdrptr
00006e2e T packetbuf_hdrreduce
00006fe8 T packetbuf_holds_broadcast
00001d50 b packetbuf_payload_len
00001d46 b packetbuf_ptr
00006fc0 T packetbuf_set_addr
00006fac T packetbuf_set_attr
00006e48 T packetbuf_set_datalen
00006eb6 T packetbuf_totlen
0000b150 t process_thread_simple_udp_process
0000b5b2 t process_thread_tcpip_process
0000742a T queuebuf_free
000073aa T queuebuf_init
000073c6 T queuebuf_new_from_packetbuf
000073bc T queuebuf_numfree
00007454 T queuebuf_to_packetbuf
00007418 T queuebuf_update_attr_from_packetbuf
000076ca T rpl_dag_get_root_ipaddr
00007d24 T rpl_dag_init
00007c68 T rpl_dag_init_root
000076e8 T rpl_dag_leave
0000773e T rpl_dag_periodic
00007732 T rpl_dag_poison_and_leave
00007834 T rpl_dag_ready_to_advertise
00007582 T rpl_dag_root_is_root
00007492 T rpl_dag_root_set_prefix
000074f4 T rpl_dag_root_start
00007856 T rpl_dag_update_state
00007f1a T rpl_ext_header_hbh_update
00007fb6 T rpl_ext_header_remove
00007d7e T rpl_ext_header_srh_get_next_hop
00007e02 T rpl_ext_header_srh_update
00008082 T rpl_ext_header_update
000096f6 T rpl_get_global_address
000095e8 T rpl_get_leaf_only
00007806 T rpl_global_repair
000095c0 T rpl_has_joined
00008baa T rpl_icmp6_dao_ack_output
00008ac8 T rpl_icmp6_dao_output
00008898 T rpl_icmp6_dio_output
00008864 T rpl_icmp6_dis_output
00008bf8 T rpl_icmp6_init
0000882e T rpl_icmp6_update_nbr_table
000077a8 T rpl_is_addr_in_our_dag
000095d2 T rpl_is_reachable
0000280e b rpl_leaf_only
0000969c T rpl_link_callback
0000e68c R rpl_lite_driver
000077dc T rpl_local_repair
000096ba T rpl_lollipop_greater_than
000011ce D rpl_mrhof
00002a54 B rpl_multicast_addr
00008dda T rpl_nbr_gc_get_worst
00008fa0 T rpl_neighbor_get_from_ipaddr
00008e26 T rpl_neighbor_get_from_lladdr
00008e56 T rpl_neighbor_get_ipaddr
00008e60 T rpl_neighbor_get_link_stats
00008e4a T rpl_neighbor_get_lladdr
00009008 T rpl_neighbor_init
00008e6a T rpl_neighbor_is_fresh
00008e32 T rpl_neighbor_rank_via_nbr
00008f70 T rpl_neighbor_remove_all
00008fb4 T rpl_neighbor_select_best
00008f28 T rpl_neighbor_set_preferred_parent
000011e0 D rpl_neighbors
000011e2 d rpl_neighbors_struct
00007b7a T rpl_process_dao
00007be6 T rpl_process_dao_ack
0000799a T rpl_process_dio
00007b50 T rpl_process_dis
00007c3a T rpl_process_hbh
000097b4 T rpl_reset_prefix
0000949c T rpl_schedule_probing
000094e2 T rpl_schedule_probing_now
000097d8 T rpl_set_prefix_from_addr
00009262 T rpl_timers_dio_reset
00009544 T rpl_timers_init
00009314 T rpl_timers_notify_dao_ack
000092ac T rpl_timers_schedule_dao
000092e4 T rpl_timers_schedule_dao_ack
0000951e T rpl_timers_schedule_leaving
000091c6 T rpl_timers_schedule_periodic_dis
000095a8 T rpl_timers_schedule_state_update
00009290 T rpl_timers_schedule_unicast_dio
0000955c T rpl_timers_stop_dag_timers
00009502 T rpl_timers_unschedule_leaving
0000e6c2 R sicslowpan_driver
00009a0c T sicslowpan_init
000011f4 D simple_udp_process
0000b234 T simple_udp_register
0000b208 T simple_udp_sendto
00002db7 B tcpip_event
0000b46e T tcpip_input
0000b48c T tcpip_ipv6_output
0000b432 T tcpip_output
00001208 D tcpip_process
0000b668 T tcpip_uipcall
00002434 b uart1_input_handler
0000b828 t udp_rx_callback
00002be2 B uip_aligned_buf
00002cd6 B uip_appdata
0000ccfe t uip_check_mtu
00002cd8 B uip_conn
0000bebc T uip_ds6_addr_add
0000be12 T uip_ds6_addr_lookup
0000bfb6 T uip_ds6_addr_rm
00002b75 B uip_ds6_addr_size
0000c162 T uip_ds6_compute_reachable_time
0000bcb4 T uip_ds6_default_prefix
0000bbe0 T uip_ds6_defrt_add
0000bc58 T uip_ds6_defrt_choose
0000bbac T uip_ds6_defrt_lookup
0000bc86 T uip_ds6_defrt_periodic
0000bb80 T uip_ds6_defrt_rm
0000be3c T uip_ds6_get_link_local
00002a6c B uip_ds6_if
0000c1a0 T uip_ds6_init
0000bdc0 T uip_ds6_is_addr_onlink
0000bb66 T uip_ds6_link_callback
0000bcba T uip_ds6_list_loop
0000be7a T uip_ds6_maddr_add
0000bf8c T uip_ds6_maddr_lookup
0000bf82 T uip_ds6_maddr_rm
0000ba32 T uip_ds6_nbr_add
0000ba70 T uip_ds6_nbr_get_ll
0000ba7c T uip_ds6_nbr_head
0000bb4e T uip_ds6_nbr_ipaddr_from_lladdr
0000bacc T uip_ds6_nbr_ll_lookup
0000bb54 T uip_ds6_nbr_lladdr_from_ipaddr

[Contiki behavior strings]
tcpip
RPL Lite
UDP client
Starting Contiki-NG-develop/v4.9-639-g6ac4608cd
Ctimer process
Event timer
Simple UDP process

[Disassembly samples around process/network functions]
0000495a <process_thread_cc2420_process>:
    495a:	0b 12       	push	r11		
    495c:	0b 4f       	mov	r15,	r11	
    495e:	2f 4f       	mov	@r15,	r15	
    4960:	0f 93       	tst	r15		
    4962:	04 24       	jz	$+10     	;abs 0x496c
    4964:	3f 90 81 03 	cmp	#897,	r15	;#0x0381
    4968:	15 20       	jnz	$+44     	;abs 0x4994
    496a:	1b 3c       	jmp	$+56     	;abs 0x49a2
    496c:	bb 40 81 03 	mov	#897,	0(r11)	;#0x0381, 0x0000(r11)
    4970:	00 00 
    4972:	15 3c       	jmp	$+44     	;abs 0x499e
    4974:	7e 90 82 ff 	cmp.b	#-126,	r14	;#0xff82
    4978:	12 20       	jnz	$+38     	;abs 0x499e
    497a:	b0 12 26 6f 	call	#0x6f26	
    497e:	b0 12 64 6e 	call	#0x6e64	
    4982:	3e 40 80 00 	mov	#128,	r14	;#0x0080
    4986:	b0 12 9c 48 	call	#0x489c	
    498a:	b0 12 48 6e 	call	#0x6e48	
    498e:	92 12 d2 e4 	call	&0xe4d2	
    4992:	ec 3f       	jmp	$-38     	;abs 0x496c
--
0000551a <process_thread_ctimer_process>:
    551a:	0b 12       	push	r11		
    551c:	0a 12       	push	r10		
    551e:	09 12       	push	r9		
    5520:	0a 4f       	mov	r15,	r10	
    5522:	2f 4f       	mov	@r15,	r15	
    5524:	0f 93       	tst	r15		
    5526:	04 24       	jz	$+10     	;abs 0x5530
    5528:	3f 90 45 00 	cmp	#69,	r15	;#0x0045
    552c:	34 20       	jnz	$+106    	;abs 0x5596
    552e:	3a 3c       	jmp	$+118    	;abs 0x55a4
    5530:	1b 42 2a 13 	mov	&0x132a,r11	
    5534:	09 3c       	jmp	$+20     	;abs 0x5548
    5536:	1d 4b 06 00 	mov	6(r11),	r13	;0x0006(r11)
    553a:	1e 4b 08 00 	mov	8(r11),	r14	;0x0008(r11)
    553e:	0f 4b       	mov	r11,	r15	
    5540:	2f 53       	incd	r15		
    5542:	b0 12 96 59 	call	#0x5996	
    5546:	2b 4b       	mov	@r11,	r11	
    5548:	0b 93       	tst	r11		
    554a:	f5 23       	jnz	$-20     	;abs 0x5536
--
000055b4 <ctimer_init>:
    55b4:	c2 43 28 13 	mov.b	#0,	&0x1328	;r3 As==00
    55b8:	82 43 2a 13 	mov	#0,	&0x132a	;r3 As==00
    55bc:	0e 43       	clr	r14		
    55be:	3f 40 24 11 	mov	#4388,	r15	;#0x1124
    55c2:	b0 12 5c 73 	call	#0x735c	
    55c6:	30 41       	ret			

000055c8 <ctimer_set_with_process>:
    55c8:	0b 12       	push	r11		
    55ca:	0a 12       	push	r10		
    55cc:	09 12       	push	r9		
    55ce:	09 4f       	mov	r15,	r9	
    55d0:	9f 41 0a 00 	mov	10(r1),	14(r15)	;0x000a(r1), 0x000e(r15)
    55d4:	0e 00 
    55d6:	8f 4c 10 00 	mov	r12,	16(r15)	;0x0010(r15)
    55da:	9f 41 08 00 	mov	8(r1),	18(r15)	;0x0008(r1), 0x0012(r15)
    55de:	12 00 
    55e0:	c2 93 28 13 	tst.b	&0x1328	
    55e4:	0b 24       	jz	$+24     	;abs 0x55fc
    55e6:	1b 42 54 29 	mov	&0x2954,r11	
    55ea:	b2 40 24 11 	mov	#4388,	&0x2954	;#0x1124
    55ee:	54 29 
    55f0:	2f 53       	incd	r15		
    55f2:	b0 12 96 59 	call	#0x5996	
    55f6:	82 4b 54 29 	mov	r11,	&0x2954	
    55fa:	04 3c       	jmp	$+10     	;abs 0x5604
    55fc:	89 4d 06 00 	mov	r13,	6(r9)	;0x0006(r9)
    5600:	89 4e 08 00 	mov	r14,	8(r9)	;0x0008(r9)
--
00005616 <ctimer_reset>:
    5616:	0b 12       	push	r11		
    5618:	0a 12       	push	r10		
    561a:	0b 4f       	mov	r15,	r11	
    561c:	c2 93 28 13 	tst.b	&0x1328	
    5620:	0a 24       	jz	$+22     	;abs 0x5636
    5622:	1a 42 54 29 	mov	&0x2954,r10	
    5626:	b2 40 24 11 	mov	#4388,	&0x2954	;#0x1124
    562a:	54 29 
    562c:	2f 53       	incd	r15		
    562e:	b0 12 a8 59 	call	#0x59a8	
    5632:	82 4a 54 29 	mov	r10,	&0x2954	
    5636:	0e 4b       	mov	r11,	r14	
    5638:	3f 40 2a 13 	mov	#4906,	r15	;#0x132a
    563c:	b0 12 6c 65 	call	#0x656c	
    5640:	3a 41       	pop	r10		
    5642:	3b 41       	pop	r11		
    5644:	30 41       	ret			

00005646 <ctimer_stop>:
    5646:	0b 12       	push	r11		
    5648:	0b 4f       	mov	r15,	r11	
    564a:	c2 93 28 13 	tst.b	&0x1328	
    564e:	04 24       	jz	$+10     	;abs 0x5658
    5650:	2f 53       	incd	r15		
    5652:	b0 12 dc 59 	call	#0x59dc	
    5656:	04 3c       	jmp	$+10     	;abs 0x5660
    5658:	8f 43 0a 00 	mov	#0,	10(r15)	;r3 As==00, 0x000a(r15)
    565c:	8f 43 0c 00 	mov	#0,	12(r15)	;r3 As==00, 0x000c(r15)
    5660:	0e 4b       	mov	r11,	r14	
    5662:	3f 40 2a 13 	mov	#4906,	r15	;#0x132a
    5666:	b0 12 1e 65 	call	#0x651e	
    566a:	3b 41       	pop	r11		
    566c:	30 41       	ret			

0000566e <ctimer_expired>:
    566e:	0d 4f       	mov	r15,	r13	
    5670:	c2 93 28 13 	tst.b	&0x1328	
    5674:	05 24       	jz	$+12     	;abs 0x5680
    5676:	5f 43       	mov.b	#1,	r15	;r3 As==01
    5678:	8d 93 0c 00 	tst	12(r13)	;0x000c(r13)
    567c:	0c 24       	jz	$+26     	;abs 0x5696
    567e:	0a 3c       	jmp	$+22     	;abs 0x5694
    5680:	1e 42 2a 13 	mov	&0x132a,r14	
    5684:	03 3c       	jmp	$+8      	;abs 0x568c
    5686:	0e 9d       	cmp	r13,	r14	
    5688:	05 24       	jz	$+12     	;abs 0x5694
    568a:	2e 4e       	mov	@r14,	r14	
    568c:	0e 93       	tst	r14		
    568e:	fb 23       	jnz	$-8      	;abs 0x5686
    5690:	5f 43       	mov.b	#1,	r15	;r3 As==01
    5692:	30 41       	ret			
    5694:	4f 43       	clr.b	r15		
    5696:	30 41       	ret			

00005698 <owreadb>:
--
00005880 <etimer_request_poll>:
    5880:	3f 40 2e 11 	mov	#4398,	r15	;#0x112e
    5884:	b0 12 92 73 	call	#0x7392	
    5888:	30 41       	ret			

0000588a <process_thread_etimer_process>:
    588a:	0b 12       	push	r11		
    588c:	0a 12       	push	r10		
    588e:	09 12       	push	r9		
    5890:	0a 4f       	mov	r15,	r10	
    5892:	2f 4f       	mov	@r15,	r15	
    5894:	0f 93       	tst	r15		
    5896:	04 24       	jz	$+10     	;abs 0x58a0
    5898:	3f 90 59 00 	cmp	#89,	r15	;#0x0059
    589c:	4d 20       	jnz	$+156    	;abs 0x5938
    589e:	51 3c       	jmp	$+164    	;abs 0x5942
    58a0:	82 43 2c 13 	mov	#0,	&0x132c	;r3 As==00
    58a4:	ba 40 59 00 	mov	#89,	0(r10)	;#0x0059, 0x0000(r10)
    58a8:	00 00 
    58aa:	5f 43       	mov.b	#1,	r15	;r3 As==01
    58ac:	50 3c       	jmp	$+162    	;abs 0x594e
    58ae:	1e 4e 08 00 	mov	8(r14),	r14	;0x0008(r14)
    58b2:	0e 93       	tst	r14		
    58b4:	01 20       	jnz	$+4      	;abs 0x58b8
    58b6:	f4 3f       	jmp	$-22     	;abs 0x58a0
    58b8:	8e 9d 0a 00 	cmp	r13,	10(r14)	;0x000a(r14)
--
00005996 <etimer_set>:
    5996:	0b 12       	push	r11		
    5998:	0b 4f       	mov	r15,	r11	
    599a:	b0 12 92 b6 	call	#0xb692	
    599e:	0f 4b       	mov	r11,	r15	
    59a0:	b0 12 56 59 	call	#0x5956	
    59a4:	3b 41       	pop	r11		
    59a6:	30 41       	ret			

000059a8 <etimer_reset>:
    59a8:	0b 12       	push	r11		
    59aa:	0b 4f       	mov	r15,	r11	
    59ac:	b0 12 d8 b6 	call	#0xb6d8	
    59b0:	0f 4b       	mov	r11,	r15	
    59b2:	b0 12 56 59 	call	#0x5956	
    59b6:	3b 41       	pop	r11		
    59b8:	30 41       	ret			

000059ba <etimer_pending>:
    59ba:	1f 43       	mov	#1,	r15	;r3 As==01
    59bc:	82 93 2c 13 	tst	&0x132c	
    59c0:	01 20       	jnz	$+4      	;abs 0x59c4
    59c2:	0f 43       	clr	r15		
    59c4:	30 41       	ret			

000059c6 <etimer_next_expiration_time>:
    59c6:	82 93 2c 13 	tst	&0x132c	
    59ca:	05 24       	jz	$+12     	;abs 0x59d6
    59cc:	1e 42 2e 13 	mov	&0x132e,r14	
    59d0:	1f 42 30 13 	mov	&0x1330,r15	
    59d4:	30 41       	ret			
    59d6:	0e 43       	clr	r14		
    59d8:	0f 43       	clr	r15		
    59da:	30 41       	ret			

000059dc <etimer_stop>:
    59dc:	0b 12       	push	r11		
    59de:	0b 4f       	mov	r15,	r11	
    59e0:	1f 42 2c 13 	mov	&0x132c,r15	
    59e4:	0b 9f       	cmp	r15,	r11	
    59e6:	05 20       	jnz	$+12     	;abs 0x59f2
    59e8:	92 4b 08 00 	mov	8(r11),	&0x132c	;0x0008(r11)
    59ec:	2c 13 
    59ee:	10 3c       	jmp	$+34     	;abs 0x5a10
    59f0:	0f 4e       	mov	r14,	r15	
    59f2:	0f 93       	tst	r15		
    59f4:	05 24       	jz	$+12     	;abs 0x5a00
    59f6:	1e 4f 08 00 	mov	8(r15),	r14	;0x0008(r15)
    59fa:	0e 9b       	cmp	r11,	r14	
    59fc:	f9 23       	jnz	$-12     	;abs 0x59f0
    59fe:	05 3c       	jmp	$+12     	;abs 0x5a0a
    5a00:	8b 43 08 00 	mov	#0,	8(r11)	;r3 As==00, 0x0008(r11)
    5a04:	8b 43 0a 00 	mov	#0,	10(r11)	;r3 As==00, 0x000a(r11)
    5a08:	06 3c       	jmp	$+14     	;abs 0x5a16
    5a0a:	9f 4b 08 00 	mov	8(r11),	8(r15)	;0x0008(r11), 0x0008(r15)
    5a0e:	08 00 
--
00006de6 <netstack_process_ip_callback>:
    6de6:	0b 12       	push	r11		
    6de8:	0a 12       	push	r10		
    6dea:	09 12       	push	r9		
    6dec:	4a 4f       	mov.b	r15,	r10	

----------------------------------------
FILE: extra-firmwares/udp-client.z1
extra-firmwares/udp-client.z1: ELF 32-bit LSB executable, TI msp430, version 1 (embedded), statically linked, with debug_info, not stripped

[Contiki process / protothread symbols]
00001100 D accmeter_process
0000d33c R autostart_processes
00003a3a T autostart_start
000064ce t call_process
0000110c D cc2420_process
00001130 D ctimer_process
00004b0e T ctimer_set_with_process
0000113c D etimer_process
0000650e t exit_process
0000bb18 t ext_hdr_options_process
         U gpio_hal_arch_port_interrupt_enable
000014d8 b ip_processor_list_list
0000239a b nd6_opt_llao
0000239c b nd6_opt_offset
000060f6 T netstack_process_ip_callback
000065cc T process_alloc_event
000025da B process_current
00006976 t process_dio_init_dag
000065e4 T process_init
000025d6 B process_list
000025d8 B process_maxevents
00006672 T process_nevents
0000670e T process_poll
0000667c T process_post
000066c6 T process_post_synch
000065ec T process_run
000066d8 T process_start
0000389c t process_thread_accmeter_process
0000402e t process_thread_cc2420_process
00004a68 t process_thread_ctimer_process
00004c50 t process_thread_etimer_process
000089cc t process_thread_sensors_process
0000a0e4 t process_thread_simple_udp_process
0000a2e6 t process_thread_stack_check_process
0000a516 t process_thread_tcpip_process
0000a83c t process_thread_udp_client_process
00006ea8 T rpl_process_dao
00006f0e T rpl_process_dao_ack
00006ce0 T rpl_process_dio
00006e7e T rpl_process_dis
00006f5e T rpl_process_hbh
000011be D sensors_process
000011ca D simple_udp_process
000011d6 D stack_check_process
000011e2 D tcpip_process
000011ee D udp_client_process
0000bd06 T uip_process

[Timer symbols]
0000458c T clock_seconds
0000451a T clock_time
00004bac T ctimer_expired
00004afa T ctimer_init
0000133c b ctimer_list_list
00001130 D ctimer_process
00004b58 T ctimer_reset
000081f6 t ctimer_set.constprop.3
00004b0e T ctimer_set_with_process
00004b84 T ctimer_stop
00001264 b debouncetimer
00004d84 T etimer_next_expiration_time
00004d78 T etimer_pending
0000113c D etimer_process
00004c46 T etimer_request_poll
00004d66 T etimer_reset
00004d54 T etimer_set
00004d9a T etimer_stop
00001b74 b next_rtimer
00004a68 t process_thread_ctimer_process
00004c50 t process_thread_etimer_process
00008998 T rtimer_arch_init
000089a6 T rtimer_arch_now
000089b4 T rtimer_run_next
0000a36e T stimer_expired
00001254 b suppressTimer1
0000125c b suppressTimer2
0000a60c T timer_expired
0000a636 T timer_reset
0000a5f0 T timer_set

[NETSTACK / packetbuf / uIP callback symbols]
00001344 b _link_stats_mem
00001b08 b _rpl_neighbors_mem
00001b7a b callback
00004976 T csma_output_init
00004840 T csma_output_packet
00007622 t dao_ack_input
00007652 t dao_input
000077aa t dio_input
00007a3c t dis_input
00002398 b echo_reply_callback_list_list
0000b23a t echo_reply_input
0000b290 t echo_request_input
         U gpio_hal_arch_port_pin_set_input
00009748 t input
00002386 b input_handler_list_list
000049f0 t input_packet
00005686 T link_stats_from_lladdr
000058c4 T link_stats_init
000057a4 T link_stats_input_callback
00005692 T link_stats_is_fresh
000056c2 T link_stats_packet_sent
0000589a T link_stats_reset
0000114a d link_stats_struct
000058f2 T linkaddr_cmp
000058ea T linkaddr_copy
000025a4 B linkaddr_node_addr
0000d2c6 R linkaddr_null
000060f6 T netstack_process_ip_callback
0000b520 t ns_input
0000121c d ns_input_handler
00009002 t output
0000d290 r output_power
0000a504 t packet_input.part.3
00006316 T packetbuf_addr
000025ae B packetbuf_addrs
000014e0 b packetbuf_aligned
000062fa T packetbuf_attr
00006246 T packetbuf_attr_clear
000062cc T packetbuf_attr_copyfrom
000062aa T packetbuf_attr_copyto
000025be B packetbuf_attrs
0000626e T packetbuf_clear
00006280 T packetbuf_copyfrom
000061c4 T packetbuf_copyto
000061a8 T packetbuf_datalen
000061b8 T packetbuf_dataptr
000024af b packetbuf_hdr_len
0000620a T packetbuf_hdralloc
000061ae T packetbuf_hdrlen
000061a2 T packetbuf_hdrptr
00006182 T packetbuf_hdrreduce
00006324 T packetbuf_holds_broadcast
00001b90 b packetbuf_payload_len
00001b86 b packetbuf_ptr
00006304 T packetbuf_set_addr
000062f0 T packetbuf_set_attr
0000619c T packetbuf_set_datalen
000061fe T packetbuf_totlen
0000a0e4 t process_thread_simple_udp_process
0000a516 t process_thread_tcpip_process
000067a2 T queuebuf_free
00006726 T queuebuf_init
00006742 T queuebuf_new_from_packetbuf
00006738 T queuebuf_numfree
000067cc T queuebuf_to_packetbuf
00006790 T queuebuf_update_attr_from_packetbuf
00006a26 T rpl_dag_get_root_ipaddr
00007030 T rpl_dag_init
00006f84 T rpl_dag_init_root
00006a44 T rpl_dag_leave
00006a9a T rpl_dag_periodic
00006a8e T rpl_dag_poison_and_leave
00006b82 T rpl_dag_ready_to_advertise
000068ea T rpl_dag_root_is_root
0000680a T rpl_dag_root_set_prefix
00006868 T rpl_dag_root_start
00006ba4 T rpl_dag_update_state
000071ee T rpl_ext_header_hbh_update
00007276 T rpl_ext_header_remove
0000708a T rpl_ext_header_srh_get_next_hop
00007106 T rpl_ext_header_srh_update
00007336 T rpl_ext_header_update
00008868 T rpl_get_global_address
00008766 T rpl_get_leaf_only
00006b54 T rpl_global_repair
0000873e T rpl_has_joined
00007d9c T rpl_icmp6_dao_ack_output
00007cc6 T rpl_icmp6_dao_output
00007abc T rpl_icmp6_dio_output
00007a88 T rpl_icmp6_dis_output
00007de2 T rpl_icmp6_init
00007a5a T rpl_icmp6_update_nbr_table
00006b04 T rpl_is_addr_in_our_dag
00008750 T rpl_is_reachable
000024ac b rpl_leaf_only
0000880e T rpl_link_callback
0000d2ce R rpl_lite_driver
00006b2a T rpl_local_repair
0000882c T rpl_lollipop_greater_than
00001190 D rpl_mrhof
000026e8 B rpl_multicast_addr
00007fa4 T rpl_nbr_gc_get_worst
0000814a T rpl_neighbor_get_from_ipaddr
00007fe8 T rpl_neighbor_get_from_lladdr
00008018 T rpl_neighbor_get_ipaddr
00008022 T rpl_neighbor_get_link_stats
0000800c T rpl_neighbor_get_lladdr
000081b2 T rpl_neighbor_init
0000802c T rpl_neighbor_is_fresh
00007ff4 T rpl_neighbor_rank_via_nbr
0000811a T rpl_neighbor_remove_all
0000815e T rpl_neighbor_select_best
000080d2 T rpl_neighbor_set_preferred_parent
000011b2 D rpl_neighbors
000011b4 d rpl_neighbors_struct
00006ea8 T rpl_process_dao
00006f0e T rpl_process_dao_ack
00006ce0 T rpl_process_dio
00006e7e T rpl_process_dis
00006f5e T rpl_process_hbh
000088f4 T rpl_reset_prefix
0000861e T rpl_schedule_probing
00008660 T rpl_schedule_probing_now
00008918 T rpl_set_prefix_from_addr
00008400 T rpl_timers_dio_reset
000086c2 T rpl_timers_init
000084ae T rpl_timers_notify_dao_ack
0000844a T rpl_timers_schedule_dao
0000847e T rpl_timers_schedule_dao_ack
0000869c T rpl_timers_schedule_leaving
00008368 T rpl_timers_schedule_periodic_dis
00008726 T rpl_timers_schedule_state_update
0000842e T rpl_timers_schedule_unicast_dio
000086da T rpl_timers_stop_dag_timers
00008680 T rpl_timers_unschedule_leaving
0000d320 R sicslowpan_driver
00008b0e T sicslowpan_init
000011ca D simple_udp_process
0000a1b4 T simple_udp_register
0000a18c T simple_udp_sendto
00002949 B tcpip_event
0000a3da T tcpip_input
0000a3f8 T tcpip_ipv6_output
0000a39e T tcpip_output
000011e2 D tcpip_process
0000a5c6 T tcpip_uipcall
0000225c b uart0_input_handler
0000a7f6 t udp_rx_callback
00002876 B uip_aligned_buf
00002906 B uip_appdata
0000bbaa t uip_check_mtu
00002908 B uip_conn
0000ae22 T uip_ds6_addr_add
0000ad78 T uip_ds6_addr_lookup
0000af0c T uip_ds6_addr_rm
00002809 B uip_ds6_addr_size
0000b0a0 T uip_ds6_compute_reachable_time
0000ac58 T uip_ds6_default_prefix
0000ab94 T uip_ds6_defrt_add
0000ac00 T uip_ds6_defrt_choose
0000ab64 T uip_ds6_defrt_lookup
0000ac2a T uip_ds6_defrt_periodic
0000ab38 T uip_ds6_defrt_rm
0000ada2 T uip_ds6_get_link_local
00002700 B uip_ds6_if
0000b0d6 T uip_ds6_init
0000ad38 T uip_ds6_is_addr_onlink
0000ab1e T uip_ds6_link_callback
0000ac5e T uip_ds6_list_loop
0000ade0 T uip_ds6_maddr_add
0000aee2 T uip_ds6_maddr_lookup
0000aed8 T uip_ds6_maddr_rm
0000a9fe T uip_ds6_nbr_add
0000aa34 T uip_ds6_nbr_get_ll
0000aa40 T uip_ds6_nbr_head
0000ab06 T uip_ds6_nbr_ipaddr_from_lladdr
0000aa8c T uip_ds6_nbr_ll_lookup
0000ab0c T uip_ds6_nbr_lladdr_from_ipaddr
0000aa56 T uip_ds6_nbr_lookup
0000aa4a T uip_ds6_nbr_next

[Contiki behavior strings]
Accelerometer process
Starting Contiki-NG-develop/v4.9-639-g6ac4608cd-dirty
Ctimer process
Event timer
RPL Lite
Simple UDP process
UDP client

[Disassembly samples around process/network functions]
0000389c <process_thread_accmeter_process>:
    389c:	0b 14       	pushm.a	#1,	r11	
    389e:	0b 4f       	mov	r15,	r11	
    38a0:	7e 90 82 ff 	cmp.b	#-126,	r14	;#0xff82
    38a4:	13 20       	jnz	$+40     	;abs 0x38cc
    38a6:	7f 40 30 00 	mov.b	#48,	r15	;#0x0030
    38aa:	b0 13 48 38 	calla	#0x03848	
    38ae:	4e 4f       	mov.b	r15,	r14	
    38b0:	1e b2 50 12 	bit	&0x1250,r14	
    38b4:	03 24       	jz	$+8      	;abs 0x38bc
    38b6:	2e 00 70 25 	mova	&0x02570,r14	
    38ba:	05 3c       	jmp	$+12     	;abs 0x38c6
    38bc:	1e b2 52 12 	bit	&0x1252,r14	
    38c0:	05 24       	jz	$+12     	;abs 0x38cc
    38c2:	2e 00 6c 25 	mova	&0x0256c,r14	
    38c6:	de 03       	tsta	r14		
    38c8:	01 24       	jz	$+4      	;abs 0x38cc
    38ca:	4e 13       	calla	r14		
    38cc:	2f 4b       	mov	@r11,	r15	
    38ce:	0f 93       	tst	r15		
    38d0:	04 24       	jz	$+10     	;abs 0x38da
--
0000402e <process_thread_cc2420_process>:
    402e:	0b 14       	pushm.a	#1,	r11	
    4030:	0b 4f       	mov	r15,	r11	
    4032:	2f 4f       	mov	@r15,	r15	
    4034:	0f 93       	tst	r15		
    4036:	04 24       	jz	$+10     	;abs 0x4040
    4038:	3f 90 81 03 	cmp	#897,	r15	;#0x0381
    403c:	15 20       	jnz	$+44     	;abs 0x4068
    403e:	1b 3c       	jmp	$+56     	;abs 0x4076
    4040:	bb 40 81 03 	mov	#897,	0(r11)	;#0x0381, 0x0000(r11)
    4044:	00 00 
    4046:	15 3c       	jmp	$+44     	;abs 0x4072
    4048:	7e 90 82 ff 	cmp.b	#-126,	r14	;#0xff82
    404c:	12 20       	jnz	$+38     	;abs 0x4072
    404e:	b0 13 6e 62 	calla	#0x0626e	
    4052:	b0 13 b8 61 	calla	#0x061b8	
    4056:	3e 40 80 00 	mov	#128,	r14	;#0x0080
    405a:	b0 13 74 3f 	calla	#0x03f74	
    405e:	b0 13 9c 61 	calla	#0x0619c	
    4062:	80 13 aa d2 	calla	&0x0d2aa	
    4066:	ec 3f       	jmp	$-38     	;abs 0x4040
--
00004a68 <process_thread_ctimer_process>:
    4a68:	2b 14       	pushm.a	#3,	r11	
    4a6a:	0a 4f       	mov	r15,	r10	
    4a6c:	2f 4f       	mov	@r15,	r15	
    4a6e:	0f 93       	tst	r15		
    4a70:	04 24       	jz	$+10     	;abs 0x4a7a
    4a72:	3f 90 45 00 	cmp	#69,	r15	;#0x0045
    4a76:	34 20       	jnz	$+106    	;abs 0x4ae0
    4a78:	3a 3c       	jmp	$+118    	;abs 0x4aee
    4a7a:	1b 42 3c 13 	mov	&0x133c,r11	
    4a7e:	09 3c       	jmp	$+20     	;abs 0x4a92
    4a80:	1d 4b 06 00 	mov	6(r11),	r13	;0x0006(r11)
    4a84:	1e 4b 08 00 	mov	8(r11),	r14	;0x0008(r11)
    4a88:	0f 4b       	mov	r11,	r15	
    4a8a:	2f 53       	incd	r15		
    4a8c:	b0 13 54 4d 	calla	#0x04d54	
    4a90:	2b 4b       	mov	@r11,	r11	
    4a92:	0b 93       	tst	r11		
    4a94:	f5 23       	jnz	$-20     	;abs 0x4a80
    4a96:	d2 43 79 24 	mov.b	#1,	&0x2479	;r3 As==01
    4a9a:	ba 40 45 00 	mov	#69,	0(r10)	;#0x0045, 0x0000(r10)
--
00004afa <ctimer_init>:
    4afa:	c2 43 79 24 	mov.b	#0,	&0x2479	;r3 As==00
    4afe:	82 43 3c 13 	mov	#0,	&0x133c	;r3 As==00
    4b02:	0e 43       	clr	r14		
    4b04:	3f 40 30 11 	mov	#4400,	r15	;#0x1130
    4b08:	b0 13 d8 66 	calla	#0x066d8	
    4b0c:	10 01       	reta			

00004b0e <ctimer_set_with_process>:
    4b0e:	2b 14       	pushm.a	#3,	r11	
    4b10:	09 4f       	mov	r15,	r9	
    4b12:	0a 4d       	mov	r13,	r10	
    4b14:	0b 4e       	mov	r14,	r11	
    4b16:	9f 41 12 00 	mov	18(r1),	14(r15)	;0x0012(r1), 0x000e(r15)
    4b1a:	0e 00 
    4b1c:	7f 0c 10 00 	mova	r12,	16(r15)	;0x0010(r15)
    4b20:	9f 41 10 00 	mov	16(r1),	20(r15)	;0x0010(r1), 0x0014(r15)
    4b24:	14 00 
    4b26:	c2 93 79 24 	tst.b	&0x2479	
    4b2a:	0b 24       	jz	$+24     	;abs 0x4b42
    4b2c:	1b 42 da 25 	mov	&0x25da,r11	
    4b30:	b2 40 30 11 	mov	#4400,	&0x25da	;#0x1130
    4b34:	da 25 
    4b36:	2f 53       	incd	r15		
    4b38:	b0 13 54 4d 	calla	#0x04d54	
    4b3c:	82 4b da 25 	mov	r11,	&0x25da	
    4b40:	04 3c       	jmp	$+10     	;abs 0x4b4a
    4b42:	89 4d 06 00 	mov	r13,	6(r9)	;0x0006(r9)
    4b46:	89 4e 08 00 	mov	r14,	8(r9)	;0x0008(r9)
--
00004b58 <ctimer_reset>:
    4b58:	1b 14       	pushm.a	#2,	r11	
    4b5a:	0b 4f       	mov	r15,	r11	
    4b5c:	c2 93 79 24 	tst.b	&0x2479	
    4b60:	0a 24       	jz	$+22     	;abs 0x4b76
    4b62:	1a 42 da 25 	mov	&0x25da,r10	
    4b66:	b2 40 30 11 	mov	#4400,	&0x25da	;#0x1130
    4b6a:	da 25 
    4b6c:	2f 53       	incd	r15		
    4b6e:	b0 13 66 4d 	calla	#0x04d66	
    4b72:	82 4a da 25 	mov	r10,	&0x25da	
    4b76:	0e 4b       	mov	r11,	r14	
    4b78:	3f 40 3c 13 	mov	#4924,	r15	;#0x133c
    4b7c:	b0 13 60 59 	calla	#0x05960	
    4b80:	1a 16       	popm.a	#2,	r11	
    4b82:	10 01       	reta			

00004b84 <ctimer_stop>:
    4b84:	0b 14       	pushm.a	#1,	r11	
    4b86:	0b 4f       	mov	r15,	r11	
    4b88:	c2 93 79 24 	tst.b	&0x2479	
    4b8c:	04 24       	jz	$+10     	;abs 0x4b96
    4b8e:	2f 53       	incd	r15		
    4b90:	b0 13 9a 4d 	calla	#0x04d9a	
    4b94:	04 3c       	jmp	$+10     	;abs 0x4b9e
    4b96:	8f 43 0a 00 	mov	#0,	10(r15)	;r3 As==00, 0x000a(r15)
    4b9a:	8f 43 0c 00 	mov	#0,	12(r15)	;r3 As==00, 0x000c(r15)
    4b9e:	0e 4b       	mov	r11,	r14	
    4ba0:	3f 40 3c 13 	mov	#4924,	r15	;#0x133c
    4ba4:	b0 13 16 59 	calla	#0x05916	
    4ba8:	0b 16       	popm.a	#1,	r11	
    4baa:	10 01       	reta			

00004bac <ctimer_expired>:
    4bac:	0d 4f       	mov	r15,	r13	
    4bae:	c2 93 79 24 	tst.b	&0x2479	
    4bb2:	05 24       	jz	$+12     	;abs 0x4bbe
    4bb4:	5f 43       	mov.b	#1,	r15	;r3 As==01
    4bb6:	8d 93 0c 00 	tst	12(r13)	;0x000c(r13)
    4bba:	0c 24       	jz	$+26     	;abs 0x4bd4
    4bbc:	0a 3c       	jmp	$+22     	;abs 0x4bd2
    4bbe:	1e 42 3c 13 	mov	&0x133c,r14	
    4bc2:	03 3c       	jmp	$+8      	;abs 0x4bca
    4bc4:	0e 9d       	cmp	r13,	r14	
    4bc6:	05 24       	jz	$+12     	;abs 0x4bd2
    4bc8:	2e 4e       	mov	@r14,	r14	
    4bca:	0e 93       	tst	r14		
    4bcc:	fb 23       	jnz	$-8      	;abs 0x4bc4
    4bce:	5f 43       	mov.b	#1,	r15	;r3 As==01
    4bd0:	10 01       	reta			
    4bd2:	4f 43       	clr.b	r15		
    4bd4:	10 01       	reta			

00004bd6 <update_time>:
--
00004c46 <etimer_request_poll>:
    4c46:	3f 40 3c 11 	mov	#4412,	r15	;#0x113c
    4c4a:	b0 13 0e 67 	calla	#0x0670e	
    4c4e:	10 01       	reta			

00004c50 <process_thread_etimer_process>:
    4c50:	2b 14       	pushm.a	#3,	r11	
    4c52:	0a 4f       	mov	r15,	r10	
    4c54:	2f 4f       	mov	@r15,	r15	
    4c56:	0f 93       	tst	r15		
    4c58:	04 24       	jz	$+10     	;abs 0x4c62
    4c5a:	3f 90 59 00 	cmp	#89,	r15	;#0x0059
    4c5e:	4d 20       	jnz	$+156    	;abs 0x4cfa
    4c60:	51 3c       	jmp	$+164    	;abs 0x4d04
    4c62:	82 43 3e 13 	mov	#0,	&0x133e	;r3 As==00
    4c66:	ba 40 59 00 	mov	#89,	0(r10)	;#0x0059, 0x0000(r10)
    4c6a:	00 00 
    4c6c:	5f 43       	mov.b	#1,	r15	;r3 As==01
    4c6e:	50 3c       	jmp	$+162    	;abs 0x4d10
    4c70:	1e 4e 08 00 	mov	8(r14),	r14	;0x0008(r14)
    4c74:	0e 93       	tst	r14		
    4c76:	01 20       	jnz	$+4      	;abs 0x4c7a
    4c78:	f4 3f       	jmp	$-22     	;abs 0x4c62
    4c7a:	8e 9d 0a 00 	cmp	r13,	10(r14)	;0x000a(r14)
    4c7e:	f8 27       	jz	$-14     	;abs 0x4c70
    4c80:	82 4e 3e 13 	mov	r14,	&0x133e	
--
00004d54 <etimer_set>:
    4d54:	0b 14       	pushm.a	#1,	r11	
    4d56:	0b 4f       	mov	r15,	r11	
    4d58:	b0 13 f0 a5 	calla	#0x0a5f0	
    4d5c:	0f 4b       	mov	r11,	r15	
    4d5e:	b0 13 14 4d 	calla	#0x04d14	
    4d62:	0b 16       	popm.a	#1,	r11	
    4d64:	10 01       	reta			

00004d66 <etimer_reset>:
    4d66:	0b 14       	pushm.a	#1,	r11	
    4d68:	0b 4f       	mov	r15,	r11	
    4d6a:	b0 13 36 a6 	calla	#0x0a636	
    4d6e:	0f 4b       	mov	r11,	r15	
    4d70:	b0 13 14 4d 	calla	#0x04d14	
    4d74:	0b 16       	popm.a	#1,	r11	
    4d76:	10 01       	reta			

00004d78 <etimer_pending>:
    4d78:	1f 43       	mov	#1,	r15	;r3 As==01
    4d7a:	82 93 3e 13 	tst	&0x133e	
    4d7e:	01 20       	jnz	$+4      	;abs 0x4d82
    4d80:	0f 43       	clr	r15		
    4d82:	10 01       	reta			

00004d84 <etimer_next_expiration_time>:
    4d84:	82 93 3e 13 	tst	&0x133e	
    4d88:	05 24       	jz	$+12     	;abs 0x4d94
    4d8a:	1e 42 40 13 	mov	&0x1340,r14	
    4d8e:	1f 42 42 13 	mov	&0x1342,r15	
    4d92:	10 01       	reta			
    4d94:	0e 43       	clr	r14		
    4d96:	0f 43       	clr	r15		
    4d98:	10 01       	reta			

00004d9a <etimer_stop>:
    4d9a:	0b 14       	pushm.a	#1,	r11	
    4d9c:	0b 4f       	mov	r15,	r11	
    4d9e:	1f 42 3e 13 	mov	&0x133e,r15	
    4da2:	0b 9f       	cmp	r15,	r11	
    4da4:	05 20       	jnz	$+12     	;abs 0x4db0
    4da6:	92 4b 08 00 	mov	8(r11),	&0x133e	;0x0008(r11)

----------------------------------------
FILE: extra-firmwares/udp-server.sky
extra-firmwares/udp-server.sky: ELF 32-bit LSB executable, TI msp430, version 1 (embedded), statically linked, with debug_info, not stripped

[Contiki process / protothread symbols]
0000e5e8 R autostart_processes
00004280 T autostart_start
00007144 t call_process
00001100 D cc2420_process
00001124 D ctimer_process
000055c8 T ctimer_set_with_process
0000112e D etimer_process
0000718a t exit_process
0000cb1e t ext_hdr_options_process
         U gpio_hal_arch_port_interrupt_enable
000015b0 b ip_processor_list_list
0000266c b nd6_opt_llao
0000266e b nd6_opt_offset
00006de6 T netstack_process_ip_callback
00007252 T process_alloc_event
0000291c B process_current
0000761a t process_dio_init_dag
0000726a T process_init
0000291a B process_list
000072fe T process_nevents
00007392 T process_poll
00007308 T process_post
0000734a T process_post_synch
00007272 T process_run
0000735c T process_start
0000495a t process_thread_cc2420_process
0000551a t process_thread_ctimer_process
0000588a t process_thread_etimer_process
000098ca t process_thread_sensors_process
0000b150 t process_thread_simple_udp_process
0000b372 t process_thread_stack_check_process
0000b5b2 t process_thread_tcpip_process
0000b828 t process_thread_udp_server_process
00007b7a T rpl_process_dao
00007be6 T rpl_process_dao_ack
0000799a T rpl_process_dio
00007b50 T rpl_process_dis
00007c3a T rpl_process_hbh
000011ea D sensors_process
000011f4 D simple_udp_process
000011fe D stack_check_process
00001208 D tcpip_process
00001212 D udp_server_process
0000cd5e T uip_process

[Timer symbols]
00005000 T clock_seconds
00004fb2 T clock_time
0000566e T ctimer_expired
000055b4 T ctimer_init
0000132a b ctimer_list_list
00001124 D ctimer_process
00005616 T ctimer_reset
0000904c t ctimer_set.constprop.3
000055c8 T ctimer_set_with_process
00005646 T ctimer_stop
0000124a b debouncetimer
000059c6 T etimer_next_expiration_time
000059ba T etimer_pending
0000112e D etimer_process
00005880 T etimer_request_poll
000059a8 T etimer_reset
00005996 T etimer_set
000059dc T etimer_stop
00001d30 b next_rtimer
0000551a t process_thread_ctimer_process
0000588a t process_thread_etimer_process
00009896 T rtimer_arch_init
000098a4 T rtimer_arch_now
000098b2 T rtimer_run_next
0000b402 T stimer_expired
0000b6ae T timer_expired
0000b6d8 T timer_reset
0000b692 T timer_set

[NETSTACK / packetbuf / uIP callback symbols]
00001332 b _link_stats_mem
00001c88 b _rpl_neighbors_mem
00001d38 b callback
00005428 T csma_output_init
000052e2 T csma_output_packet
000013e8 B curr_log_level_rpl
000013e6 B curr_log_level_tcpip
000083ba t dao_ack_input
000083ea t dao_input
00008556 t dio_input
00008810 t dis_input
0000266a b echo_reply_callback_list_list
0000c1c8 t echo_reply_input
0000c226 t echo_request_input
         U gpio_hal_arch_port_pin_set_input
0000a736 t input
00002658 b input_handler_list_list
000054a2 t input_packet
0000626c T link_stats_from_lladdr
000064cc T link_stats_init
0000639c T link_stats_input_callback
00006278 T link_stats_is_fresh
000062a8 T link_stats_packet_sent
000064a2 T link_stats_reset
0000113a d link_stats_struct
000064fa T linkaddr_cmp
000064f2 T linkaddr_copy
000028e8 B linkaddr_node_addr
0000e3a4 R linkaddr_null
00006de6 T netstack_process_ip_callback
0000c4d2 t ns_input
00001238 d ns_input_handler
00009f98 t output
0000e37a r output_power
0000b5a0 t packet_input.part.3
00006fd6 T packetbuf_addr
000028f2 B packetbuf_addrs
000015ba b packetbuf_aligned
00006fb6 T packetbuf_attr
00006efe T packetbuf_attr_clear
00006f88 T packetbuf_attr_copyfrom
00006f66 T packetbuf_attr_copyto
00002902 B packetbuf_attrs
00006f26 T packetbuf_clear
00006f38 T packetbuf_copyfrom
00006e70 T packetbuf_copyto
00006e54 T packetbuf_datalen
00006e64 T packetbuf_dataptr
00001d45 b packetbuf_hdr_len
00006ec2 T packetbuf_hdralloc
00006e5a T packetbuf_hdrlen
00006e4e T packetbuf_hdrptr
00006e2e T packetbuf_hdrreduce
00006fe8 T packetbuf_holds_broadcast
00001d50 b packetbuf_payload_len
00001d46 b packetbuf_ptr
00006fc0 T packetbuf_set_addr
00006fac T packetbuf_set_attr
00006e48 T packetbuf_set_datalen
00006eb6 T packetbuf_totlen
0000b150 t process_thread_simple_udp_process
0000b5b2 t process_thread_tcpip_process
0000742a T queuebuf_free
000073aa T queuebuf_init
000073c6 T queuebuf_new_from_packetbuf
000073bc T queuebuf_numfree
00007454 T queuebuf_to_packetbuf
00007418 T queuebuf_update_attr_from_packetbuf
000076ca T rpl_dag_get_root_ipaddr
00007d24 T rpl_dag_init
00007c68 T rpl_dag_init_root
000076e8 T rpl_dag_leave
0000773e T rpl_dag_periodic
00007732 T rpl_dag_poison_and_leave
00007834 T rpl_dag_ready_to_advertise
00007582 T rpl_dag_root_is_root
00007492 T rpl_dag_root_set_prefix
000074f4 T rpl_dag_root_start
00007856 T rpl_dag_update_state
00007f1a T rpl_ext_header_hbh_update
00007fb6 T rpl_ext_header_remove
00007d7e T rpl_ext_header_srh_get_next_hop
00007e02 T rpl_ext_header_srh_update
00008082 T rpl_ext_header_update
000096f6 T rpl_get_global_address
000095e8 T rpl_get_leaf_only
00007806 T rpl_global_repair
000095c0 T rpl_has_joined
00008baa T rpl_icmp6_dao_ack_output
00008ac8 T rpl_icmp6_dao_output
00008898 T rpl_icmp6_dio_output
00008864 T rpl_icmp6_dis_output
00008bf8 T rpl_icmp6_init
0000882e T rpl_icmp6_update_nbr_table
000077a8 T rpl_is_addr_in_our_dag
000095d2 T rpl_is_reachable
000027d6 b rpl_leaf_only
0000969c T rpl_link_callback
0000e550 R rpl_lite_driver
000077dc T rpl_local_repair
000096ba T rpl_lollipop_greater_than
000011ce D rpl_mrhof
00002a1c B rpl_multicast_addr
00008dda T rpl_nbr_gc_get_worst
00008fa0 T rpl_neighbor_get_from_ipaddr
00008e26 T rpl_neighbor_get_from_lladdr
00008e56 T rpl_neighbor_get_ipaddr
00008e60 T rpl_neighbor_get_link_stats
00008e4a T rpl_neighbor_get_lladdr
00009008 T rpl_neighbor_init
00008e6a T rpl_neighbor_is_fresh
00008e32 T rpl_neighbor_rank_via_nbr
00008f70 T rpl_neighbor_remove_all
00008fb4 T rpl_neighbor_select_best
00008f28 T rpl_neighbor_set_preferred_parent
000011e0 D rpl_neighbors
000011e2 d rpl_neighbors_struct
00007b7a T rpl_process_dao
00007be6 T rpl_process_dao_ack
0000799a T rpl_process_dio
00007b50 T rpl_process_dis
00007c3a T rpl_process_hbh
000097b4 T rpl_reset_prefix
0000949c T rpl_schedule_probing
000094e2 T rpl_schedule_probing_now
000097d8 T rpl_set_prefix_from_addr
00009262 T rpl_timers_dio_reset
00009544 T rpl_timers_init
00009314 T rpl_timers_notify_dao_ack
000092ac T rpl_timers_schedule_dao
000092e4 T rpl_timers_schedule_dao_ack
0000951e T rpl_timers_schedule_leaving
000091c6 T rpl_timers_schedule_periodic_dis
000095a8 T rpl_timers_schedule_state_update
00009290 T rpl_timers_schedule_unicast_dio
0000955c T rpl_timers_stop_dag_timers
00009502 T rpl_timers_unschedule_leaving
0000e586 R sicslowpan_driver
00009a0c T sicslowpan_init
000011f4 D simple_udp_process
0000b234 T simple_udp_register
0000b208 T simple_udp_sendto
00002d7f B tcpip_event
0000b46e T tcpip_input
0000b48c T tcpip_ipv6_output
0000b432 T tcpip_output
00001208 D tcpip_process
0000b668 T tcpip_uipcall
00002434 b uart1_input_handler
0000b85a t udp_rx_callback
00002baa B uip_aligned_buf
00002c9e B uip_appdata
0000cbc2 t uip_check_mtu
00002ca0 B uip_conn
0000bd80 T uip_ds6_addr_add
0000bcd6 T uip_ds6_addr_lookup
0000be7a T uip_ds6_addr_rm
00002b3d B uip_ds6_addr_size
0000c026 T uip_ds6_compute_reachable_time
0000bb78 T uip_ds6_default_prefix
0000baa4 T uip_ds6_defrt_add
0000bb1c T uip_ds6_defrt_choose
0000ba70 T uip_ds6_defrt_lookup
0000bb4a T uip_ds6_defrt_periodic
0000ba44 T uip_ds6_defrt_rm
0000bd00 T uip_ds6_get_link_local
00002a34 B uip_ds6_if
0000c064 T uip_ds6_init
0000bc84 T uip_ds6_is_addr_onlink
0000ba2a T uip_ds6_link_callback
0000bb7e T uip_ds6_list_loop
0000bd3e T uip_ds6_maddr_add
0000be50 T uip_ds6_maddr_lookup
0000be46 T uip_ds6_maddr_rm
0000b8f6 T uip_ds6_nbr_add
0000b934 T uip_ds6_nbr_get_ll
0000b940 T uip_ds6_nbr_head
0000ba12 T uip_ds6_nbr_ipaddr_from_lladdr
0000b990 T uip_ds6_nbr_ll_lookup
0000ba18 T uip_ds6_nbr_lladdr_from_ipaddr

[Contiki behavior strings]
tcpip
RPL Lite
UDP server
Starting Contiki-NG-develop/v4.9-639-g6ac4608cd
Ctimer process
Event timer
Simple UDP process

[Disassembly samples around process/network functions]
0000495a <process_thread_cc2420_process>:
    495a:	0b 12       	push	r11		
    495c:	0b 4f       	mov	r15,	r11	
    495e:	2f 4f       	mov	@r15,	r15	
    4960:	0f 93       	tst	r15		
    4962:	04 24       	jz	$+10     	;abs 0x496c
    4964:	3f 90 81 03 	cmp	#897,	r15	;#0x0381
    4968:	15 20       	jnz	$+44     	;abs 0x4994
    496a:	1b 3c       	jmp	$+56     	;abs 0x49a2
    496c:	bb 40 81 03 	mov	#897,	0(r11)	;#0x0381, 0x0000(r11)
    4970:	00 00 
    4972:	15 3c       	jmp	$+44     	;abs 0x499e
    4974:	7e 90 82 ff 	cmp.b	#-126,	r14	;#0xff82
    4978:	12 20       	jnz	$+38     	;abs 0x499e
    497a:	b0 12 26 6f 	call	#0x6f26	
    497e:	b0 12 64 6e 	call	#0x6e64	
    4982:	3e 40 80 00 	mov	#128,	r14	;#0x0080
    4986:	b0 12 9c 48 	call	#0x489c	
    498a:	b0 12 48 6e 	call	#0x6e48	
    498e:	92 12 96 e3 	call	&0xe396	
    4992:	ec 3f       	jmp	$-38     	;abs 0x496c
--
0000551a <process_thread_ctimer_process>:
    551a:	0b 12       	push	r11		
    551c:	0a 12       	push	r10		
    551e:	09 12       	push	r9		
    5520:	0a 4f       	mov	r15,	r10	
    5522:	2f 4f       	mov	@r15,	r15	
    5524:	0f 93       	tst	r15		
    5526:	04 24       	jz	$+10     	;abs 0x5530
    5528:	3f 90 45 00 	cmp	#69,	r15	;#0x0045
    552c:	34 20       	jnz	$+106    	;abs 0x5596
    552e:	3a 3c       	jmp	$+118    	;abs 0x55a4
    5530:	1b 42 2a 13 	mov	&0x132a,r11	
    5534:	09 3c       	jmp	$+20     	;abs 0x5548
    5536:	1d 4b 06 00 	mov	6(r11),	r13	;0x0006(r11)
    553a:	1e 4b 08 00 	mov	8(r11),	r14	;0x0008(r11)
    553e:	0f 4b       	mov	r11,	r15	
    5540:	2f 53       	incd	r15		
    5542:	b0 12 96 59 	call	#0x5996	
    5546:	2b 4b       	mov	@r11,	r11	
    5548:	0b 93       	tst	r11		
    554a:	f5 23       	jnz	$-20     	;abs 0x5536
--
000055b4 <ctimer_init>:
    55b4:	c2 43 28 13 	mov.b	#0,	&0x1328	;r3 As==00
    55b8:	82 43 2a 13 	mov	#0,	&0x132a	;r3 As==00
    55bc:	0e 43       	clr	r14		
    55be:	3f 40 24 11 	mov	#4388,	r15	;#0x1124
    55c2:	b0 12 5c 73 	call	#0x735c	
    55c6:	30 41       	ret			

000055c8 <ctimer_set_with_process>:
    55c8:	0b 12       	push	r11		
    55ca:	0a 12       	push	r10		
    55cc:	09 12       	push	r9		
    55ce:	09 4f       	mov	r15,	r9	
    55d0:	9f 41 0a 00 	mov	10(r1),	14(r15)	;0x000a(r1), 0x000e(r15)
    55d4:	0e 00 
    55d6:	8f 4c 10 00 	mov	r12,	16(r15)	;0x0010(r15)
    55da:	9f 41 08 00 	mov	8(r1),	18(r15)	;0x0008(r1), 0x0012(r15)
    55de:	12 00 
    55e0:	c2 93 28 13 	tst.b	&0x1328	
    55e4:	0b 24       	jz	$+24     	;abs 0x55fc
    55e6:	1b 42 1c 29 	mov	&0x291c,r11	
    55ea:	b2 40 24 11 	mov	#4388,	&0x291c	;#0x1124
    55ee:	1c 29 
    55f0:	2f 53       	incd	r15		
    55f2:	b0 12 96 59 	call	#0x5996	
    55f6:	82 4b 1c 29 	mov	r11,	&0x291c	
    55fa:	04 3c       	jmp	$+10     	;abs 0x5604
    55fc:	89 4d 06 00 	mov	r13,	6(r9)	;0x0006(r9)
    5600:	89 4e 08 00 	mov	r14,	8(r9)	;0x0008(r9)
--
00005616 <ctimer_reset>:
    5616:	0b 12       	push	r11		
    5618:	0a 12       	push	r10		
    561a:	0b 4f       	mov	r15,	r11	
    561c:	c2 93 28 13 	tst.b	&0x1328	
    5620:	0a 24       	jz	$+22     	;abs 0x5636
    5622:	1a 42 1c 29 	mov	&0x291c,r10	
    5626:	b2 40 24 11 	mov	#4388,	&0x291c	;#0x1124
    562a:	1c 29 
    562c:	2f 53       	incd	r15		
    562e:	b0 12 a8 59 	call	#0x59a8	
    5632:	82 4a 1c 29 	mov	r10,	&0x291c	
    5636:	0e 4b       	mov	r11,	r14	
    5638:	3f 40 2a 13 	mov	#4906,	r15	;#0x132a
    563c:	b0 12 6c 65 	call	#0x656c	
    5640:	3a 41       	pop	r10		
    5642:	3b 41       	pop	r11		
    5644:	30 41       	ret			

00005646 <ctimer_stop>:
    5646:	0b 12       	push	r11		
    5648:	0b 4f       	mov	r15,	r11	
    564a:	c2 93 28 13 	tst.b	&0x1328	
    564e:	04 24       	jz	$+10     	;abs 0x5658
    5650:	2f 53       	incd	r15		
    5652:	b0 12 dc 59 	call	#0x59dc	
    5656:	04 3c       	jmp	$+10     	;abs 0x5660
    5658:	8f 43 0a 00 	mov	#0,	10(r15)	;r3 As==00, 0x000a(r15)
    565c:	8f 43 0c 00 	mov	#0,	12(r15)	;r3 As==00, 0x000c(r15)
    5660:	0e 4b       	mov	r11,	r14	
    5662:	3f 40 2a 13 	mov	#4906,	r15	;#0x132a
    5666:	b0 12 1e 65 	call	#0x651e	
    566a:	3b 41       	pop	r11		
    566c:	30 41       	ret			

0000566e <ctimer_expired>:
    566e:	0d 4f       	mov	r15,	r13	
    5670:	c2 93 28 13 	tst.b	&0x1328	
    5674:	05 24       	jz	$+12     	;abs 0x5680
    5676:	5f 43       	mov.b	#1,	r15	;r3 As==01
    5678:	8d 93 0c 00 	tst	12(r13)	;0x000c(r13)
    567c:	0c 24       	jz	$+26     	;abs 0x5696
    567e:	0a 3c       	jmp	$+22     	;abs 0x5694
    5680:	1e 42 2a 13 	mov	&0x132a,r14	
    5684:	03 3c       	jmp	$+8      	;abs 0x568c
    5686:	0e 9d       	cmp	r13,	r14	
    5688:	05 24       	jz	$+12     	;abs 0x5694
    568a:	2e 4e       	mov	@r14,	r14	
    568c:	0e 93       	tst	r14		
    568e:	fb 23       	jnz	$-8      	;abs 0x5686
    5690:	5f 43       	mov.b	#1,	r15	;r3 As==01
    5692:	30 41       	ret			
    5694:	4f 43       	clr.b	r15		
    5696:	30 41       	ret			

00005698 <owreadb>:
--
00005880 <etimer_request_poll>:
    5880:	3f 40 2e 11 	mov	#4398,	r15	;#0x112e
    5884:	b0 12 92 73 	call	#0x7392	
    5888:	30 41       	ret			

0000588a <process_thread_etimer_process>:
    588a:	0b 12       	push	r11		
    588c:	0a 12       	push	r10		
    588e:	09 12       	push	r9		
    5890:	0a 4f       	mov	r15,	r10	
    5892:	2f 4f       	mov	@r15,	r15	
    5894:	0f 93       	tst	r15		
    5896:	04 24       	jz	$+10     	;abs 0x58a0
    5898:	3f 90 59 00 	cmp	#89,	r15	;#0x0059
    589c:	4d 20       	jnz	$+156    	;abs 0x5938
    589e:	51 3c       	jmp	$+164    	;abs 0x5942
    58a0:	82 43 2c 13 	mov	#0,	&0x132c	;r3 As==00
    58a4:	ba 40 59 00 	mov	#89,	0(r10)	;#0x0059, 0x0000(r10)
    58a8:	00 00 
    58aa:	5f 43       	mov.b	#1,	r15	;r3 As==01
    58ac:	50 3c       	jmp	$+162    	;abs 0x594e
    58ae:	1e 4e 08 00 	mov	8(r14),	r14	;0x0008(r14)
    58b2:	0e 93       	tst	r14		
    58b4:	01 20       	jnz	$+4      	;abs 0x58b8
    58b6:	f4 3f       	jmp	$-22     	;abs 0x58a0
    58b8:	8e 9d 0a 00 	cmp	r13,	10(r14)	;0x000a(r14)
--
00005996 <etimer_set>:
    5996:	0b 12       	push	r11		
    5998:	0b 4f       	mov	r15,	r11	
    599a:	b0 12 92 b6 	call	#0xb692	
    599e:	0f 4b       	mov	r11,	r15	
    59a0:	b0 12 56 59 	call	#0x5956	
    59a4:	3b 41       	pop	r11		
    59a6:	30 41       	ret			

000059a8 <etimer_reset>:
    59a8:	0b 12       	push	r11		
    59aa:	0b 4f       	mov	r15,	r11	
    59ac:	b0 12 d8 b6 	call	#0xb6d8	
    59b0:	0f 4b       	mov	r11,	r15	
    59b2:	b0 12 56 59 	call	#0x5956	
    59b6:	3b 41       	pop	r11		
    59b8:	30 41       	ret			

000059ba <etimer_pending>:
    59ba:	1f 43       	mov	#1,	r15	;r3 As==01
    59bc:	82 93 2c 13 	tst	&0x132c	
    59c0:	01 20       	jnz	$+4      	;abs 0x59c4
    59c2:	0f 43       	clr	r15		
    59c4:	30 41       	ret			

000059c6 <etimer_next_expiration_time>:
    59c6:	82 93 2c 13 	tst	&0x132c	
    59ca:	05 24       	jz	$+12     	;abs 0x59d6
    59cc:	1e 42 2e 13 	mov	&0x132e,r14	
    59d0:	1f 42 30 13 	mov	&0x1330,r15	
    59d4:	30 41       	ret			
    59d6:	0e 43       	clr	r14		
    59d8:	0f 43       	clr	r15		
    59da:	30 41       	ret			

000059dc <etimer_stop>:
    59dc:	0b 12       	push	r11		
    59de:	0b 4f       	mov	r15,	r11	
    59e0:	1f 42 2c 13 	mov	&0x132c,r15	
    59e4:	0b 9f       	cmp	r15,	r11	
    59e6:	05 20       	jnz	$+12     	;abs 0x59f2
    59e8:	92 4b 08 00 	mov	8(r11),	&0x132c	;0x0008(r11)
    59ec:	2c 13 
    59ee:	10 3c       	jmp	$+34     	;abs 0x5a10
    59f0:	0f 4e       	mov	r14,	r15	
    59f2:	0f 93       	tst	r15		
    59f4:	05 24       	jz	$+12     	;abs 0x5a00
    59f6:	1e 4f 08 00 	mov	8(r15),	r14	;0x0008(r15)
    59fa:	0e 9b       	cmp	r11,	r14	
    59fc:	f9 23       	jnz	$-12     	;abs 0x59f0
    59fe:	05 3c       	jmp	$+12     	;abs 0x5a0a
    5a00:	8b 43 08 00 	mov	#0,	8(r11)	;r3 As==00, 0x0008(r11)
    5a04:	8b 43 0a 00 	mov	#0,	10(r11)	;r3 As==00, 0x000a(r11)
    5a08:	06 3c       	jmp	$+14     	;abs 0x5a16
    5a0a:	9f 4b 08 00 	mov	8(r11),	8(r15)	;0x0008(r11), 0x0008(r15)
    5a0e:	08 00 
--
00006de6 <netstack_process_ip_callback>:
    6de6:	0b 12       	push	r11		
    6de8:	0a 12       	push	r10		
    6dea:	09 12       	push	r9		
    6dec:	4a 4f       	mov.b	r15,	r10	
